GAS LISTING C:\Users\bayra\AppData\Local\Temp\cc4lF4Vd.s 			page 1


   1              		.file	"can_lld.c"
   2              		.section	".text","axv"
   3              	.Ltext0:
   4              		.cfi_sections	.debug_frame
   5              		.section	.text.can_lld_getframesize,"axv",@progbits
   6              		.align 1
   7              		.p2align 4,,15
   8              		.globl can_lld_getframesize
   9              		.type	can_lld_getframesize, @function
  10              	can_lld_getframesize:
  11              	.LFB5:
  12              		.file 1 "./components/spc58xgxx_low_level_drivers_component_rla/lib/src/can_lld.c"
  13              		.loc 1 310 0
  14              		.cfi_startproc
  15              	.LVL0:
  16              		.loc 1 311 0
  17 0000 18E384F7 		e_addi %r7,%r3,-9
  18 0004 00C7     		se_extzb %r7
  19 0006 2257     		se_cmpli %r7,6
  20 0008 7A11001C 		e_bgt %cr0,.L3
  21 000c 6C27     		se_slwi %r7, 2
  22 000e 70C0E000 		e_lis %r6,.L4@ha
  23 0012 1CC60000 		e_la %r6,.L4@l(%r6)
  24 0016 7CE6382E 		lwzx %r7,%r6,%r7
  25 001a 7CC73214 		add %r6,%r7,%r6
  26 001e 00B6     		se_mtctr %r6
  27 0020 0006     		se_bctr
  28              		.section	.rodata.can_lld_getframesize,"a",@progbits
  29              		.align 2
  30              		.align 2
  31              	.L4:
  32 0000 00000000 		.long .L11-.L4
  33 0004 00000000 		.long .L5-.L4
  34 0008 00000000 		.long .L6-.L4
  35 000c 00000000 		.long .L7-.L4
  36 0010 00000000 		.long .L8-.L4
  37 0014 00000000 		.long .L9-.L4
  38 0018 00000000 		.long .L10-.L4
  39              		.section	.text.can_lld_getframesize
  40              	.L11:
  41              		.loc 1 313 0
  42 0022 48C3     		se_li %r3,12
  43              	.LVL1:
  44              	.L3:
  45              		.loc 1 329 0
  46 0024 0004     		se_blr
  47              	.LVL2:
  48              	.L5:
  49              		.loc 1 315 0
  50 0026 4903     		se_li %r3,16
  51              	.LVL3:
  52 0028 0004     		se_blr
  53              	.LVL4:
  54              	.L6:
  55              		.loc 1 317 0
  56 002a 4943     		se_li %r3,20
  57              	.LVL5:
GAS LISTING C:\Users\bayra\AppData\Local\Temp\cc4lF4Vd.s 			page 2


  58 002c 0004     		se_blr
  59              	.LVL6:
  60              	.L7:
  61              		.loc 1 319 0
  62 002e 4983     		se_li %r3,24
  63              	.LVL7:
  64 0030 0004     		se_blr
  65              	.LVL8:
  66              	.L8:
  67              		.loc 1 321 0
  68 0032 4A03     		se_li %r3,32
  69              	.LVL9:
  70 0034 0004     		se_blr
  71              	.LVL10:
  72              	.L9:
  73              		.loc 1 323 0
  74 0036 4B03     		se_li %r3,48
  75              	.LVL11:
  76 0038 0004     		se_blr
  77              	.LVL12:
  78              	.L10:
  79              		.loc 1 325 0
  80 003a 4C03     		se_li %r3,64
  81              	.LVL13:
  82 003c 0004     		se_blr
  83              		.cfi_endproc
  84              	.LFE5:
  85              		.size	can_lld_getframesize, .-can_lld_getframesize
  86              		.section	.text.can_lld_readBuffer,"axv",@progbits
  87              		.align 1
  88              		.p2align 4,,15
  89              		.globl can_lld_readBuffer
  90              		.type	can_lld_readBuffer, @function
  91              	can_lld_readBuffer:
  92              	.LFB3:
  93              		.loc 1 161 0
  94              		.cfi_startproc
  95              	.LVL14:
  96 0000 182106E8 		e_stwu %r1,-24(%r1)
  97              	.LCFI0:
  98              		.cfi_def_cfa_offset 24
  99 0004 0080     		se_mflr %r0
 100 0006 1B810908 		e_stmw %r28,8(%r1)
 101 000a D701     		se_stw %r0,28(%r1)
 102              		.cfi_offset 65, 4
 103              		.cfi_offset 28, -16
 104              		.cfi_offset 29, -12
 105              		.cfi_offset 30, -8
 106              		.cfi_offset 31, -4
 107              		.loc 1 161 0
 108 000c 013C     		se_mr %r28,%r3
 109 000e 016E     		se_mr %r30,%r6
 110              		.loc 1 169 0
 111 0010 7004A8FD 		e_cmpl16i %r4,253
 112 0014 7A12010A 		e_beq %cr0,.L15
 113 0018 7004A8FE 		e_cmpl16i %r4,254
 114 001c 7A1200F6 		e_beq %cr0,.L16
GAS LISTING C:\Users\bayra\AppData\Local\Temp\cc4lF4Vd.s 			page 3


 115 0020 7004A8FC 		e_cmpl16i %r4,252
 116 0024 7A12008E 		e_beq %cr0,.L30
 117 0028 4807     		se_li %r7,0
 118              	.LVL15:
 119 002a 488F     		se_li %r31,8
 120              		.loc 1 188 0
 121 002c C067     		se_lwz %r6,0(%r7)
 122              	.LVL16:
 123              		.loc 1 169 0
 124 002e 4845     		se_li %r5,4
 125              	.LVL17:
 126              		.loc 1 188 0
 127 0030 69E6     		se_srwi %r6,30
 128 0032 2206     		se_cmpli %r6,1
 129 0034 7A1200A8 		e_beq %cr0,.L31
 130              	.LVL18:
 131              	.L18:
 132              		.loc 1 193 0
 133 0038 4806     		se_li %r6,0
 134 003a 946E     		se_stb %r6,4(%r30)
 135              		.loc 1 194 0
 136 003c C077     		se_lwz %r7,0(%r7)
 137 003e 6927     		se_srwi %r7,18
 138 0040 D27E     		se_stw %r7,8(%r30)
 139              		.loc 1 199 0
 140 0042 C0D5     		se_lwz %r29,0(%r5)
 141              	.LVL19:
 142              		.loc 1 200 0
 143 0044 77A3873F 		e_rlwinm %r3,%r29,16,28,31
 144              	.LVL20:
 145 0048 78000001 		e_bl can_lld_getframesize
 146              	.LVL21:
 147              		.loc 1 204 0
 148 004c 77A55FFF 		e_rlwinm %r5,%r29,11,31,31
 149              		.loc 1 211 0
 150 0050 1866C003 		e_andi %r6,%r3,3
 151              		.loc 1 207 0
 152 0054 00CD     		se_extzb %r29
 153              	.LVL22:
 154              		.loc 1 201 0
 155 0056 9C3E     		se_stb %r3,12(%r30)
 156              		.loc 1 204 0
 157 0058 925E     		se_stb %r5,2(%r30)
 158              		.loc 1 207 0
 159 005a B0DE     		se_sth %r29,0(%r30)
 160              	.LVL23:
 161              		.loc 1 211 0
 162 005c 2A06     		se_cmpi %r6,0
 163 005e 7A0200A8 		e_bne %cr0,.L20
 164              	.LVL24:
 165              	.L33:
 166              		.loc 1 217 0
 167 0062 7C661471 		e_srwi. %r6,%r3,2
 168 0066 7A120040 		e_beq %cr0,.L13
 169              	.LVL25:
 170              	.L21:
 171 006a 18E684FF 		e_addi %r7,%r6,-1
GAS LISTING C:\Users\bayra\AppData\Local\Temp\cc4lF4Vd.s 			page 4


 172 006e 189F8004 		e_addi %r4,%r31,4
 173 0072 74E715BB 		e_rlwinm %r7,%r7,2,22,29
 174 0076 18DE8010 		e_addi %r6,%r30,16
 175              	.LVL26:
 176              		.loc 1 220 0
 177 007a C03C     		se_lwz %r3,0(%r28)
 178 007c 0474     		se_add %r4,%r7
 179 007e 78000010 		e_b .L25
 180              	.LVL27:
 181              	.L32:
 182              		.loc 1 221 0
 183 0082 D056     		se_stw %r5,0(%r6)
 184              		.loc 1 225 0
 185 0084 203F     		se_addi %r31,4
 186              	.LVL28:
 187 0086 2036     		se_addi %r6,4
 188              		.loc 1 217 0
 189 0088 0D4F     		se_cmpl %r31,%r4
 190 008a 7A12001C 		e_beq %cr0,.L13
 191              	.LVL29:
 192              	.L25:
 193              		.loc 1 220 0
 194 008e 8173     		se_lbz %r7,1(%r3)
 195              		.loc 1 218 0
 196 0090 C05F     		se_lwz %r5,0(%r31)
 197              	.LVL30:
 198              		.loc 1 220 0
 199 0092 2A07     		se_cmpi %r7,0
 200 0094 7A12FFEE 		e_beq %cr0,.L32
 201              		.loc 1 223 0
 202 0098 7CA0352C 		stwbrx %r5,0,%r6
 203              		.loc 1 225 0
 204 009c 203F     		se_addi %r31,4
 205              	.LVL31:
 206 009e 2036     		se_addi %r6,4
 207              		.loc 1 217 0
 208 00a0 0D4F     		se_cmpl %r31,%r4
 209 00a2 7A02FFEC 		e_bne %cr0,.L25
 210              	.LVL32:
 211              	.L13:
 212              		.loc 1 231 0
 213 00a6 C701     		se_lwz %r0,28(%r1)
 214 00a8 0090     		se_mtlr %r0
 215              		.cfi_remember_state
 216              		.cfi_restore 65
 217 00aa 1B810808 		e_lmw %r28,8(%r1)
 218              	.LVL33:
 219 00ae 2171     		se_addi %r1,24
 220              	.LCFI1:
 221              		.cfi_restore 31
 222              		.cfi_restore 30
 223              		.cfi_restore 29
 224              		.cfi_restore 28
 225              		.cfi_def_cfa_offset 0
 226 00b0 0004     		se_blr
 227              	.LVL34:
 228              	.L30:
GAS LISTING C:\Users\bayra\AppData\Local\Temp\cc4lF4Vd.s 			page 5


 229              	.LCFI2:
 230              		.cfi_restore_state
 231              		.loc 1 171 0
 232 00b2 C173     		se_lwz %r7,4(%r3)
 233 00b4 C243     		se_lwz %r4,8(%r3)
 234              	.LVL35:
 235 00b6 50C700AC 		e_lwz %r6,172(%r7)
 236              	.LVL36:
 237              	.L29:
 238              		.loc 1 180 0
 239 00ba 8C7C     		se_lbz %r7,12(%r28)
 240              		.loc 1 179 0
 241 00bc 74C6043B 		e_rlwinm %r6,%r6,0,16,29
 242              		.loc 1 180 0
 243 00c0 2077     		se_addi %r7,8
 244              		.loc 1 179 0
 245 00c2 0446     		se_add %r6,%r4
 246              		.loc 1 180 0
 247 00c4 0557     		se_mullw %r7,%r5
 248              		.loc 1 179 0
 249 00c6 7CE63A14 		add %r7,%r6,%r7
 250              	.LVL37:
 251              		.loc 1 188 0
 252 00ca C067     		se_lwz %r6,0(%r7)
 253 00cc 18A78004 		e_addi %r5,%r7,4
 254              	.LVL38:
 255 00d0 69E6     		se_srwi %r6,30
 256 00d2 1BE78008 		e_addi %r31,%r7,8
 257 00d6 2206     		se_cmpli %r6,1
 258 00d8 7A02FF60 		e_bne %cr0,.L18
 259              	.L31:
 260              		.loc 1 189 0
 261 00dc 946E     		se_stb %r6,4(%r30)
 262              		.loc 1 190 0
 263 00de C077     		se_lwz %r7,0(%r7)
 264 00e0 18E7C71F 		e_andi %r7,%r7,536870911
 265 00e4 D27E     		se_stw %r7,8(%r30)
 266              		.loc 1 199 0
 267 00e6 C0D5     		se_lwz %r29,0(%r5)
 268              	.LVL39:
 269              		.loc 1 200 0
 270 00e8 77A3873F 		e_rlwinm %r3,%r29,16,28,31
 271              	.LVL40:
 272 00ec 78000001 		e_bl can_lld_getframesize
 273              	.LVL41:
 274              		.loc 1 204 0
 275 00f0 77A55FFF 		e_rlwinm %r5,%r29,11,31,31
 276              		.loc 1 211 0
 277 00f4 1866C003 		e_andi %r6,%r3,3
 278              		.loc 1 207 0
 279 00f8 00CD     		se_extzb %r29
 280              	.LVL42:
 281              		.loc 1 201 0
 282 00fa 9C3E     		se_stb %r3,12(%r30)
 283              		.loc 1 204 0
 284 00fc 925E     		se_stb %r5,2(%r30)
 285              		.loc 1 207 0
GAS LISTING C:\Users\bayra\AppData\Local\Temp\cc4lF4Vd.s 			page 6


 286 00fe B0DE     		se_sth %r29,0(%r30)
 287              	.LVL43:
 288              		.loc 1 211 0
 289 0100 2A06     		se_cmpi %r6,0
 290 0102 7A12FF60 		e_beq %cr0,.L33
 291              	.LVL44:
 292              	.L20:
 293              		.loc 1 215 0
 294 0106 7C671470 		e_srwi %r7,%r3,2
 295 010a 18C78001 		e_addi %r6,%r7,1
 296              	.LVL45:
 297 010e 79FFFF5C 		e_b .L21
 298              	.LVL46:
 299              	.L16:
 300              		.loc 1 179 0
 301 0112 C173     		se_lwz %r7,4(%r3)
 302 0114 C243     		se_lwz %r4,8(%r3)
 303              	.LVL47:
 304 0116 50C700B0 		e_lwz %r6,176(%r7)
 305              	.LVL48:
 306 011a 79FFFFA0 		e_b .L29
 307              	.LVL49:
 308              	.L15:
 309              		.loc 1 175 0
 310 011e C173     		se_lwz %r7,4(%r3)
 311 0120 C243     		se_lwz %r4,8(%r3)
 312              	.LVL50:
 313 0122 50C700A0 		e_lwz %r6,160(%r7)
 314              	.LVL51:
 315 0126 79FFFF94 		e_b .L29
 316              		.cfi_endproc
 317              	.LFE3:
 318              		.size	can_lld_readBuffer, .-can_lld_readBuffer
 319              		.section	.text.can_lld_l1_handler,"axv",@progbits
 320              		.align 1
 321              		.p2align 4,,15
 322              		.type	can_lld_l1_handler, @function
 323              	can_lld_l1_handler:
 324              	.LFB8:
 325              		.loc 1 560 0
 326              		.cfi_startproc
 327              	.LVL52:
 328 0000 701F7F40 		e_li %r0,-192
 329              		.loc 1 566 0
 330 0004 62C5     		se_bgeni %r5,12
 331              		.loc 1 560 0
 332 0006 7C21016E 		stwux %r1,%r1,%r0
 333              	.LCFI3:
 334              		.cfi_def_cfa_offset 192
 335 000a 0080     		se_mflr %r0
 336 000c 57C100B8 		e_stw %r30,184(%r1)
 337 0010 540100C4 		e_stw %r0,196(%r1)
 338 0014 578100B0 		e_stw %r28,176(%r1)
 339 0018 57A100B4 		e_stw %r29,180(%r1)
 340 001c 57E100BC 		e_stw %r31,188(%r1)
 341              		.cfi_offset 65, 4
 342              		.cfi_offset 30, -8
GAS LISTING C:\Users\bayra\AppData\Local\Temp\cc4lF4Vd.s 			page 7


 343              		.cfi_offset 28, -16
 344              		.cfi_offset 29, -12
 345              		.cfi_offset 31, -4
 346              		.loc 1 566 0
 347 0020 C173     		se_lwz %r7,4(%r3)
 348              		.loc 1 560 0
 349 0022 013E     		se_mr %r30,%r3
 350              		.loc 1 566 0
 351 0024 50C70050 		e_lwz %r6,80(%r7)
 352 0028 7CC42839 		and. %r4,%r6,%r5
 353 002c 7A120094 		e_beq %cr0,.L35
 354              		.loc 1 567 0
 355 0030 50C70058 		e_lwz %r6,88(%r7)
 356 0034 7CC42839 		and. %r4,%r6,%r5
 357 0038 7A120088 		e_beq %cr0,.L35
 358              		.loc 1 569 0
 359 003c C053     		se_lwz %r5,0(%r3)
 360 003e C565     		se_lwz %r6,20(%r5)
 361 0040 2A06     		se_cmpi %r6,0
 362 0042 7A120076 		e_beq %cr0,.L36
 363              		.loc 1 570 0 discriminator 1
 364 0046 338500A2 		e_lbz %r28,162(%r5)
 365 004a 2A0C     		se_cmpi %r28,0
 366 004c 7A120394 		e_beq %cr0,.L37
 367              		.loc 1 570 0 is_stmt 0
 368 0050 480F     		se_li %r31,0
 369 0052 00BC     		se_mtctr %r28
 370 0054 78000016 		e_b .L42
 371              	.LVL53:
 372              	.L66:
 373              		.loc 1 572 0 is_stmt 1
 374 0058 50C70098 		e_lwz %r6,152(%r7)
 375 005c 40F6     		se_srw %r6,%r31
 376 005e 67F6     		se_btsti %r6,31
 377 0060 7A02033C 		e_bne %cr0,.L64
 378              	.L40:
 379              		.loc 1 570 0 discriminator 2
 380 0064 200F     		se_addi %r31,1
 381              	.LVL54:
 382 0066 7A3002F8 		e_bdz .L65
 383              	.LVL55:
 384              	.L42:
 385              		.loc 1 571 0
 386 006a 23EF     		se_cmpli %r31,31
 387 006c 7A01FFEC 		e_ble %cr0,.L66
 388              		.loc 1 576 0
 389 0070 50C7009C 		e_lwz %r6,156(%r7)
 390 0074 1BBF84E0 		e_addi %r29,%r31,-32
 391 0078 40D6     		se_srw %r6,%r29
 392 007a 67F6     		se_btsti %r6,31
 393 007c 7A12FFE8 		e_beq %cr0,.L40
 394              		.loc 1 582 0
 395 0080 18C18008 		e_addi %r6,%r1,8
 396 0084 01E3     		se_mr %r3,%r30
 397              	.LVL56:
 398              		.loc 1 584 0
 399 0086 1B868058 		e_addi %r28,%r6,88
GAS LISTING C:\Users\bayra\AppData\Local\Temp\cc4lF4Vd.s 			page 8


 400              		.loc 1 582 0
 401 008a 01F5     		se_mr %r5,%r31
 402 008c 708000FC 		e_li %r4,252
 403 0090 78000001 		e_bl can_lld_readBuffer
 404              	.LVL57:
 405              		.loc 1 584 0
 406 0094 18818008 		e_addi %r4,%r1,8
 407 0098 01C3     		se_mr %r3,%r28
 408 009a 4D05     		se_li %r5,80
 409 009c 78000001 		e_bl memcpy
 410              	.LVL58:
 411 00a0 C07E     		se_lwz %r7,0(%r30)
 412 00a2 01F3     		se_mr %r3,%r31
 413 00a4 C577     		se_lwz %r7,20(%r7)
 414 00a6 01C4     		se_mr %r4,%r28
 415 00a8 00B7     		se_mtctr %r7
 416 00aa 0007     		se_bctrl
 417              	.LVL59:
 418              	.L61:
 419              		.loc 1 589 0
 420 00ac C16E     		se_lwz %r6,4(%r30)
 421 00ae 4817     		se_li %r7,1
 422 00b0 42D7     		se_slw %r7, %r29
 423 00b2 54E6009C 		e_stw %r7,156(%r6)
 424 00b6 C17E     		se_lwz %r7,4(%r30)
 425              	.LVL60:
 426              	.L36:
 427              		.loc 1 593 0
 428 00b8 62C6     		se_bgeni %r6,12
 429 00ba 54C70050 		e_stw %r6,80(%r7)
 430 00be C17E     		se_lwz %r7,4(%r30)
 431              	.L35:
 432              		.loc 1 598 0
 433 00c0 50C70050 		e_lwz %r6,80(%r7)
 434 00c4 67C6     		se_btsti %r6,28
 435 00c6 7A120010 		e_beq %cr0,.L44
 436              		.loc 1 599 0 discriminator 1
 437 00ca C05E     		se_lwz %r5,0(%r30)
 438              		.loc 1 598 0 discriminator 1
 439 00cc 30C50030 		e_lbz %r6,48(%r5)
 440 00d0 2A16     		se_cmpi %r6,1
 441 00d2 7A12018E 		e_beq %cr0,.L67
 442              	.L44:
 443              		.loc 1 612 0
 444 00d6 50C70050 		e_lwz %r6,80(%r7)
 445 00da 67D6     		se_btsti %r6,29
 446 00dc 7A120010 		e_beq %cr0,.L46
 447              		.loc 1 613 0 discriminator 1
 448 00e0 C05E     		se_lwz %r5,0(%r30)
 449              		.loc 1 612 0 discriminator 1
 450 00e2 30C50028 		e_lbz %r6,40(%r5)
 451 00e6 2A16     		se_cmpi %r6,1
 452 00e8 7A12019C 		e_beq %cr0,.L68
 453              	.L46:
 454              		.loc 1 626 0
 455 00ec 50C70050 		e_lwz %r6,80(%r7)
 456 00f0 67E6     		se_btsti %r6,30
GAS LISTING C:\Users\bayra\AppData\Local\Temp\cc4lF4Vd.s 			page 9


 457 00f2 7A120010 		e_beq %cr0,.L48
 458              		.loc 1 627 0 discriminator 1
 459 00f6 C05E     		se_lwz %r5,0(%r30)
 460              		.loc 1 626 0 discriminator 1
 461 00f8 30C50020 		e_lbz %r6,32(%r5)
 462 00fc 2A06     		se_cmpi %r6,0
 463 00fe 7A0200C2 		e_bne %cr0,.L69
 464              	.L48:
 465              		.loc 1 640 0
 466 0102 50C70050 		e_lwz %r6,80(%r7)
 467 0106 67F6     		se_btsti %r6,31
 468 0108 7A120010 		e_beq %cr0,.L50
 469              		.loc 1 641 0 discriminator 1
 470 010c C05E     		se_lwz %r5,0(%r30)
 471              		.loc 1 640 0 discriminator 1
 472 010e 30C50019 		e_lbz %r6,25(%r5)
 473 0112 2A16     		se_cmpi %r6,1
 474 0114 7A1201BC 		e_beq %cr0,.L70
 475              	.L50:
 476              		.loc 1 659 0
 477 0118 50C70050 		e_lwz %r6,80(%r7)
 478 011c 6385     		se_bgeni %r5,24
 479 011e 7CC32839 		and. %r3,%r6,%r5
 480 0122 7A120010 		e_beq %cr0,.L52
 481              		.loc 1 660 0 discriminator 1
 482 0126 C04E     		se_lwz %r4,0(%r30)
 483              		.loc 1 659 0 discriminator 1
 484 0128 30C40050 		e_lbz %r6,80(%r4)
 485 012c 2A16     		se_cmpi %r6,1
 486 012e 7A12017A 		e_beq %cr0,.L71
 487              	.L52:
 488              		.loc 1 673 0
 489 0132 50C70050 		e_lwz %r6,80(%r7)
 490 0136 4C05     		se_li %r5,64
 491 0138 7CC32839 		and. %r3,%r6,%r5
 492 013c 7A120010 		e_beq %cr0,.L54
 493              		.loc 1 674 0 discriminator 1
 494 0140 C04E     		se_lwz %r4,0(%r30)
 495              		.loc 1 673 0 discriminator 1
 496 0142 30C40048 		e_lbz %r6,72(%r4)
 497 0146 2A16     		se_cmpi %r6,1
 498 0148 7A1201EE 		e_beq %cr0,.L72
 499              	.L54:
 500              		.loc 1 687 0
 501 014c 50C70050 		e_lwz %r6,80(%r7)
 502 0150 4A05     		se_li %r5,32
 503 0152 7CC32839 		and. %r3,%r6,%r5
 504 0156 7A120010 		e_beq %cr0,.L56
 505              		.loc 1 688 0 discriminator 1
 506 015a C04E     		se_lwz %r4,0(%r30)
 507              		.loc 1 687 0 discriminator 1
 508 015c 30C40040 		e_lbz %r6,64(%r4)
 509 0160 2A06     		se_cmpi %r6,0
 510 0162 7A020036 		e_bne %cr0,.L73
 511              	.L56:
 512              		.loc 1 701 0
 513 0166 50C70050 		e_lwz %r6,80(%r7)
GAS LISTING C:\Users\bayra\AppData\Local\Temp\cc4lF4Vd.s 			page 10


 514 016a 67B6     		se_btsti %r6,27
 515 016c 7A120010 		e_beq %cr0,.L34
 516              		.loc 1 702 0 discriminator 1
 517 0170 C05E     		se_lwz %r5,0(%r30)
 518              		.loc 1 701 0 discriminator 1
 519 0172 30C50039 		e_lbz %r6,57(%r5)
 520 0176 2A16     		se_cmpi %r6,1
 521 0178 7A12006C 		e_beq %cr0,.L74
 522              	.L34:
 523              		.loc 1 718 0
 524 017c 500100C4 		e_lwz %r0,196(%r1)
 525 0180 0090     		se_mtlr %r0
 526              		.cfi_remember_state
 527              		.cfi_restore 65
 528 0182 538100B0 		e_lwz %r28,176(%r1)
 529 0186 53A100B4 		e_lwz %r29,180(%r1)
 530 018a 53C100B8 		e_lwz %r30,184(%r1)
 531              	.LVL61:
 532 018e 53E100BC 		e_lwz %r31,188(%r1)
 533 0192 182180C0 		e_addi %r1,%r1,192
 534              	.LCFI4:
 535              		.cfi_restore 31
 536              		.cfi_restore 30
 537              		.cfi_restore 29
 538              		.cfi_restore 28
 539              		.cfi_def_cfa_offset 0
 540 0196 0004     		se_blr
 541              	.LVL62:
 542              	.L73:
 543              	.LCFI5:
 544              		.cfi_restore_state
 545              		.loc 1 689 0
 546 0198 50C70058 		e_lwz %r6,88(%r7)
 547 019c 7CC32839 		and. %r3,%r6,%r5
 548 01a0 7A12FFC6 		e_beq %cr0,.L56
 549              		.loc 1 691 0
 550 01a4 50C40044 		e_lwz %r6,68(%r4)
 551 01a8 2A06     		se_cmpi %r6,0
 552 01aa 7A12000A 		e_beq %cr0,.L57
 553              		.loc 1 693 0
 554 01ae 00B6     		se_mtctr %r6
 555 01b0 0007     		se_bctrl
 556              	.LVL63:
 557 01b2 C17E     		se_lwz %r7,4(%r30)
 558              	.L57:
 559              		.loc 1 696 0
 560 01b4 4A06     		se_li %r6,32
 561 01b6 54C70050 		e_stw %r6,80(%r7)
 562 01ba C17E     		se_lwz %r7,4(%r30)
 563 01bc 79FFFFAA 		e_b .L56
 564              	.L69:
 565              		.loc 1 628 0
 566 01c0 50C70058 		e_lwz %r6,88(%r7)
 567 01c4 67E6     		se_btsti %r6,30
 568 01c6 7A12FF3C 		e_beq %cr0,.L48
 569              		.loc 1 630 0
 570 01ca C965     		se_lwz %r6,36(%r5)
GAS LISTING C:\Users\bayra\AppData\Local\Temp\cc4lF4Vd.s 			page 11


 571 01cc 2A06     		se_cmpi %r6,0
 572 01ce 7A12000A 		e_beq %cr0,.L49
 573              		.loc 1 632 0
 574 01d2 00B6     		se_mtctr %r6
 575 01d4 0007     		se_bctrl
 576              	.LVL64:
 577 01d6 C17E     		se_lwz %r7,4(%r30)
 578              	.L49:
 579              		.loc 1 635 0
 580 01d8 4826     		se_li %r6,2
 581 01da 54C70050 		e_stw %r6,80(%r7)
 582 01de C17E     		se_lwz %r7,4(%r30)
 583 01e0 79FFFF22 		e_b .L48
 584              	.L74:
 585              		.loc 1 703 0
 586 01e4 50C70058 		e_lwz %r6,88(%r7)
 587 01e8 67B6     		se_btsti %r6,27
 588 01ea 7A02FF92 		e_bne %cr0,.L34
 589              		.loc 1 705 0
 590 01ee CF65     		se_lwz %r6,60(%r5)
 591 01f0 2A06     		se_cmpi %r6,0
 592 01f2 7A12004C 		e_beq %cr0,.L59
 593              		.loc 1 708 0
 594 01f6 18C18008 		e_addi %r6,%r1,8
 595              		.loc 1 706 0
 596 01fa 53E700B4 		e_lwz %r31,180(%r7)
 597              		.loc 1 710 0
 598 01fe 1BA68058 		e_addi %r29,%r6,88
 599              		.loc 1 708 0
 600 0202 01E3     		se_mr %r3,%r30
 601              		.loc 1 706 0
 602 0204 77FFC6BF 		e_rlwinm %r31,%r31,24,26,31
 603              	.LVL65:
 604              		.loc 1 708 0
 605 0208 708000FE 		e_li %r4,254
 606 020c 01F5     		se_mr %r5,%r31
 607 020e 78000001 		e_bl can_lld_readBuffer
 608              	.LVL66:
 609              		.loc 1 710 0
 610 0212 4D05     		se_li %r5,80
 611 0214 18818008 		e_addi %r4,%r1,8
 612 0218 01D3     		se_mr %r3,%r29
 613 021a 78000001 		e_bl memcpy
 614              	.LVL67:
 615 021e C07E     		se_lwz %r7,0(%r30)
 616 0220 01F3     		se_mr %r3,%r31
 617 0222 CF77     		se_lwz %r7,60(%r7)
 618 0224 01D4     		se_mr %r4,%r29
 619 0226 00B7     		se_mtctr %r7
 620 0228 0007     		se_bctrl
 621              	.LVL68:
 622              		.loc 1 712 0
 623 022a C17E     		se_lwz %r7,4(%r30)
 624 022c 50A700B4 		e_lwz %r5,180(%r7)
 625 0230 50C700B8 		e_lwz %r6,184(%r7)
 626 0234 74A6C6BE 		e_rlwimi %r6,%r5,24,26,31
 627 0238 54C700B8 		e_stw %r6,184(%r7)
GAS LISTING C:\Users\bayra\AppData\Local\Temp\cc4lF4Vd.s 			page 12


 628 023c C17E     		se_lwz %r7,4(%r30)
 629              	.LVL69:
 630              	.L59:
 631              		.loc 1 715 0
 632 023e 4906     		se_li %r6,16
 633 0240 54C70050 		e_stw %r6,80(%r7)
 634              		.loc 1 718 0
 635 0244 500100C4 		e_lwz %r0,196(%r1)
 636 0248 0090     		se_mtlr %r0
 637              		.cfi_remember_state
 638              		.cfi_restore 65
 639 024a 538100B0 		e_lwz %r28,176(%r1)
 640 024e 53A100B4 		e_lwz %r29,180(%r1)
 641 0252 53C100B8 		e_lwz %r30,184(%r1)
 642              	.LVL70:
 643 0256 53E100BC 		e_lwz %r31,188(%r1)
 644 025a 182180C0 		e_addi %r1,%r1,192
 645              	.LCFI6:
 646              		.cfi_restore 28
 647              		.cfi_restore 29
 648              		.cfi_restore 30
 649              		.cfi_restore 31
 650              		.cfi_def_cfa_offset 0
 651 025e 0004     		se_blr
 652              	.LVL71:
 653              	.L67:
 654              	.LCFI7:
 655              		.cfi_restore_state
 656              		.loc 1 600 0
 657 0260 50C70058 		e_lwz %r6,88(%r7)
 658 0264 67C6     		se_btsti %r6,28
 659 0266 7A12FE70 		e_beq %cr0,.L44
 660              		.loc 1 602 0
 661 026a CD65     		se_lwz %r6,52(%r5)
 662 026c 2A06     		se_cmpi %r6,0
 663 026e 7A12000A 		e_beq %cr0,.L45
 664              		.loc 1 604 0
 665 0272 00B6     		se_mtctr %r6
 666 0274 0007     		se_bctrl
 667              	.LVL72:
 668 0276 C17E     		se_lwz %r7,4(%r30)
 669              	.L45:
 670              		.loc 1 607 0
 671 0278 4886     		se_li %r6,8
 672 027a 54C70050 		e_stw %r6,80(%r7)
 673 027e C17E     		se_lwz %r7,4(%r30)
 674 0280 79FFFE56 		e_b .L44
 675              	.L68:
 676              		.loc 1 614 0
 677 0284 50C70058 		e_lwz %r6,88(%r7)
 678 0288 67D6     		se_btsti %r6,29
 679 028a 7A12FE62 		e_beq %cr0,.L46
 680              		.loc 1 616 0
 681 028e CB65     		se_lwz %r6,44(%r5)
 682 0290 2A06     		se_cmpi %r6,0
 683 0292 7A12000A 		e_beq %cr0,.L47
 684              		.loc 1 618 0
GAS LISTING C:\Users\bayra\AppData\Local\Temp\cc4lF4Vd.s 			page 13


 685 0296 00B6     		se_mtctr %r6
 686 0298 0007     		se_bctrl
 687              	.LVL73:
 688 029a C17E     		se_lwz %r7,4(%r30)
 689              	.L47:
 690              		.loc 1 621 0
 691 029c 4846     		se_li %r6,4
 692 029e 54C70050 		e_stw %r6,80(%r7)
 693 02a2 C17E     		se_lwz %r7,4(%r30)
 694 02a4 79FFFE48 		e_b .L46
 695              	.L71:
 696              		.loc 1 661 0
 697 02a8 50C70058 		e_lwz %r6,88(%r7)
 698 02ac 7CC32839 		and. %r3,%r6,%r5
 699 02b0 7A12FE82 		e_beq %cr0,.L52
 700              		.loc 1 663 0
 701 02b4 50C40054 		e_lwz %r6,84(%r4)
 702 02b8 2A06     		se_cmpi %r6,0
 703 02ba 7A12000A 		e_beq %cr0,.L53
 704              		.loc 1 665 0
 705 02be 00B6     		se_mtctr %r6
 706 02c0 0007     		se_bctrl
 707              	.LVL74:
 708 02c2 C17E     		se_lwz %r7,4(%r30)
 709              	.L53:
 710              		.loc 1 668 0
 711 02c4 6386     		se_bgeni %r6,24
 712 02c6 54C70050 		e_stw %r6,80(%r7)
 713 02ca C17E     		se_lwz %r7,4(%r30)
 714 02cc 79FFFE66 		e_b .L52
 715              	.L70:
 716              		.loc 1 642 0
 717 02d0 50C70058 		e_lwz %r6,88(%r7)
 718 02d4 67F6     		se_btsti %r6,31
 719 02d6 7A12FE42 		e_beq %cr0,.L50
 720              		.loc 1 644 0
 721 02da C765     		se_lwz %r6,28(%r5)
 722 02dc 2A06     		se_cmpi %r6,0
 723 02de 7A12004C 		e_beq %cr0,.L51
 724              		.loc 1 647 0
 725 02e2 18C18008 		e_addi %r6,%r1,8
 726              		.loc 1 645 0
 727 02e6 53E700A4 		e_lwz %r31,164(%r7)
 728              		.loc 1 649 0
 729 02ea 1BA68058 		e_addi %r29,%r6,88
 730              		.loc 1 647 0
 731 02ee 01E3     		se_mr %r3,%r30
 732              		.loc 1 645 0
 733 02f0 77FFC6BF 		e_rlwinm %r31,%r31,24,26,31
 734              	.LVL75:
 735              		.loc 1 647 0
 736 02f4 708000FD 		e_li %r4,253
 737 02f8 01F5     		se_mr %r5,%r31
 738 02fa 78000001 		e_bl can_lld_readBuffer
 739              	.LVL76:
 740              		.loc 1 649 0
 741 02fe 4D05     		se_li %r5,80
GAS LISTING C:\Users\bayra\AppData\Local\Temp\cc4lF4Vd.s 			page 14


 742 0300 18818008 		e_addi %r4,%r1,8
 743 0304 01D3     		se_mr %r3,%r29
 744 0306 78000001 		e_bl memcpy
 745              	.LVL77:
 746 030a C07E     		se_lwz %r7,0(%r30)
 747 030c 01F3     		se_mr %r3,%r31
 748 030e C777     		se_lwz %r7,28(%r7)
 749 0310 01D4     		se_mr %r4,%r29
 750 0312 00B7     		se_mtctr %r7
 751 0314 0007     		se_bctrl
 752              	.LVL78:
 753              		.loc 1 651 0
 754 0316 C17E     		se_lwz %r7,4(%r30)
 755 0318 50A700A4 		e_lwz %r5,164(%r7)
 756 031c 50C700A8 		e_lwz %r6,168(%r7)
 757 0320 74A6C6BE 		e_rlwimi %r6,%r5,24,26,31
 758 0324 54C700A8 		e_stw %r6,168(%r7)
 759 0328 C17E     		se_lwz %r7,4(%r30)
 760              	.LVL79:
 761              	.L51:
 762              		.loc 1 654 0
 763 032a 4816     		se_li %r6,1
 764 032c 54C70050 		e_stw %r6,80(%r7)
 765 0330 C17E     		se_lwz %r7,4(%r30)
 766 0332 79FFFDE6 		e_b .L50
 767              	.L72:
 768              		.loc 1 675 0
 769 0336 50C70058 		e_lwz %r6,88(%r7)
 770 033a 7CC32839 		and. %r3,%r6,%r5
 771 033e 7A12FE0E 		e_beq %cr0,.L54
 772              		.loc 1 677 0
 773 0342 50C4004C 		e_lwz %r6,76(%r4)
 774 0346 2A06     		se_cmpi %r6,0
 775 0348 7A12000A 		e_beq %cr0,.L55
 776              		.loc 1 679 0
 777 034c 00B6     		se_mtctr %r6
 778 034e 0007     		se_bctrl
 779              	.LVL80:
 780 0350 C17E     		se_lwz %r7,4(%r30)
 781              	.L55:
 782              		.loc 1 682 0
 783 0352 4C06     		se_li %r6,64
 784 0354 54C70050 		e_stw %r6,80(%r7)
 785 0358 C17E     		se_lwz %r7,4(%r30)
 786 035a 79FFFDF2 		e_b .L54
 787              	.LVL81:
 788              	.L65:
 789              		.loc 1 582 0
 790 035e 18C18008 		e_addi %r6,%r1,8
 791 0362 01E3     		se_mr %r3,%r30
 792              	.LVL82:
 793              		.loc 1 584 0
 794 0364 1BA68058 		e_addi %r29,%r6,88
 795              		.loc 1 582 0
 796 0368 01F5     		se_mr %r5,%r31
 797 036a 708000FC 		e_li %r4,252
 798 036e 78000001 		e_bl can_lld_readBuffer
GAS LISTING C:\Users\bayra\AppData\Local\Temp\cc4lF4Vd.s 			page 15


 799              	.LVL83:
 800              		.loc 1 584 0
 801 0372 18818008 		e_addi %r4,%r1,8
 802 0376 01D3     		se_mr %r3,%r29
 803 0378 4D05     		se_li %r5,80
 804 037a 78000001 		e_bl memcpy
 805              	.LVL84:
 806 037e C07E     		se_lwz %r7,0(%r30)
 807 0380 01D4     		se_mr %r4,%r29
 808 0382 C577     		se_lwz %r7,20(%r7)
 809 0384 01F3     		se_mr %r3,%r31
 810 0386 00B7     		se_mtctr %r7
 811 0388 1BBF84E0 		e_addi %r29,%r31,-32
 812 038c 0007     		se_bctrl
 813              	.LVL85:
 814              		.loc 1 586 0
 815 038e 23EF     		se_cmpli %r31,31
 816 0390 7A11FD1C 		e_bgt %cr0,.L61
 817 0394 4817     		se_li %r7,1
 818 0396 42C7     		se_slw %r7, %r28
 819 0398 78000034 		e_b .L60
 820              	.LVL86:
 821              	.L64:
 822              		.loc 1 582 0
 823 039c 18C18008 		e_addi %r6,%r1,8
 824 03a0 01E3     		se_mr %r3,%r30
 825              	.LVL87:
 826              		.loc 1 584 0
 827 03a2 1BA68058 		e_addi %r29,%r6,88
 828              		.loc 1 582 0
 829 03a6 01F5     		se_mr %r5,%r31
 830 03a8 708000FC 		e_li %r4,252
 831 03ac 78000001 		e_bl can_lld_readBuffer
 832              	.LVL88:
 833              		.loc 1 584 0
 834 03b0 18818008 		e_addi %r4,%r1,8
 835 03b4 4D05     		se_li %r5,80
 836 03b6 01D3     		se_mr %r3,%r29
 837 03b8 78000001 		e_bl memcpy
 838              	.LVL89:
 839 03bc C07E     		se_lwz %r7,0(%r30)
 840 03be 01F3     		se_mr %r3,%r31
 841 03c0 C577     		se_lwz %r7,20(%r7)
 842 03c2 01D4     		se_mr %r4,%r29
 843 03c4 00B7     		se_mtctr %r7
 844 03c6 0007     		se_bctrl
 845              	.LVL90:
 846 03c8 4817     		se_li %r7,1
 847 03ca 42F7     		se_slw %r7, %r31
 848              	.LVL91:
 849              	.L60:
 850              		.loc 1 587 0
 851 03cc C16E     		se_lwz %r6,4(%r30)
 852 03ce 54E60098 		e_stw %r7,152(%r6)
 853              		.loc 1 593 0
 854 03d2 62C6     		se_bgeni %r6,12
 855 03d4 C17E     		se_lwz %r7,4(%r30)
GAS LISTING C:\Users\bayra\AppData\Local\Temp\cc4lF4Vd.s 			page 16


 856 03d6 54C70050 		e_stw %r6,80(%r7)
 857 03da C17E     		se_lwz %r7,4(%r30)
 858 03dc 79FFFCE4 		e_b .L35
 859              	.LVL92:
 860              	.L37:
 861              		.loc 1 582 0
 862 03e0 18C18008 		e_addi %r6,%r1,8
 863 03e4 708000FC 		e_li %r4,252
 864              		.loc 1 584 0
 865 03e8 1BE68058 		e_addi %r31,%r6,88
 866              		.loc 1 582 0
 867 03ec 4805     		se_li %r5,0
 868 03ee 78000001 		e_bl can_lld_readBuffer
 869              	.LVL93:
 870              		.loc 1 584 0
 871 03f2 18818008 		e_addi %r4,%r1,8
 872 03f6 4D05     		se_li %r5,80
 873 03f8 01F3     		se_mr %r3,%r31
 874 03fa 78000001 		e_bl memcpy
 875              	.LVL94:
 876 03fe C07E     		se_lwz %r7,0(%r30)
 877 0400 4803     		se_li %r3,0
 878 0402 C577     		se_lwz %r7,20(%r7)
 879 0404 01F4     		se_mr %r4,%r31
 880 0406 00B7     		se_mtctr %r7
 881 0408 0007     		se_bctrl
 882              	.LVL95:
 883 040a 4817     		se_li %r7,1
 884 040c 79FFFFC0 		e_b .L60
 885              		.cfi_endproc
 886              	.LFE8:
 887              		.size	can_lld_l1_handler, .-can_lld_l1_handler
 888              		.section	.text.can_lld_getDLC,"axv",@progbits
 889              		.align 1
 890              		.p2align 4,,15
 891              		.globl can_lld_getDLC
 892              		.type	can_lld_getDLC, @function
 893              	can_lld_getDLC:
 894              	.LFB6:
 895              		.loc 1 339 0
 896              		.cfi_startproc
 897              	.LVL96:
 898 0000 0137     		se_mr %r7,%r3
 899              		.loc 1 340 0
 900 0002 2273     		se_cmpli %r3,8
 901 0004 7A010042 		e_ble %cr0,.L76
 902              		.loc 1 344 0
 903 0008 4893     		se_li %r3,9
 904              	.LVL97:
 905              		.loc 1 343 0
 906 000a 22B7     		se_cmpli %r7,12
 907 000c 7A12003A 		e_beq %cr0,.L76
 908              		.loc 1 347 0
 909 0010 48A3     		se_li %r3,10
 910              		.loc 1 346 0
 911 0012 22F7     		se_cmpli %r7,16
 912 0014 7A120032 		e_beq %cr0,.L76
GAS LISTING C:\Users\bayra\AppData\Local\Temp\cc4lF4Vd.s 			page 17


 913              		.loc 1 350 0
 914 0018 48B3     		se_li %r3,11
 915              		.loc 1 349 0
 916 001a 2337     		se_cmpli %r7,20
 917 001c 7A12002A 		e_beq %cr0,.L76
 918              		.loc 1 353 0
 919 0020 48C3     		se_li %r3,12
 920              		.loc 1 352 0
 921 0022 2377     		se_cmpli %r7,24
 922 0024 7A120022 		e_beq %cr0,.L76
 923              		.loc 1 356 0
 924 0028 48D3     		se_li %r3,13
 925              		.loc 1 355 0
 926 002a 23F7     		se_cmpli %r7,32
 927 002c 7A12001A 		e_beq %cr0,.L76
 928              	.LVL98:
 929              	.LBB5:
 930              	.LBB6:
 931              		.loc 1 359 0
 932 0030 48E3     		se_li %r3,14
 933              		.loc 1 358 0
 934 0032 7007A830 		e_cmpl16i %r7,48
 935 0036 7A120010 		e_beq %cr0,.L76
 936              		.loc 1 361 0
 937 003a 7007A840 		e_cmpl16i %r7,64
 938              		.loc 1 365 0
 939 003e 48F6     		se_li %r6,15
 940 0040 4807     		se_li %r7,0
 941              	.LVL99:
 942 0042 7C66389E 		isel %r3,%r6,%r7,2
 943              	.L76:
 944              	.LBE6:
 945              	.LBE5:
 946              		.loc 1 367 0
 947 0046 0004     		se_blr
 948              		.cfi_endproc
 949              	.LFE6:
 950              		.size	can_lld_getDLC, .-can_lld_getDLC
 951              		.section	.text.can_lld_writeTxBuffer,"axv",@progbits
 952              		.align 1
 953              		.p2align 4,,15
 954              		.globl can_lld_writeTxBuffer
 955              		.type	can_lld_writeTxBuffer, @function
 956              	can_lld_writeTxBuffer:
 957              	.LFB4:
 958              		.loc 1 241 0
 959              		.cfi_startproc
 960              	.LVL100:
 961 0000 182106E8 		e_stwu %r1,-24(%r1)
 962              	.LCFI8:
 963              		.cfi_def_cfa_offset 24
 964 0004 0080     		se_mflr %r0
 965 0006 1BA1090C 		e_stmw %r29,12(%r1)
 966 000a D701     		se_stw %r0,28(%r1)
 967              		.cfi_offset 65, 4
 968              		.cfi_offset 29, -12
 969              		.cfi_offset 30, -8
GAS LISTING C:\Users\bayra\AppData\Local\Temp\cc4lF4Vd.s 			page 18


 970              		.cfi_offset 31, -4
 971              		.loc 1 241 0
 972 000c 015F     		se_mr %r31,%r5
 973              		.loc 1 250 0
 974 000e 8C73     		se_lbz %r7,12(%r3)
 975              		.loc 1 241 0
 976 0010 013D     		se_mr %r29,%r3
 977              		.loc 1 254 0
 978 0012 7C852070 		e_slwi %r5,%r4,4
 979              	.LVL101:
 980              		.loc 1 250 0
 981 0016 70079840 		e_cmp16i %r7,64
 982 001a 7A1200A4 		e_beq %cr0,.L100
 983              	.LVL102:
 984              		.loc 1 259 0
 985 001e 826F     		se_lbz %r6,2(%r31)
 986              		.loc 1 256 0
 987 0020 C17D     		se_lwz %r7,4(%r29)
 988 0022 C24D     		se_lwz %r4,8(%r29)
 989              	.LVL103:
 990 0024 50E700C0 		e_lwz %r7,192(%r7)
 991              		.loc 1 259 0
 992 0028 2A16     		se_cmpi %r6,1
 993              		.loc 1 256 0
 994 002a 74E7043B 		e_rlwinm %r7,%r7,0,16,29
 995              		.loc 1 260 0
 996 002e C16F     		se_lwz %r6,4(%r31)
 997              		.loc 1 256 0
 998 0030 0447     		se_add %r7,%r4
 999 0032 7FC72A14 		add %r30,%r7,%r5
 1000              	.LVL104:
 1001              		.loc 1 259 0
 1002 0036 7A1200B0 		e_beq %cr0,.L101
 1003              	.L88:
 1004              	.LVL105:
 1005              		.loc 1 263 0
 1006 003a 6D26     		se_slwi %r6, 18
 1007 003c 7CC7292E 		stwx %r6,%r7,%r5
 1008              		.loc 1 267 0
 1009 0040 883F     		se_lbz %r3,8(%r31)
 1010              	.LVL106:
 1011 0042 78000001 		e_bl can_lld_getDLC
 1012              	.LVL107:
 1013              		.loc 1 268 0
 1014 0046 6D03     		se_slwi %r3, 16
 1015              	.LVL108:
 1016              		.loc 1 269 0
 1017 0048 D13E     		se_stw %r3,4(%r30)
 1018              		.loc 1 272 0
 1019 004a 807F     		se_lbz %r7,0(%r31)
 1020 004c 2A17     		se_cmpi %r7,1
 1021 004e 7A1200B0 		e_beq %cr0,.L102
 1022              	.LVL109:
 1023              	.L91:
 1024              		.loc 1 281 0
 1025 0052 886F     		se_lbz %r6,8(%r31)
 1026              		.loc 1 280 0
GAS LISTING C:\Users\bayra\AppData\Local\Temp\cc4lF4Vd.s 			page 19


 1027 0054 18FE8008 		e_addi %r7,%r30,8
 1028              	.LVL110:
 1029              		.loc 1 281 0
 1030 0058 18C5C003 		e_andi %r5,%r6,3
 1031 005c 2A05     		se_cmpi %r5,0
 1032 005e 7A020056 		e_bne %cr0,.L93
 1033              	.LVL111:
 1034              		.loc 1 287 0
 1035 0062 7CC51471 		e_srwi. %r5,%r6,2
 1036 0066 7A120042 		e_beq %cr0,.L85
 1037              	.LVL112:
 1038              	.L94:
 1039 006a 18C584FF 		e_addi %r6,%r5,-1
 1040 006e 20BE     		se_addi %r30,12
 1041 0070 74C315BB 		e_rlwinm %r3,%r6,2,22,29
 1042              	.LVL113:
 1043 0074 517D0000 		e_lwz %r11,0(%r29)
 1044 0078 18BF8008 		e_addi %r5,%r31,8
 1045              	.LVL114:
 1046 007c 7C7E1A14 		add %r3,%r30,%r3
 1047 0080 7800000E 		e_b .L98
 1048              	.LVL115:
 1049              	.L103:
 1050              		.loc 1 291 0
 1051 0084 D047     		se_stw %r4,0(%r7)
 1052              		.loc 1 295 0
 1053 0086 2037     		se_addi %r7,4
 1054              	.LVL116:
 1055              		.loc 1 287 0
 1056 0088 0D37     		se_cmpl %r7,%r3
 1057 008a 7A12001E 		e_beq %cr0,.L85
 1058              	.LVL117:
 1059              	.L98:
 1060              		.loc 1 290 0
 1061 008e 30CB0001 		e_lbz %r6,1(%r11)
 1062              		.loc 1 288 0
 1063 0092 18850204 		e_lwzu %r4,4(%r5)
 1064              	.LVL118:
 1065              		.loc 1 290 0
 1066 0096 2A06     		se_cmpi %r6,0
 1067 0098 7A12FFEC 		e_beq %cr0,.L103
 1068              		.loc 1 293 0
 1069 009c 7C803D2C 		stwbrx %r4,0,%r7
 1070              		.loc 1 295 0
 1071 00a0 2037     		se_addi %r7,4
 1072              	.LVL119:
 1073              		.loc 1 287 0
 1074 00a2 0D37     		se_cmpl %r7,%r3
 1075 00a4 7A02FFEA 		e_bne %cr0,.L98
 1076              	.LVL120:
 1077              	.L85:
 1078              		.loc 1 300 0
 1079 00a8 C701     		se_lwz %r0,28(%r1)
 1080 00aa 0090     		se_mtlr %r0
 1081              		.cfi_remember_state
 1082              		.cfi_restore 65
 1083 00ac 1BA1080C 		e_lmw %r29,12(%r1)
GAS LISTING C:\Users\bayra\AppData\Local\Temp\cc4lF4Vd.s 			page 20


 1084              	.LVL121:
 1085 00b0 2171     		se_addi %r1,24
 1086              	.LCFI9:
 1087              		.cfi_restore 31
 1088              		.cfi_restore 30
 1089              		.cfi_restore 29
 1090              		.cfi_def_cfa_offset 0
 1091 00b2 0004     		se_blr
 1092              	.LVL122:
 1093              	.L93:
 1094              	.LCFI10:
 1095              		.cfi_restore_state
 1096              		.loc 1 285 0
 1097 00b4 6826     		se_srwi %r6,2
 1098 00b6 18A68001 		e_addi %r5,%r6,1
 1099              	.LVL123:
 1100 00ba 79FFFFB0 		e_b .L94
 1101              	.LVL124:
 1102              	.L100:
 1103              		.loc 1 251 0
 1104 00be 7C871870 		e_slwi %r7,%r4,3
 1105 00c2 7C853070 		e_slwi %r5,%r4,6
 1106              		.loc 1 259 0
 1107 00c6 826F     		se_lbz %r6,2(%r31)
 1108              		.loc 1 251 0
 1109 00c8 7CA72A14 		add %r5,%r7,%r5
 1110              	.LVL125:
 1111              		.loc 1 256 0
 1112 00cc C24D     		se_lwz %r4,8(%r29)
 1113              	.LVL126:
 1114 00ce C17D     		se_lwz %r7,4(%r29)
 1115              		.loc 1 259 0
 1116 00d0 2A16     		se_cmpi %r6,1
 1117              		.loc 1 256 0
 1118 00d2 50E700C0 		e_lwz %r7,192(%r7)
 1119              		.loc 1 260 0
 1120 00d6 C16F     		se_lwz %r6,4(%r31)
 1121              		.loc 1 256 0
 1122 00d8 74E7043B 		e_rlwinm %r7,%r7,0,16,29
 1123 00dc 0447     		se_add %r7,%r4
 1124 00de 7FC72A14 		add %r30,%r7,%r5
 1125              	.LVL127:
 1126              		.loc 1 259 0
 1127 00e2 7A02FF58 		e_bne %cr0,.L88
 1128              	.L101:
 1129              		.loc 1 260 0
 1130 00e6 6416     		se_bseti %r6,1
 1131 00e8 7CC7292E 		stwx %r6,%r7,%r5
 1132              	.LVL128:
 1133              		.loc 1 267 0
 1134 00ec 883F     		se_lbz %r3,8(%r31)
 1135              	.LVL129:
 1136 00ee 78000001 		e_bl can_lld_getDLC
 1137              	.LVL130:
 1138              		.loc 1 268 0
 1139 00f2 6D03     		se_slwi %r3, 16
 1140              	.LVL131:
GAS LISTING C:\Users\bayra\AppData\Local\Temp\cc4lF4Vd.s 			page 21


 1141              		.loc 1 269 0
 1142 00f4 D13E     		se_stw %r3,4(%r30)
 1143              		.loc 1 272 0
 1144 00f6 807F     		se_lbz %r7,0(%r31)
 1145 00f8 2A17     		se_cmpi %r7,1
 1146 00fa 7A02FF58 		e_bne %cr0,.L91
 1147              	.LVL132:
 1148              	.L102:
 1149              		.loc 1 273 0
 1150 00fe C17E     		se_lwz %r7,4(%r30)
 1151              		.loc 1 274 0
 1152 0100 C06D     		se_lwz %r6,0(%r29)
 1153              		.loc 1 273 0
 1154 0102 64A7     		se_bseti %r7,10
 1155 0104 D17E     		se_stw %r7,4(%r30)
 1156              		.loc 1 274 0
 1157 0106 8976     		se_lbz %r7,9(%r6)
 1158 0108 2A17     		se_cmpi %r7,1
 1159 010a 7A02FF48 		e_bne %cr0,.L91
 1160              		.loc 1 275 0
 1161 010e C17E     		se_lwz %r7,4(%r30)
 1162 0110 64B7     		se_bseti %r7,11
 1163 0112 D17E     		se_stw %r7,4(%r30)
 1164 0114 79FFFF3E 		e_b .L91
 1165              		.cfi_endproc
 1166              	.LFE4:
 1167              		.size	can_lld_writeTxBuffer, .-can_lld_writeTxBuffer
 1168              		.section	.text.vector692,"axv",@progbits
 1169              		.align 1
 1170              		.p2align 4,,15
 1171              		.globl vector692
 1172              		.type	vector692, @function
 1173              	vector692:
 1174              	.LFB9:
 1175              		.loc 1 816 0
 1176              		.cfi_startproc
 1177              	.LVL133:
 1178 0000 701F7F50 		e_li %r0,-176
 1179              		.loc 1 821 0
 1180 0004 4D05     		se_li %r5,80
 1181              		.loc 1 816 0
 1182 0006 7C21016E 		stwux %r1,%r1,%r0
 1183              	.LCFI11:
 1184              		.cfi_def_cfa_offset 176
 1185 000a 0080     		se_mflr %r0
 1186              		.loc 1 821 0
 1187 000c 18C18008 		e_addi %r6,%r1,8
 1188              		.loc 1 816 0
 1189 0010 540100B4 		e_stw %r0,180(%r1)
 1190              		.cfi_offset 65, 4
 1191              		.loc 1 821 0
 1192 0014 18E18060 		e_addi %r7,%r1,96
 1193 0018 0164     		se_mr %r4,%r6
 1194 001a 0173     		se_mr %r3,%r7
 1195 001c 78000001 		e_bl memcpy
 1196              	.LVL134:
 1197 0020 70C0E000 		e_lis %r6,.LANCHOR0@ha
GAS LISTING C:\Users\bayra\AppData\Local\Temp\cc4lF4Vd.s 			page 22


 1198 0024 0137     		se_mr %r7,%r3
 1199 0026 50C60000 		e_lwz %r6,.LANCHOR0@l(%r6)
 1200 002a 0174     		se_mr %r4,%r7
 1201 002c 4803     		se_li %r3,0
 1202 002e C776     		se_lwz %r7,28(%r6)
 1203 0030 00B7     		se_mtctr %r7
 1204 0032 0007     		se_bctrl
 1205              	.LVL135:
 1206              		.loc 1 825 0
 1207 0034 500100B4 		e_lwz %r0,180(%r1)
 1208 0038 0090     		se_mtlr %r0
 1209              		.cfi_restore 65
 1210 003a 182180B0 		e_addi %r1,%r1,176
 1211              	.LCFI12:
 1212              		.cfi_def_cfa_offset 0
 1213 003e 0004     		se_blr
 1214              		.cfi_endproc
 1215              	.LFE9:
 1216              		.size	vector692, .-vector692
 1217              		.section	.text.vector693,"axv",@progbits
 1218              		.align 1
 1219              		.p2align 4,,15
 1220              		.globl vector693
 1221              		.type	vector693, @function
 1222              	vector693:
 1223              	.LFB10:
 1224              		.loc 1 832 0
 1225              		.cfi_startproc
 1226              		.loc 1 836 0
 1227 0000 7060E000 		e_lis %r3,.LANCHOR0@ha
 1228              		.loc 1 839 0
 1229              		.loc 1 836 0
 1230 0004 1C630000 		e_la %r3,.LANCHOR0@l(%r3)
 1231 0008 78000000 		e_b can_lld_l1_handler
 1232              	.LVL136:
 1233              		.cfi_endproc
 1234              	.LFE10:
 1235              		.size	vector693, .-vector693
 1236              		.section	.text.vector694,"axv",@progbits
 1237              		.align 1
 1238              		.p2align 4,,15
 1239              		.globl vector694
 1240              		.type	vector694, @function
 1241              	vector694:
 1242              	.LFB11:
 1243              		.loc 1 908 0
 1244              		.cfi_startproc
 1245              	.LVL137:
 1246 0000 701F7F50 		e_li %r0,-176
 1247              		.loc 1 913 0
 1248 0004 4D05     		se_li %r5,80
 1249              		.loc 1 908 0
 1250 0006 7C21016E 		stwux %r1,%r1,%r0
 1251              	.LCFI13:
 1252              		.cfi_def_cfa_offset 176
 1253 000a 0080     		se_mflr %r0
 1254              		.loc 1 913 0
GAS LISTING C:\Users\bayra\AppData\Local\Temp\cc4lF4Vd.s 			page 23


 1255 000c 18C18008 		e_addi %r6,%r1,8
 1256              		.loc 1 908 0
 1257 0010 540100B4 		e_stw %r0,180(%r1)
 1258              		.cfi_offset 65, 4
 1259              		.loc 1 913 0
 1260 0014 18E18060 		e_addi %r7,%r1,96
 1261 0018 0164     		se_mr %r4,%r6
 1262 001a 0173     		se_mr %r3,%r7
 1263 001c 78000001 		e_bl memcpy
 1264              	.LVL138:
 1265 0020 70C0E000 		e_lis %r6,.LANCHOR1@ha
 1266 0024 0137     		se_mr %r7,%r3
 1267 0026 50C60000 		e_lwz %r6,.LANCHOR1@l(%r6)
 1268 002a 0174     		se_mr %r4,%r7
 1269 002c 4803     		se_li %r3,0
 1270 002e C776     		se_lwz %r7,28(%r6)
 1271 0030 00B7     		se_mtctr %r7
 1272 0032 0007     		se_bctrl
 1273              	.LVL139:
 1274              		.loc 1 917 0
 1275 0034 500100B4 		e_lwz %r0,180(%r1)
 1276 0038 0090     		se_mtlr %r0
 1277              		.cfi_restore 65
 1278 003a 182180B0 		e_addi %r1,%r1,176
 1279              	.LCFI14:
 1280              		.cfi_def_cfa_offset 0
 1281 003e 0004     		se_blr
 1282              		.cfi_endproc
 1283              	.LFE11:
 1284              		.size	vector694, .-vector694
 1285              		.section	.text.vector695,"axv",@progbits
 1286              		.align 1
 1287              		.p2align 4,,15
 1288              		.globl vector695
 1289              		.type	vector695, @function
 1290              	vector695:
 1291              	.LFB12:
 1292              		.loc 1 924 0
 1293              		.cfi_startproc
 1294              		.loc 1 928 0
 1295 0000 7060E000 		e_lis %r3,.LANCHOR1@ha
 1296              		.loc 1 931 0
 1297              		.loc 1 928 0
 1298 0004 1C630000 		e_la %r3,.LANCHOR1@l(%r3)
 1299 0008 78000000 		e_b can_lld_l1_handler
 1300              	.LVL140:
 1301              		.cfi_endproc
 1302              	.LFE12:
 1303              		.size	vector695, .-vector695
 1304              		.section	.text.vector696,"axv",@progbits
 1305              		.align 1
 1306              		.p2align 4,,15
 1307              		.globl vector696
 1308              		.type	vector696, @function
 1309              	vector696:
 1310              	.LFB13:
 1311              		.loc 1 940 0
GAS LISTING C:\Users\bayra\AppData\Local\Temp\cc4lF4Vd.s 			page 24


 1312              		.cfi_startproc
 1313              	.LVL141:
 1314 0000 701F7F40 		e_li %r0,-192
 1315              	.LBB10:
 1316              	.LBB11:
 1317              		.loc 1 383 0
 1318 0004 62C5     		se_bgeni %r5,12
 1319              	.LBE11:
 1320              	.LBE10:
 1321              		.loc 1 940 0
 1322 0006 7C21016E 		stwux %r1,%r1,%r0
 1323              	.LCFI15:
 1324              		.cfi_def_cfa_offset 192
 1325 000a 0080     		se_mflr %r0
 1326 000c 57E100BC 		e_stw %r31,188(%r1)
 1327 0010 540100C4 		e_stw %r0,196(%r1)
 1328 0014 578100B0 		e_stw %r28,176(%r1)
 1329 0018 57A100B4 		e_stw %r29,180(%r1)
 1330 001c 57C100B8 		e_stw %r30,184(%r1)
 1331              		.cfi_offset 65, 4
 1332              		.cfi_offset 31, -4
 1333              		.cfi_offset 28, -16
 1334              		.cfi_offset 29, -12
 1335              		.cfi_offset 30, -8
 1336              	.LBB16:
 1337              	.LBB14:
 1338              		.loc 1 383 0
 1339 0020 73E0E000 		e_lis %r31,.LANCHOR2@ha
 1340 0024 1C7F0000 		e_la %r3,.LANCHOR2@l(%r31)
 1341 0028 C173     		se_lwz %r7,4(%r3)
 1342 002a 50C70050 		e_lwz %r6,80(%r7)
 1343 002e 7CC42839 		and. %r4,%r6,%r5
 1344 0032 7A1200A0 		e_beq %cr0,.L109
 1345              		.loc 1 384 0
 1346 0036 50C70058 		e_lwz %r6,88(%r7)
 1347 003a 7CC42839 		and. %r4,%r6,%r5
 1348 003e 7A020094 		e_bne %cr0,.L109
 1349              		.loc 1 386 0
 1350 0042 50BF0000 		e_lwz %r5,.LANCHOR2@l(%r31)
 1351 0046 C565     		se_lwz %r6,20(%r5)
 1352 0048 2A06     		se_cmpi %r6,0
 1353 004a 7A120082 		e_beq %cr0,.L110
 1354              		.loc 1 387 0
 1355 004e 33A500A2 		e_lbz %r29,162(%r5)
 1356 0052 2A0D     		se_cmpi %r29,0
 1357 0054 7A120428 		e_beq %cr0,.L111
 1358 0058 480F     		se_li %r31,0
 1359 005a 00BD     		se_mtctr %r29
 1360 005c 78000016 		e_b .L116
 1361              	.LVL142:
 1362              	.L143:
 1363              		.loc 1 389 0
 1364 0060 50C70098 		e_lwz %r6,152(%r7)
 1365 0064 40F6     		se_srw %r6,%r31
 1366 0066 67F6     		se_btsti %r6,31
 1367 0068 7A0203C6 		e_bne %cr0,.L141
 1368              	.L114:
GAS LISTING C:\Users\bayra\AppData\Local\Temp\cc4lF4Vd.s 			page 25


 1369              		.loc 1 387 0
 1370 006c 200F     		se_addi %r31,1
 1371              	.LVL143:
 1372 006e 7A30037A 		e_bdz .L142
 1373              	.LVL144:
 1374              	.L116:
 1375              		.loc 1 388 0
 1376 0072 23EF     		se_cmpli %r31,31
 1377 0074 7A01FFEC 		e_ble %cr0,.L143
 1378              		.loc 1 393 0
 1379 0078 50C7009C 		e_lwz %r6,156(%r7)
 1380 007c 1BDF84E0 		e_addi %r30,%r31,-32
 1381 0080 40E6     		se_srw %r6,%r30
 1382 0082 67F6     		se_btsti %r6,31
 1383 0084 7A12FFE8 		e_beq %cr0,.L114
 1384              		.loc 1 399 0
 1385 0088 18C18008 		e_addi %r6,%r1,8
 1386 008c 01F5     		se_mr %r5,%r31
 1387              		.loc 1 401 0
 1388 008e 1BA68058 		e_addi %r29,%r6,88
 1389              		.loc 1 399 0
 1390 0092 7380E000 		e_lis %r28,.LANCHOR2@ha
 1391 0096 708000FC 		e_li %r4,252
 1392 009a 1C7C0000 		e_la %r3,.LANCHOR2@l(%r28)
 1393 009e 78000001 		e_bl can_lld_readBuffer
 1394              	.LVL145:
 1395              		.loc 1 401 0
 1396 00a2 18818008 		e_addi %r4,%r1,8
 1397 00a6 01D3     		se_mr %r3,%r29
 1398 00a8 4D05     		se_li %r5,80
 1399 00aa 78000001 		e_bl memcpy
 1400              	.LVL146:
 1401 00ae 50FC0000 		e_lwz %r7,.LANCHOR2@l(%r28)
 1402 00b2 01F3     		se_mr %r3,%r31
 1403 00b4 C577     		se_lwz %r7,20(%r7)
 1404 00b6 01D4     		se_mr %r4,%r29
 1405 00b8 00B7     		se_mtctr %r7
 1406 00ba 0007     		se_bctrl
 1407              	.LVL147:
 1408              	.L138:
 1409              		.loc 1 406 0
 1410 00bc 70E0E000 		e_lis %r7,.LANCHOR2+4@ha
 1411 00c0 4816     		se_li %r6,1
 1412 00c2 50E70000 		e_lwz %r7,.LANCHOR2+4@l(%r7)
 1413 00c6 42E6     		se_slw %r6, %r30
 1414 00c8 54C7009C 		e_stw %r6,156(%r7)
 1415              	.LVL148:
 1416              	.L110:
 1417              		.loc 1 410 0
 1418 00cc 62C6     		se_bgeni %r6,12
 1419 00ce 54C70050 		e_stw %r6,80(%r7)
 1420              	.L109:
 1421              		.loc 1 415 0
 1422 00d2 50C70050 		e_lwz %r6,80(%r7)
 1423 00d6 67C6     		se_btsti %r6,28
 1424 00d8 7A12001A 		e_beq %cr0,.L118
 1425              		.loc 1 416 0
GAS LISTING C:\Users\bayra\AppData\Local\Temp\cc4lF4Vd.s 			page 26


 1426 00dc 70C0E000 		e_lis %r6,.LANCHOR2@ha
 1427 00e0 50A60000 		e_lwz %r5,.LANCHOR2@l(%r6)
 1428 00e4 1FE60000 		e_la %r31,.LANCHOR2@l(%r6)
 1429              		.loc 1 415 0
 1430 00e8 30C50030 		e_lbz %r6,48(%r5)
 1431 00ec 2A16     		se_cmpi %r6,1
 1432 00ee 7A120252 		e_beq %cr0,.L144
 1433              	.L118:
 1434              		.loc 1 429 0
 1435 00f2 50C70050 		e_lwz %r6,80(%r7)
 1436 00f6 67D6     		se_btsti %r6,29
 1437 00f8 7A12001A 		e_beq %cr0,.L120
 1438              		.loc 1 430 0
 1439 00fc 70C0E000 		e_lis %r6,.LANCHOR2@ha
 1440 0100 50A60000 		e_lwz %r5,.LANCHOR2@l(%r6)
 1441 0104 1FE60000 		e_la %r31,.LANCHOR2@l(%r6)
 1442              		.loc 1 429 0
 1443 0108 30C50028 		e_lbz %r6,40(%r5)
 1444 010c 2A16     		se_cmpi %r6,1
 1445 010e 7A1202B8 		e_beq %cr0,.L145
 1446              	.L120:
 1447              		.loc 1 443 0
 1448 0112 50C70050 		e_lwz %r6,80(%r7)
 1449 0116 67E6     		se_btsti %r6,30
 1450 0118 7A12001A 		e_beq %cr0,.L122
 1451              		.loc 1 444 0
 1452 011c 70C0E000 		e_lis %r6,.LANCHOR2@ha
 1453 0120 50A60000 		e_lwz %r5,.LANCHOR2@l(%r6)
 1454 0124 1FE60000 		e_la %r31,.LANCHOR2@l(%r6)
 1455              		.loc 1 443 0
 1456 0128 30C50020 		e_lbz %r6,32(%r5)
 1457 012c 2A06     		se_cmpi %r6,0
 1458 012e 7A020132 		e_bne %cr0,.L146
 1459              	.L122:
 1460              		.loc 1 457 0
 1461 0132 50C70050 		e_lwz %r6,80(%r7)
 1462 0136 67F6     		se_btsti %r6,31
 1463 0138 7A12001A 		e_beq %cr0,.L124
 1464              		.loc 1 458 0
 1465 013c 73E0E000 		e_lis %r31,.LANCHOR2@ha
 1466 0140 50BF0000 		e_lwz %r5,.LANCHOR2@l(%r31)
 1467 0144 1FDF0000 		e_la %r30,.LANCHOR2@l(%r31)
 1468              		.loc 1 457 0
 1469 0148 30C50019 		e_lbz %r6,25(%r5)
 1470 014c 2A16     		se_cmpi %r6,1
 1471 014e 7A12018E 		e_beq %cr0,.L147
 1472              	.L124:
 1473              		.loc 1 476 0
 1474 0152 50C70050 		e_lwz %r6,80(%r7)
 1475 0156 6385     		se_bgeni %r5,24
 1476 0158 7CC32839 		and. %r3,%r6,%r5
 1477 015c 7A12001A 		e_beq %cr0,.L126
 1478              		.loc 1 477 0
 1479 0160 70C0E000 		e_lis %r6,.LANCHOR2@ha
 1480 0164 50860000 		e_lwz %r4,.LANCHOR2@l(%r6)
 1481 0168 1FE60000 		e_la %r31,.LANCHOR2@l(%r6)
 1482              		.loc 1 476 0
GAS LISTING C:\Users\bayra\AppData\Local\Temp\cc4lF4Vd.s 			page 27


 1483 016c 30C40050 		e_lbz %r6,80(%r4)
 1484 0170 2A16     		se_cmpi %r6,1
 1485 0172 7A12011E 		e_beq %cr0,.L148
 1486              	.L126:
 1487              		.loc 1 490 0
 1488 0176 50C70050 		e_lwz %r6,80(%r7)
 1489 017a 4C05     		se_li %r5,64
 1490 017c 7CC32839 		and. %r3,%r6,%r5
 1491 0180 7A12001A 		e_beq %cr0,.L128
 1492              		.loc 1 491 0
 1493 0184 70C0E000 		e_lis %r6,.LANCHOR2@ha
 1494 0188 50860000 		e_lwz %r4,.LANCHOR2@l(%r6)
 1495 018c 1FE60000 		e_la %r31,.LANCHOR2@l(%r6)
 1496              		.loc 1 490 0
 1497 0190 30C40048 		e_lbz %r6,72(%r4)
 1498 0194 2A16     		se_cmpi %r6,1
 1499 0196 7A120120 		e_beq %cr0,.L149
 1500              	.L128:
 1501              		.loc 1 504 0
 1502 019a 50C70050 		e_lwz %r6,80(%r7)
 1503 019e 4A05     		se_li %r5,32
 1504 01a0 7CC32839 		and. %r3,%r6,%r5
 1505 01a4 7A12001A 		e_beq %cr0,.L130
 1506              		.loc 1 505 0
 1507 01a8 70C0E000 		e_lis %r6,.LANCHOR2@ha
 1508 01ac 50860000 		e_lwz %r4,.LANCHOR2@l(%r6)
 1509 01b0 1FE60000 		e_la %r31,.LANCHOR2@l(%r6)
 1510              		.loc 1 504 0
 1511 01b4 30C40040 		e_lbz %r6,64(%r4)
 1512 01b8 2A06     		se_cmpi %r6,0
 1513 01ba 7A020080 		e_bne %cr0,.L150
 1514              	.L130:
 1515              		.loc 1 518 0
 1516 01be 50C70050 		e_lwz %r6,80(%r7)
 1517 01c2 67B6     		se_btsti %r6,27
 1518 01c4 7A12001A 		e_beq %cr0,.L132
 1519              		.loc 1 519 0
 1520 01c8 73E0E000 		e_lis %r31,.LANCHOR2@ha
 1521 01cc 50BF0000 		e_lwz %r5,.LANCHOR2@l(%r31)
 1522 01d0 1FDF0000 		e_la %r30,.LANCHOR2@l(%r31)
 1523              		.loc 1 518 0
 1524 01d4 30C50039 		e_lbz %r6,57(%r5)
 1525 01d8 2A16     		se_cmpi %r6,1
 1526 01da 7A120188 		e_beq %cr0,.L151
 1527              	.L132:
 1528              		.loc 1 537 0
 1529 01de 50C70050 		e_lwz %r6,80(%r7)
 1530 01e2 70C7EFF6 		e_and2is. %r6,0x3ff6
 1531 01e6 7A120038 		e_beq %cr0,.L108
 1532              	.LBB12:
 1533              		.loc 1 539 0
 1534 01ea 7060E000 		e_lis %r3,.LANCHOR2@ha
 1535              		.loc 1 538 0
 1536 01ee 50870044 		e_lwz %r4,68(%r7)
 1537              	.LVL149:
 1538              		.loc 1 539 0
 1539 01f2 50C30000 		e_lwz %r6,.LANCHOR2@l(%r3)
GAS LISTING C:\Users\bayra\AppData\Local\Temp\cc4lF4Vd.s 			page 28


 1540 01f6 1FE30000 		e_la %r31,.LANCHOR2@l(%r3)
 1541 01fa 50C600A8 		e_lwz %r6,168(%r6)
 1542 01fe 2A06     		se_cmpi %r6,0
 1543 0200 7A12000C 		e_beq %cr0,.L135
 1544              		.loc 1 540 0
 1545 0204 01F3     		se_mr %r3,%r31
 1546 0206 00B6     		se_mtctr %r6
 1547 0208 0007     		se_bctrl
 1548              	.LVL150:
 1549 020a C17F     		se_lwz %r7,4(%r31)
 1550              	.L135:
 1551              		.loc 1 543 0
 1552 020c 50C70050 		e_lwz %r6,80(%r7)
 1553 0210 6666     		se_btsti %r6,6
 1554 0212 7A020070 		e_bne %cr0,.L152
 1555              	.L136:
 1556              		.loc 1 548 0
 1557 0216 70C7E7F6 		e_lis %r6,0x3ff6
 1558 021a 54C70050 		e_stw %r6,80(%r7)
 1559              	.L108:
 1560              	.LBE12:
 1561              	.LBE14:
 1562              	.LBE16:
 1563              		.loc 1 949 0
 1564 021e 500100C4 		e_lwz %r0,196(%r1)
 1565 0222 0090     		se_mtlr %r0
 1566              		.cfi_remember_state
 1567              		.cfi_restore 65
 1568 0224 538100B0 		e_lwz %r28,176(%r1)
 1569 0228 53A100B4 		e_lwz %r29,180(%r1)
 1570 022c 53C100B8 		e_lwz %r30,184(%r1)
 1571 0230 53E100BC 		e_lwz %r31,188(%r1)
 1572 0234 182180C0 		e_addi %r1,%r1,192
 1573              	.LCFI16:
 1574              		.cfi_restore 31
 1575              		.cfi_restore 30
 1576              		.cfi_restore 29
 1577              		.cfi_restore 28
 1578              		.cfi_def_cfa_offset 0
 1579 0238 0004     		se_blr
 1580              	.L150:
 1581              	.LCFI17:
 1582              		.cfi_restore_state
 1583              	.LBB17:
 1584              	.LBB15:
 1585              		.loc 1 506 0
 1586 023a 50C70058 		e_lwz %r6,88(%r7)
 1587 023e 7CC32839 		and. %r3,%r6,%r5
 1588 0242 7A02FF7C 		e_bne %cr0,.L130
 1589              		.loc 1 508 0
 1590 0246 50C40044 		e_lwz %r6,68(%r4)
 1591 024a 2A06     		se_cmpi %r6,0
 1592 024c 7A12000A 		e_beq %cr0,.L131
 1593              		.loc 1 510 0
 1594 0250 00B6     		se_mtctr %r6
 1595 0252 0007     		se_bctrl
 1596              	.LVL151:
GAS LISTING C:\Users\bayra\AppData\Local\Temp\cc4lF4Vd.s 			page 29


 1597 0254 C17F     		se_lwz %r7,4(%r31)
 1598              	.L131:
 1599              		.loc 1 513 0
 1600 0256 4A06     		se_li %r6,32
 1601 0258 54C70050 		e_stw %r6,80(%r7)
 1602 025c 79FFFF62 		e_b .L130
 1603              	.L146:
 1604              		.loc 1 445 0
 1605 0260 50C70058 		e_lwz %r6,88(%r7)
 1606 0264 67E6     		se_btsti %r6,30
 1607 0266 7A02FECC 		e_bne %cr0,.L122
 1608              		.loc 1 447 0
 1609 026a C965     		se_lwz %r6,36(%r5)
 1610 026c 2A06     		se_cmpi %r6,0
 1611 026e 7A12000A 		e_beq %cr0,.L123
 1612              		.loc 1 449 0
 1613 0272 00B6     		se_mtctr %r6
 1614 0274 0007     		se_bctrl
 1615              	.LVL152:
 1616 0276 C17F     		se_lwz %r7,4(%r31)
 1617              	.L123:
 1618              		.loc 1 452 0
 1619 0278 4826     		se_li %r6,2
 1620 027a 54C70050 		e_stw %r6,80(%r7)
 1621 027e 79FFFEB4 		e_b .L122
 1622              	.L152:
 1623              	.LBB13:
 1624              		.loc 1 545 0
 1625 0282 C667     		se_lwz %r6,24(%r7)
 1626 0284 4805     		se_li %r5,0
 1627 0286 74A607FE 		e_rlwimi %r6,%r5,0,31,31
 1628 028a D667     		se_stw %r6,24(%r7)
 1629 028c 79FFFF8A 		e_b .L136
 1630              	.L148:
 1631              	.LBE13:
 1632              		.loc 1 478 0
 1633 0290 50C70058 		e_lwz %r6,88(%r7)
 1634 0294 7CC32839 		and. %r3,%r6,%r5
 1635 0298 7A02FEDE 		e_bne %cr0,.L126
 1636              		.loc 1 480 0
 1637 029c 50C40054 		e_lwz %r6,84(%r4)
 1638 02a0 2A06     		se_cmpi %r6,0
 1639 02a2 7A12000A 		e_beq %cr0,.L127
 1640              		.loc 1 482 0
 1641 02a6 00B6     		se_mtctr %r6
 1642 02a8 0007     		se_bctrl
 1643              	.LVL153:
 1644 02aa C17F     		se_lwz %r7,4(%r31)
 1645              	.L127:
 1646              		.loc 1 485 0
 1647 02ac 6386     		se_bgeni %r6,24
 1648 02ae 54C70050 		e_stw %r6,80(%r7)
 1649 02b2 79FFFEC4 		e_b .L126
 1650              	.L149:
 1651              		.loc 1 492 0
 1652 02b6 50C70058 		e_lwz %r6,88(%r7)
 1653 02ba 7CC32839 		and. %r3,%r6,%r5
GAS LISTING C:\Users\bayra\AppData\Local\Temp\cc4lF4Vd.s 			page 30


 1654 02be 7A02FEDC 		e_bne %cr0,.L128
 1655              		.loc 1 494 0
 1656 02c2 50C4004C 		e_lwz %r6,76(%r4)
 1657 02c6 2A06     		se_cmpi %r6,0
 1658 02c8 7A12000A 		e_beq %cr0,.L129
 1659              		.loc 1 496 0
 1660 02cc 00B6     		se_mtctr %r6
 1661 02ce 0007     		se_bctrl
 1662              	.LVL154:
 1663 02d0 C17F     		se_lwz %r7,4(%r31)
 1664              	.L129:
 1665              		.loc 1 499 0
 1666 02d2 4C06     		se_li %r6,64
 1667 02d4 54C70050 		e_stw %r6,80(%r7)
 1668 02d8 79FFFEC2 		e_b .L128
 1669              	.L147:
 1670              		.loc 1 459 0
 1671 02dc 50C70058 		e_lwz %r6,88(%r7)
 1672 02e0 67F6     		se_btsti %r6,31
 1673 02e2 7A02FE70 		e_bne %cr0,.L124
 1674              		.loc 1 461 0
 1675 02e6 C765     		se_lwz %r6,28(%r5)
 1676 02e8 2A06     		se_cmpi %r6,0
 1677 02ea 7A12004C 		e_beq %cr0,.L125
 1678              		.loc 1 464 0
 1679 02ee 18C18008 		e_addi %r6,%r1,8
 1680              		.loc 1 462 0
 1681 02f2 53A700A4 		e_lwz %r29,164(%r7)
 1682              		.loc 1 466 0
 1683 02f6 1B868058 		e_addi %r28,%r6,88
 1684              		.loc 1 464 0
 1685 02fa 01E3     		se_mr %r3,%r30
 1686              		.loc 1 462 0
 1687 02fc 77BDC6BF 		e_rlwinm %r29,%r29,24,26,31
 1688              	.LVL155:
 1689              		.loc 1 464 0
 1690 0300 708000FD 		e_li %r4,253
 1691 0304 01D5     		se_mr %r5,%r29
 1692 0306 78000001 		e_bl can_lld_readBuffer
 1693              	.LVL156:
 1694              		.loc 1 466 0
 1695 030a 4D05     		se_li %r5,80
 1696 030c 18818008 		e_addi %r4,%r1,8
 1697 0310 01C3     		se_mr %r3,%r28
 1698 0312 78000001 		e_bl memcpy
 1699              	.LVL157:
 1700 0316 50FF0000 		e_lwz %r7,.LANCHOR2@l(%r31)
 1701 031a 01D3     		se_mr %r3,%r29
 1702 031c C777     		se_lwz %r7,28(%r7)
 1703 031e 01C4     		se_mr %r4,%r28
 1704 0320 00B7     		se_mtctr %r7
 1705 0322 0007     		se_bctrl
 1706              	.LVL158:
 1707              		.loc 1 468 0
 1708 0324 C17E     		se_lwz %r7,4(%r30)
 1709 0326 50A700A4 		e_lwz %r5,164(%r7)
 1710 032a 50C700A8 		e_lwz %r6,168(%r7)
GAS LISTING C:\Users\bayra\AppData\Local\Temp\cc4lF4Vd.s 			page 31


 1711 032e 74A6C6BE 		e_rlwimi %r6,%r5,24,26,31
 1712 0332 54C700A8 		e_stw %r6,168(%r7)
 1713              	.LVL159:
 1714              	.L125:
 1715              		.loc 1 471 0
 1716 0336 4816     		se_li %r6,1
 1717 0338 54C70050 		e_stw %r6,80(%r7)
 1718 033c 79FFFE16 		e_b .L124
 1719              	.L144:
 1720              		.loc 1 417 0
 1721 0340 50C70058 		e_lwz %r6,88(%r7)
 1722 0344 67C6     		se_btsti %r6,28
 1723 0346 7A02FDAC 		e_bne %cr0,.L118
 1724              		.loc 1 419 0
 1725 034a CD65     		se_lwz %r6,52(%r5)
 1726 034c 2A06     		se_cmpi %r6,0
 1727 034e 7A12000A 		e_beq %cr0,.L119
 1728              		.loc 1 421 0
 1729 0352 00B6     		se_mtctr %r6
 1730 0354 0007     		se_bctrl
 1731              	.LVL160:
 1732 0356 C17F     		se_lwz %r7,4(%r31)
 1733              	.L119:
 1734              		.loc 1 424 0
 1735 0358 4886     		se_li %r6,8
 1736 035a 54C70050 		e_stw %r6,80(%r7)
 1737 035e 79FFFD94 		e_b .L118
 1738              	.L151:
 1739              		.loc 1 520 0
 1740 0362 50C70058 		e_lwz %r6,88(%r7)
 1741 0366 67B6     		se_btsti %r6,27
 1742 0368 7A02FE76 		e_bne %cr0,.L132
 1743              		.loc 1 522 0
 1744 036c CF65     		se_lwz %r6,60(%r5)
 1745 036e 2A06     		se_cmpi %r6,0
 1746 0370 7A12004C 		e_beq %cr0,.L133
 1747              		.loc 1 525 0
 1748 0374 18C18008 		e_addi %r6,%r1,8
 1749              		.loc 1 523 0
 1750 0378 53A700B4 		e_lwz %r29,180(%r7)
 1751              		.loc 1 527 0
 1752 037c 1B868058 		e_addi %r28,%r6,88
 1753              		.loc 1 525 0
 1754 0380 01E3     		se_mr %r3,%r30
 1755              		.loc 1 523 0
 1756 0382 77BDC6BF 		e_rlwinm %r29,%r29,24,26,31
 1757              	.LVL161:
 1758              		.loc 1 525 0
 1759 0386 708000FE 		e_li %r4,254
 1760 038a 01D5     		se_mr %r5,%r29
 1761 038c 78000001 		e_bl can_lld_readBuffer
 1762              	.LVL162:
 1763              		.loc 1 527 0
 1764 0390 4D05     		se_li %r5,80
 1765 0392 18818008 		e_addi %r4,%r1,8
 1766 0396 01C3     		se_mr %r3,%r28
 1767 0398 78000001 		e_bl memcpy
GAS LISTING C:\Users\bayra\AppData\Local\Temp\cc4lF4Vd.s 			page 32


 1768              	.LVL163:
 1769 039c 50FF0000 		e_lwz %r7,.LANCHOR2@l(%r31)
 1770 03a0 01D3     		se_mr %r3,%r29
 1771 03a2 CF77     		se_lwz %r7,60(%r7)
 1772 03a4 01C4     		se_mr %r4,%r28
 1773 03a6 00B7     		se_mtctr %r7
 1774 03a8 0007     		se_bctrl
 1775              	.LVL164:
 1776              		.loc 1 529 0
 1777 03aa C17E     		se_lwz %r7,4(%r30)
 1778 03ac 50A700B4 		e_lwz %r5,180(%r7)
 1779 03b0 50C700B8 		e_lwz %r6,184(%r7)
 1780 03b4 74A6C6BE 		e_rlwimi %r6,%r5,24,26,31
 1781 03b8 54C700B8 		e_stw %r6,184(%r7)
 1782              	.LVL165:
 1783              	.L133:
 1784              		.loc 1 532 0
 1785 03bc 4906     		se_li %r6,16
 1786 03be 54C70050 		e_stw %r6,80(%r7)
 1787 03c2 79FFFE1C 		e_b .L132
 1788              	.L145:
 1789              		.loc 1 431 0
 1790 03c6 50C70058 		e_lwz %r6,88(%r7)
 1791 03ca 67D6     		se_btsti %r6,29
 1792 03cc 7A02FD46 		e_bne %cr0,.L120
 1793              		.loc 1 433 0
 1794 03d0 CB65     		se_lwz %r6,44(%r5)
 1795 03d2 2A06     		se_cmpi %r6,0
 1796 03d4 7A12000A 		e_beq %cr0,.L121
 1797              		.loc 1 435 0
 1798 03d8 00B6     		se_mtctr %r6
 1799 03da 0007     		se_bctrl
 1800              	.LVL166:
 1801 03dc C17F     		se_lwz %r7,4(%r31)
 1802              	.L121:
 1803              		.loc 1 438 0
 1804 03de 4846     		se_li %r6,4
 1805 03e0 54C70050 		e_stw %r6,80(%r7)
 1806 03e4 79FFFD2E 		e_b .L120
 1807              	.LVL167:
 1808              	.L142:
 1809              		.loc 1 399 0
 1810 03e8 18C18008 		e_addi %r6,%r1,8
 1811 03ec 01F5     		se_mr %r5,%r31
 1812              		.loc 1 401 0
 1813 03ee 1BC68058 		e_addi %r30,%r6,88
 1814              		.loc 1 399 0
 1815 03f2 7380E000 		e_lis %r28,.LANCHOR2@ha
 1816 03f6 708000FC 		e_li %r4,252
 1817 03fa 1C7C0000 		e_la %r3,.LANCHOR2@l(%r28)
 1818 03fe 78000001 		e_bl can_lld_readBuffer
 1819              	.LVL168:
 1820              		.loc 1 401 0
 1821 0402 18818008 		e_addi %r4,%r1,8
 1822 0406 01E3     		se_mr %r3,%r30
 1823 0408 4D05     		se_li %r5,80
 1824 040a 78000001 		e_bl memcpy
GAS LISTING C:\Users\bayra\AppData\Local\Temp\cc4lF4Vd.s 			page 33


 1825              	.LVL169:
 1826 040e 50FC0000 		e_lwz %r7,.LANCHOR2@l(%r28)
 1827 0412 01E4     		se_mr %r4,%r30
 1828 0414 C577     		se_lwz %r7,20(%r7)
 1829 0416 01F3     		se_mr %r3,%r31
 1830 0418 00B7     		se_mtctr %r7
 1831 041a 1BDF84E0 		e_addi %r30,%r31,-32
 1832 041e 0007     		se_bctrl
 1833              	.LVL170:
 1834              		.loc 1 403 0
 1835 0420 23EF     		se_cmpli %r31,31
 1836 0422 7A11FC9A 		e_bgt %cr0,.L138
 1837 0426 4816     		se_li %r6,1
 1838 0428 42D6     		se_slw %r6, %r29
 1839 042a 7800003C 		e_b .L137
 1840              	.L141:
 1841              		.loc 1 399 0
 1842 042e 18C18008 		e_addi %r6,%r1,8
 1843 0432 01F5     		se_mr %r5,%r31
 1844              		.loc 1 401 0
 1845 0434 1BC68058 		e_addi %r30,%r6,88
 1846              		.loc 1 399 0
 1847 0438 73A0E000 		e_lis %r29,.LANCHOR2@ha
 1848 043c 708000FC 		e_li %r4,252
 1849 0440 1C7D0000 		e_la %r3,.LANCHOR2@l(%r29)
 1850 0444 78000001 		e_bl can_lld_readBuffer
 1851              	.LVL171:
 1852              		.loc 1 401 0
 1853 0448 18818008 		e_addi %r4,%r1,8
 1854 044c 4D05     		se_li %r5,80
 1855 044e 01E3     		se_mr %r3,%r30
 1856 0450 78000001 		e_bl memcpy
 1857              	.LVL172:
 1858 0454 50FD0000 		e_lwz %r7,.LANCHOR2@l(%r29)
 1859 0458 01F3     		se_mr %r3,%r31
 1860 045a C577     		se_lwz %r7,20(%r7)
 1861 045c 01E4     		se_mr %r4,%r30
 1862 045e 00B7     		se_mtctr %r7
 1863 0460 0007     		se_bctrl
 1864              	.LVL173:
 1865 0462 4816     		se_li %r6,1
 1866 0464 42F6     		se_slw %r6, %r31
 1867              	.LVL174:
 1868              	.L137:
 1869              		.loc 1 404 0
 1870 0466 70E0E000 		e_lis %r7,.LANCHOR2+4@ha
 1871 046a 50E70000 		e_lwz %r7,.LANCHOR2+4@l(%r7)
 1872 046e 54C70098 		e_stw %r6,152(%r7)
 1873              		.loc 1 410 0
 1874 0472 62C6     		se_bgeni %r6,12
 1875 0474 54C70050 		e_stw %r6,80(%r7)
 1876 0478 79FFFC5A 		e_b .L109
 1877              	.LVL175:
 1878              	.L111:
 1879              		.loc 1 399 0
 1880 047c 18C18008 		e_addi %r6,%r1,8
 1881 0480 708000FC 		e_li %r4,252
GAS LISTING C:\Users\bayra\AppData\Local\Temp\cc4lF4Vd.s 			page 34


 1882              		.loc 1 401 0
 1883 0484 1BC68058 		e_addi %r30,%r6,88
 1884              		.loc 1 399 0
 1885 0488 4805     		se_li %r5,0
 1886 048a 78000001 		e_bl can_lld_readBuffer
 1887              	.LVL176:
 1888              		.loc 1 401 0
 1889 048e 18818008 		e_addi %r4,%r1,8
 1890 0492 4D05     		se_li %r5,80
 1891 0494 01E3     		se_mr %r3,%r30
 1892 0496 78000001 		e_bl memcpy
 1893              	.LVL177:
 1894 049a 50FF0000 		e_lwz %r7,.LANCHOR2@l(%r31)
 1895 049e 4803     		se_li %r3,0
 1896 04a0 C577     		se_lwz %r7,20(%r7)
 1897 04a2 01E4     		se_mr %r4,%r30
 1898 04a4 00B7     		se_mtctr %r7
 1899 04a6 0007     		se_bctrl
 1900              	.LVL178:
 1901 04a8 4816     		se_li %r6,1
 1902 04aa 79FFFFBC 		e_b .L137
 1903              	.LBE15:
 1904              	.LBE17:
 1905              		.cfi_endproc
 1906              	.LFE13:
 1907              		.size	vector696, .-vector696
 1908              		.section	.text.vector697,"axv",@progbits
 1909              		.align 1
 1910              		.p2align 4,,15
 1911              		.globl vector697
 1912              		.type	vector697, @function
 1913              	vector697:
 1914              	.LFB14:
 1915              		.loc 1 956 0
 1916              		.cfi_startproc
 1917              		.loc 1 960 0
 1918 0000 7060E000 		e_lis %r3,.LANCHOR2@ha
 1919              		.loc 1 963 0
 1920              		.loc 1 960 0
 1921 0004 1C630000 		e_la %r3,.LANCHOR2@l(%r3)
 1922 0008 78000000 		e_b can_lld_l1_handler
 1923              	.LVL179:
 1924              		.cfi_endproc
 1925              	.LFE14:
 1926              		.size	vector697, .-vector697
 1927              		.section	.text.can_lld_init,"axv",@progbits
 1928              		.align 1
 1929              		.p2align 4,,15
 1930              		.globl can_lld_init
 1931              		.type	can_lld_init, @function
 1932              	can_lld_init:
 1933              	.LFB15:
 1934              		.loc 1 1334 0
 1935              		.cfi_startproc
 1936 0000 182106F8 		e_stwu %r1,-8(%r1)
 1937              	.LCFI18:
 1938              		.cfi_def_cfa_offset 8
GAS LISTING C:\Users\bayra\AppData\Local\Temp\cc4lF4Vd.s 			page 35


 1939              		.loc 1 1371 0
 1940 0004 70E4000A 		e_li %r7,8202
 1941              		.loc 1 1369 0
 1942 0008 4805     		se_li %r5,0
 1943              		.loc 1 1334 0
 1944 000a 0080     		se_mflr %r0
 1945              		.loc 1 1369 0
 1946 000c 70C0E000 		e_lis %r6,.LANCHOR0@ha
 1947              		.loc 1 1334 0
 1948 0010 D301     		se_stw %r0,12(%r1)
 1949              		.cfi_offset 65, 4
 1950              		.loc 1 1369 0
 1951 0012 54A60000 		e_stw %r5,.LANCHOR0@l(%r6)
 1952              		.loc 1 1371 0
 1953 0016 709EE404 		e_lis %r4,0xf404
 1954              		.loc 1 1369 0
 1955 001a 1CC60000 		e_la %r6,.LANCHOR0@l(%r6)
 1956              		.loc 1 1371 0
 1957 001e 7088C5C8 		e_or2i %r4,17864
 1958              		.loc 1 1372 0
 1959 0022 707EE404 		e_lis %r3,0xf404
 1960              		.loc 1 1371 0
 1961 0026 B074     		se_sth %r7,0(%r4)
 1962              		.loc 1 1372 0
 1963 0028 7068C5CA 		e_or2i %r3,17866
 1964              		.loc 1 1391 0
 1965 002c 7080E000 		e_lis %r4,.LANCHOR1@ha
 1966              		.loc 1 1372 0
 1967 0030 B073     		se_sth %r7,0(%r3)
 1968              		.loc 1 1391 0
 1969 0032 1D640000 		e_la %r11,.LANCHOR1@l(%r4)
 1970 0036 54A40000 		e_stw %r5,.LANCHOR1@l(%r4)
 1971              		.loc 1 1393 0
 1972 003a 709EE404 		e_lis %r4,0xf404
 1973 003e 7088C5CC 		e_or2i %r4,17868
 1974 0042 B074     		se_sth %r7,0(%r4)
 1975              		.loc 1 1394 0
 1976 0044 B273     		se_sth %r7,4(%r3)
 1977              		.loc 1 1398 0
 1978 0046 7080E000 		e_lis %r4,.LANCHOR2@ha
 1979 004a 54A40000 		e_stw %r5,.LANCHOR2@l(%r4)
 1980 004e 1C640000 		e_la %r3,.LANCHOR2@l(%r4)
 1981              		.loc 1 1400 0
 1982 0052 70BEE404 		e_lis %r5,0xf404
 1983              		.loc 1 1496 0
 1984 0056 4924     		se_li %r4,18
 1985              		.loc 1 1400 0
 1986 0058 70A8C5D0 		e_or2i %r5,17872
 1987 005c B075     		se_sth %r7,0(%r5)
 1988              		.loc 1 1370 0
 1989 005e 70BEE7EF 		e_lis %r5,0xf7ef
 1990 0062 D156     		se_stw %r5,4(%r6)
 1991              		.loc 1 1392 0
 1992 0064 70DFE3EE 		e_lis %r6,0xfbee
 1993 0068 6516     		se_bseti %r6,17
 1994 006a 54CB0004 		e_stw %r6,4(%r11)
 1995              		.loc 1 1399 0
GAS LISTING C:\Users\bayra\AppData\Local\Temp\cc4lF4Vd.s 			page 36


 1996 006e 18C68140 		e_addi %r6,%r6,16384
 1997 0072 D163     		se_stw %r6,4(%r3)
 1998              		.loc 1 1401 0
 1999 0074 70DEE404 		e_lis %r6,0xf404
 2000              		.loc 1 1496 0
 2001 0078 4CA3     		se_li %r3,74
 2002              		.loc 1 1401 0
 2003 007a 70C8C5D2 		e_or2i %r6,17874
 2004 007e B076     		se_sth %r7,0(%r6)
 2005              		.loc 1 1496 0
 2006 0080 78000001 		e_bl SPCSetPeripheralClockMode
 2007              	.LVL180:
 2008 0084 70FEE7ED 		e_lis %r7,0xf7ed
 2009              		.loc 1 1497 0
 2010 0088 70A10780 		e_li %r5,3968
 2011              		.loc 1 1499 0
 2012 008c 4806     		se_li %r6,0
 2013              		.loc 1 1496 0
 2014 008e 6517     		se_bseti %r7,17
 2015              		.loc 1 1497 0
 2016 0090 00B5     		se_mtctr %r5
 2017              	.LVL181:
 2018              	.L155:
 2019              		.loc 1 1499 0 discriminator 3
 2020 0092 D067     		se_stw %r6,0(%r7)
 2021              	.LVL182:
 2022 0094 2037     		se_addi %r7,4
 2023              	.LVL183:
 2024              		.loc 1 1497 0 discriminator 3
 2025 0096 7A20FFFC 		e_bdnz .L155
 2026              		.loc 1 1510 0
 2027 009a 706000CA 		e_li %r3,202
 2028 009e 4924     		se_li %r4,18
 2029 00a0 78000001 		e_bl SPCSetPeripheralClockMode
 2030              	.LVL184:
 2031 00a4 70FFE3ED 		e_lis %r7,0xfbed
 2032              		.loc 1 1511 0
 2033 00a8 70A10780 		e_li %r5,3968
 2034              		.loc 1 1513 0
 2035 00ac 4806     		se_li %r6,0
 2036              		.loc 1 1510 0
 2037 00ae 6517     		se_bseti %r7,17
 2038              		.loc 1 1511 0
 2039 00b0 00B5     		se_mtctr %r5
 2040              	.LVL185:
 2041              	.L156:
 2042              		.loc 1 1513 0 discriminator 3
 2043 00b2 D067     		se_stw %r6,0(%r7)
 2044              	.LVL186:
 2045 00b4 2037     		se_addi %r7,4
 2046              	.LVL187:
 2047              		.loc 1 1511 0 discriminator 3
 2048 00b6 7A20FFFC 		e_bdnz .L156
 2049              		.loc 1 1545 0
 2050 00ba C301     		se_lwz %r0,12(%r1)
 2051 00bc 0090     		se_mtlr %r0
 2052              		.cfi_restore 65
GAS LISTING C:\Users\bayra\AppData\Local\Temp\cc4lF4Vd.s 			page 37


 2053 00be 2071     		se_addi %r1,8
 2054              	.LCFI19:
 2055              		.cfi_def_cfa_offset 0
 2056 00c0 0004     		se_blr
 2057              		.cfi_endproc
 2058              	.LFE15:
 2059              		.size	can_lld_init, .-can_lld_init
 2060              		.section	.text.can_lld_start,"axv",@progbits
 2061              		.align 1
 2062              		.p2align 4,,15
 2063              		.globl can_lld_start
 2064              		.type	can_lld_start, @function
 2065              	can_lld_start:
 2066              	.LFB16:
 2067              		.loc 1 1555 0
 2068              		.cfi_startproc
 2069              	.LVL188:
 2070 0000 182106E8 		e_stwu %r1,-24(%r1)
 2071              	.LCFI20:
 2072              		.cfi_def_cfa_offset 24
 2073 0004 0080     		se_mflr %r0
 2074 0006 1BA1090C 		e_stmw %r29,12(%r1)
 2075 000a D701     		se_stw %r0,28(%r1)
 2076              		.cfi_offset 65, 4
 2077              		.cfi_offset 29, -12
 2078              		.cfi_offset 30, -8
 2079              		.cfi_offset 31, -4
 2080              		.loc 1 1599 0
 2081 000c 70E0E000 		e_lis %r7,.LANCHOR0@ha
 2082              		.loc 1 1555 0
 2083 0010 013F     		se_mr %r31,%r3
 2084              		.loc 1 1599 0
 2085 0012 1CE70000 		e_la %r7,.LANCHOR0@l(%r7)
 2086              		.loc 1 1567 0
 2087 0016 D043     		se_stw %r4,0(%r3)
 2088              		.loc 1 1599 0
 2089 0018 0C73     		se_cmp %r3,%r7
 2090 001a 7A12070E 		e_beq %cr0,.L204
 2091              		.loc 1 1621 0
 2092 001e 70E0E000 		e_lis %r7,.LANCHOR1@ha
 2093 0022 1CE70000 		e_la %r7,.LANCHOR1@l(%r7)
 2094 0026 0C73     		se_cmp %r3,%r7
 2095 0028 7A120718 		e_beq %cr0,.L205
 2096              		.loc 1 1628 0
 2097 002c 70E0E000 		e_lis %r7,.LANCHOR2@ha
 2098 0030 480D     		se_li %r29,0
 2099 0032 1CE70000 		e_la %r7,.LANCHOR2@l(%r7)
 2100 0036 480E     		se_li %r30,0
 2101 0038 0C73     		se_cmp %r3,%r7
 2102 003a 7A120714 		e_beq %cr0,.L206
 2103              	.LVL189:
 2104              	.L161:
 2105              		.loc 1 1722 0
 2106 003e 4836     		se_li %r6,3
 2107 0040 C17F     		se_lwz %r7,4(%r31)
 2108 0042 D667     		se_stw %r6,24(%r7)
 2109 0044 C16F     		se_lwz %r6,4(%r31)
GAS LISTING C:\Users\bayra\AppData\Local\Temp\cc4lF4Vd.s 			page 38


 2110              	.L163:
 2111              		.loc 1 1723 0 discriminator 1
 2112 0046 C676     		se_lwz %r7,24(%r6)
 2113 0048 67F7     		se_btsti %r7,31
 2114 004a 7A12FFFC 		e_beq %cr0,.L163
 2115              		.loc 1 1728 0
 2116 004e 4BE3     		se_li %r3,62
 2117 0050 4924     		se_li %r4,18
 2118 0052 78000001 		e_bl SPCSetPeripheralClockMode
 2119              	.LVL190:
 2120              		.loc 1 1730 0
 2121 0056 70DEE7F0 		e_lis %r6,0xf7f0
 2122 005a 6516     		se_bseti %r6,17
 2123 005c C176     		se_lwz %r7,4(%r6)
 2124 005e 7007AC44 		e_cmpl16i %r7,1092
 2125 0062 7A12000A 		e_beq %cr0,.L164
 2126              		.loc 1 1731 0
 2127 0066 70E00444 		e_li %r7,1092
 2128 006a D176     		se_stw %r7,4(%r6)
 2129              	.L164:
 2130              		.loc 1 1733 0
 2131 006c 4BE3     		se_li %r3,62
 2132 006e 4804     		se_li %r4,0
 2133 0070 78000001 		e_bl SPCSetPeripheralClockMode
 2134              	.LVL191:
 2135              		.loc 1 1751 0
 2136 0074 C07F     		se_lwz %r7,0(%r31)
 2137 0076 8067     		se_lbz %r6,0(%r7)
 2138 0078 2A06     		se_cmpi %r6,0
 2139 007a 7A120024 		e_beq %cr0,.L165
 2140              		.loc 1 1752 0
 2141 007e C17F     		se_lwz %r7,4(%r31)
 2142 0080 4815     		se_li %r5,1
 2143 0082 C667     		se_lwz %r6,24(%r7)
 2144 0084 74A63E30 		e_rlwimi %r6,%r5,7,24,24
 2145 0088 D667     		se_stw %r6,24(%r7)
 2146              		.loc 1 1753 0
 2147 008a C17F     		se_lwz %r7,4(%r31)
 2148 008c C467     		se_lwz %r6,16(%r7)
 2149 008e 74A626F6 		e_rlwimi %r6,%r5,4,27,27
 2150 0092 D467     		se_stw %r6,16(%r7)
 2151              		.loc 1 1754 0
 2152 0094 C07F     		se_lwz %r7,0(%r31)
 2153 0096 8067     		se_lbz %r6,0(%r7)
 2154 0098 2A16     		se_cmpi %r6,1
 2155 009a 7A12062A 		e_beq %cr0,.L207
 2156              	.L165:
 2157              		.loc 1 1778 0
 2158 009e C16F     		se_lwz %r6,4(%r31)
 2159 00a0 8257     		se_lbz %r5,2(%r7)
 2160 00a2 C776     		se_lwz %r7,28(%r6)
 2161 00a4 74A7C80C 		e_rlwimi %r7,%r5,25,0,6
 2162 00a8 D776     		se_stw %r7,28(%r6)
 2163              		.loc 1 1779 0
 2164 00aa C06F     		se_lwz %r6,0(%r31)
 2165 00ac C17F     		se_lwz %r7,4(%r31)
 2166 00ae 8366     		se_lbz %r6,3(%r6)
GAS LISTING C:\Users\bayra\AppData\Local\Temp\cc4lF4Vd.s 			page 39


 2167 00b0 34C7001E 		e_stb %r6,30(%r7)
 2168              		.loc 1 1780 0
 2169 00b4 C17F     		se_lwz %r7,4(%r31)
 2170 00b6 C05F     		se_lwz %r5,0(%r31)
 2171 00b8 C767     		se_lwz %r6,28(%r7)
 2172 00ba 8455     		se_lbz %r5,4(%r5)
 2173 00bc 74A6067E 		e_rlwimi %r6,%r5,0,25,31
 2174 00c0 D767     		se_stw %r6,28(%r7)
 2175              		.loc 1 1781 0
 2176 00c2 C16F     		se_lwz %r6,4(%r31)
 2177 00c4 C07F     		se_lwz %r7,0(%r31)
 2178 00c6 C756     		se_lwz %r5,28(%r6)
 2179 00c8 A377     		se_lhz %r7,6(%r7)
 2180 00ca 18E784FF 		e_addi %r7,%r7,-1
 2181 00ce 74E581DE 		e_rlwimi %r5,%r7,16,7,15
 2182 00d2 D756     		se_stw %r5,28(%r6)
 2183              		.loc 1 1784 0
 2184 00d4 C07F     		se_lwz %r7,0(%r31)
 2185              		.loc 1 1785 0
 2186 00d6 C16F     		se_lwz %r6,4(%r31)
 2187              		.loc 1 1784 0
 2188 00d8 8877     		se_lbz %r7,8(%r7)
 2189 00da 2A17     		se_cmpi %r7,1
 2190 00dc 7A1204F4 		e_beq %cr0,.L208
 2191              		.loc 1 1824 0
 2192 00e0 4807     		se_li %r7,0
 2193              		.loc 1 1823 0
 2194 00e2 4885     		se_li %r5,8
 2195              	.L203:
 2196 00e4 9C5F     		se_stb %r5,12(%r31)
 2197              		.loc 1 1824 0
 2198 00e6 50A600BC 		e_lwz %r5,188(%r6)
 2199 00ea 74E5077E 		e_rlwimi %r5,%r7,0,29,31
 2200 00ee 54A600BC 		e_stw %r5,188(%r6)
 2201              		.loc 1 1825 0
 2202 00f2 C16F     		se_lwz %r6,4(%r31)
 2203 00f4 50A600BC 		e_lwz %r5,188(%r6)
 2204 00f8 74E52676 		e_rlwimi %r5,%r7,4,25,27
 2205 00fc 54A600BC 		e_stw %r5,188(%r6)
 2206              		.loc 1 1826 0
 2207 0100 C16F     		se_lwz %r6,4(%r31)
 2208 0102 50A600BC 		e_lwz %r5,188(%r6)
 2209 0106 74E5456E 		e_rlwimi %r5,%r7,8,21,23
 2210 010a 54A600BC 		e_stw %r5,188(%r6)
 2211              		.loc 1 1827 0
 2212 010e C16F     		se_lwz %r6,4(%r31)
 2213 0110 50A600C8 		e_lwz %r5,200(%r6)
 2214 0114 74E5077E 		e_rlwimi %r5,%r7,0,29,31
 2215 0118 54A600C8 		e_stw %r5,200(%r6)
 2216              		.loc 1 1831 0
 2217 011c 4835     		se_li %r5,3
 2218 011e C17F     		se_lwz %r7,4(%r31)
 2219 0120 50C70080 		e_lwz %r6,128(%r7)
 2220 0124 74A626B6 		e_rlwimi %r6,%r5,4,26,27
 2221 0128 54C70080 		e_stw %r6,128(%r7)
 2222              		.loc 1 1835 0
 2223 012c C17F     		se_lwz %r7,4(%r31)
GAS LISTING C:\Users\bayra\AppData\Local\Temp\cc4lF4Vd.s 			page 40


 2224 012e 50C70084 		e_lwz %r6,132(%r7)
 2225 0132 77A6143A 		e_rlwimi %r6,%r29,2,16,29
 2226 0136 54C70084 		e_stw %r6,132(%r7)
 2227              		.loc 1 1836 0
 2228 013a C06F     		se_lwz %r6,0(%r31)
 2229 013c C17F     		se_lwz %r7,4(%r31)
 2230 013e 30C600A0 		e_lbz %r6,160(%r6)
 2231 0142 34C70085 		e_stb %r6,133(%r7)
 2232              		.loc 1 1837 0
 2233 0146 C06F     		se_lwz %r6,0(%r31)
 2234              		.loc 1 1844 0
 2235 0148 C17F     		se_lwz %r7,4(%r31)
 2236              		.loc 1 1837 0
 2237 014a 30A600A0 		e_lbz %r5,160(%r6)
 2238              		.loc 1 1844 0
 2239 014e 50C70088 		e_lwz %r6,136(%r7)
 2240              		.loc 1 1837 0
 2241 0152 6C25     		se_slwi %r5, 2
 2242 0154 7C9E2A14 		add %r4,%r30,%r5
 2243              	.LVL192:
 2244              		.loc 1 1844 0
 2245 0158 7486043A 		e_rlwimi %r6,%r4,0,16,29
 2246 015c 54C70088 		e_stw %r6,136(%r7)
 2247              		.loc 1 1845 0
 2248 0160 C17F     		se_lwz %r7,4(%r31)
 2249 0162 C05F     		se_lwz %r5,0(%r31)
 2250 0164 50C70088 		e_lwz %r6,136(%r7)
 2251 0168 30A500A1 		e_lbz %r5,161(%r5)
 2252 016c 74A6825E 		e_rlwimi %r6,%r5,16,9,15
 2253 0170 54C70088 		e_stw %r6,136(%r7)
 2254              		.loc 1 1846 0
 2255 0174 C06F     		se_lwz %r6,0(%r31)
 2256              		.loc 1 1852 0
 2257 0176 C17F     		se_lwz %r7,4(%r31)
 2258              		.loc 1 1846 0
 2259 0178 30C600A1 		e_lbz %r6,161(%r6)
 2260              		.loc 1 1852 0
 2261 017c 506700A0 		e_lwz %r3,160(%r7)
 2262              		.loc 1 1846 0
 2263 0180 6C36     		se_slwi %r6, 3
 2264 0182 7CA43214 		add %r5,%r4,%r6
 2265              	.LVL193:
 2266              		.loc 1 1852 0
 2267 0186 74A3043A 		e_rlwimi %r3,%r5,0,16,29
 2268 018a 546700A0 		e_stw %r3,160(%r7)
 2269              		.loc 1 1853 0
 2270 018e C17F     		se_lwz %r7,4(%r31)
 2271 0190 C04F     		se_lwz %r4,0(%r31)
 2272 0192 50C700A0 		e_lwz %r6,160(%r7)
 2273 0196 308400A3 		e_lbz %r4,163(%r4)
 2274 019a 7486825E 		e_rlwimi %r6,%r4,16,9,15
 2275 019e 54C700A0 		e_stw %r6,160(%r7)
 2276              		.loc 1 1855 0
 2277 01a2 C07F     		se_lwz %r7,0(%r31)
 2278 01a4 30E70030 		e_lbz %r7,48(%r7)
 2279 01a8 2A17     		se_cmpi %r7,1
 2280              		.loc 1 1856 0
GAS LISTING C:\Users\bayra\AppData\Local\Temp\cc4lF4Vd.s 			page 41


 2281 01aa C17F     		se_lwz %r7,4(%r31)
 2282 01ac 50C700A0 		e_lwz %r6,160(%r7)
 2283              		.loc 1 1855 0
 2284 01b0 7A120412 		e_beq %cr0,.L209
 2285              		.loc 1 1859 0
 2286 01b4 4814     		se_li %r4,1
 2287 01b6 7486F800 		e_rlwimi %r6,%r4,31,0,0
 2288 01ba 54C700A0 		e_stw %r6,160(%r7)
 2289              	.L173:
 2290              		.loc 1 1861 0
 2291 01be C06F     		se_lwz %r6,0(%r31)
 2292 01c0 30E60020 		e_lbz %r7,32(%r6)
 2293 01c4 2A07     		se_cmpi %r7,0
 2294 01c6 7A120014 		e_beq %cr0,.L174
 2295              		.loc 1 1862 0
 2296 01ca C16F     		se_lwz %r6,4(%r31)
 2297 01cc 508600A0 		e_lwz %r4,160(%r6)
 2298 01d0 74E4C04E 		e_rlwimi %r4,%r7,24,1,7
 2299 01d4 548600A0 		e_stw %r4,160(%r6)
 2300 01d8 C06F     		se_lwz %r6,0(%r31)
 2301              	.L174:
 2302              		.loc 1 1864 0
 2303 01da 308600A3 		e_lbz %r4,163(%r6)
 2304 01de 8C7F     		se_lbz %r7,12(%r31)
 2305              		.loc 1 1870 0
 2306 01e0 C13F     		se_lwz %r3,4(%r31)
 2307              		.loc 1 1864 0
 2308 01e2 2077     		se_addi %r7,8
 2309              		.loc 1 1870 0
 2310 01e4 500300B0 		e_lwz %r0,176(%r3)
 2311              		.loc 1 1864 0
 2312 01e8 0547     		se_mullw %r7,%r4
 2313 01ea 7CC53A14 		add %r6,%r5,%r7
 2314              	.LVL194:
 2315              		.loc 1 1870 0
 2316 01ee 74C0043A 		e_rlwimi %r0,%r6,0,16,29
 2317 01f2 540300B0 		e_stw %r0,176(%r3)
 2318              		.loc 1 1871 0
 2319 01f6 C17F     		se_lwz %r7,4(%r31)
 2320 01f8 C04F     		se_lwz %r4,0(%r31)
 2321 01fa 50A700B0 		e_lwz %r5,176(%r7)
 2322 01fe 308400A4 		e_lbz %r4,164(%r4)
 2323 0202 7485825E 		e_rlwimi %r5,%r4,16,9,15
 2324 0206 54A700B0 		e_stw %r5,176(%r7)
 2325              		.loc 1 1873 0
 2326 020a C07F     		se_lwz %r7,0(%r31)
 2327 020c 30E70050 		e_lbz %r7,80(%r7)
 2328 0210 2A17     		se_cmpi %r7,1
 2329              		.loc 1 1874 0
 2330 0212 C17F     		se_lwz %r7,4(%r31)
 2331 0214 50A700B0 		e_lwz %r5,176(%r7)
 2332              		.loc 1 1873 0
 2333 0218 7A12039C 		e_beq %cr0,.L210
 2334              		.loc 1 1877 0
 2335 021c 4814     		se_li %r4,1
 2336 021e 7485F800 		e_rlwimi %r5,%r4,31,0,0
 2337 0222 54A700B0 		e_stw %r5,176(%r7)
GAS LISTING C:\Users\bayra\AppData\Local\Temp\cc4lF4Vd.s 			page 42


 2338              	.L176:
 2339              		.loc 1 1879 0
 2340 0226 C05F     		se_lwz %r5,0(%r31)
 2341 0228 30E50040 		e_lbz %r7,64(%r5)
 2342 022c 2A07     		se_cmpi %r7,0
 2343 022e 7A120014 		e_beq %cr0,.L177
 2344              		.loc 1 1880 0
 2345 0232 C15F     		se_lwz %r5,4(%r31)
 2346 0234 508500B0 		e_lwz %r4,176(%r5)
 2347 0238 74E4C04E 		e_rlwimi %r4,%r7,24,1,7
 2348 023c 548500B0 		e_stw %r4,176(%r5)
 2349 0240 C05F     		se_lwz %r5,0(%r31)
 2350              	.L177:
 2351              		.loc 1 1882 0
 2352 0242 30A500A4 		e_lbz %r5,164(%r5)
 2353              		.loc 1 1888 0
 2354 0246 C14F     		se_lwz %r4,4(%r31)
 2355              		.loc 1 1882 0
 2356 0248 8C7F     		se_lbz %r7,12(%r31)
 2357              		.loc 1 1888 0
 2358 024a 506400AC 		e_lwz %r3,172(%r4)
 2359              		.loc 1 1882 0
 2360 024e 2077     		se_addi %r7,8
 2361 0250 0557     		se_mullw %r7,%r5
 2362 0252 7CE63A14 		add %r7,%r6,%r7
 2363              	.LVL195:
 2364              		.loc 1 1888 0
 2365 0256 74E3043A 		e_rlwimi %r3,%r7,0,16,29
 2366 025a 546400AC 		e_stw %r3,172(%r4)
 2367              	.LVL196:
 2368              		.loc 1 1894 0
 2369 025e 8C6F     		se_lbz %r6,12(%r31)
 2370              		.loc 1 1901 0
 2371 0260 C14F     		se_lwz %r4,4(%r31)
 2372              		.loc 1 1894 0
 2373 0262 C0EF     		se_lwz %r30,0(%r31)
 2374              		.loc 1 1901 0
 2375 0264 506400C0 		e_lwz %r3,192(%r4)
 2376              		.loc 1 1894 0
 2377 0268 18A68008 		e_addi %r5,%r6,8
 2378 026c 30DE00A2 		e_lbz %r6,162(%r30)
 2379 0270 0556     		se_mullw %r6,%r5
 2380 0272 0467     		se_add %r7,%r6
 2381              	.LVL197:
 2382              		.loc 1 1901 0
 2383 0274 74E3043A 		e_rlwimi %r3,%r7,0,16,29
 2384 0278 546400C0 		e_stw %r3,192(%r4)
 2385              		.loc 1 1902 0
 2386 027c C17F     		se_lwz %r7,4(%r31)
 2387 027e C05F     		se_lwz %r5,0(%r31)
 2388 0280 50C700C0 		e_lwz %r6,192(%r7)
 2389 0284 30A500A6 		e_lbz %r5,166(%r5)
 2390 0288 74A6829E 		e_rlwimi %r6,%r5,16,10,15
 2391 028c 54C700C0 		e_stw %r6,192(%r7)
 2392              		.loc 1 1904 0
 2393 0290 C05F     		se_lwz %r5,0(%r31)
 2394 0292 30E500A5 		e_lbz %r7,165(%r5)
GAS LISTING C:\Users\bayra\AppData\Local\Temp\cc4lF4Vd.s 			page 43


 2395 0296 700798FF 		e_cmp16i %r7,255
 2396 029a 7A12003E 		e_beq %cr0,.L178
 2397              		.loc 1 1905 0
 2398 029e 30E500A7 		e_lbz %r7,167(%r5)
 2399 02a2 C16F     		se_lwz %r6,4(%r31)
 2400 02a4 18E7C03F 		e_andi %r7,%r7,63
 2401 02a8 50A600C0 		e_lwz %r5,192(%r6)
 2402 02ac 74E5C08E 		e_rlwimi %r5,%r7,24,2,7
 2403 02b0 54A600C0 		e_stw %r5,192(%r6)
 2404              		.loc 1 1907 0
 2405 02b4 C05F     		se_lwz %r5,0(%r31)
 2406 02b6 30E500A5 		e_lbz %r7,165(%r5)
 2407 02ba 18E7C0FD 		e_andi %r7,%r7,253
 2408 02be 700798FC 		e_cmp16i %r7,252
 2409 02c2 7A020016 		e_bne %cr0,.L178
 2410              		.loc 1 1908 0
 2411 02c6 C17F     		se_lwz %r7,4(%r31)
 2412 02c8 4815     		se_li %r5,1
 2413 02ca 50C700C0 		e_lwz %r6,192(%r7)
 2414 02ce 74A6F042 		e_rlwimi %r6,%r5,30,1,1
 2415 02d2 54C700C0 		e_stw %r6,192(%r7)
 2416 02d6 C05F     		se_lwz %r5,0(%r31)
 2417              	.L178:
 2418              	.LVL198:
 2419              		.loc 1 1914 0 discriminator 1
 2420 02d8 30E500A0 		e_lbz %r7,160(%r5)
 2421 02dc C14F     		se_lwz %r4,4(%r31)
 2422 02de 1865805C 		e_addi %r3,%r5,92
 2423 02e2 480E     		se_li %r30,0
 2424 02e4 2A07     		se_cmpi %r7,0
 2425 02e6 7A120052 		e_beq %cr0,.L180
 2426              	.LVL199:
 2427              	.L181:
 2428              	.LBB18:
 2429              		.loc 1 1919 0 discriminator 3
 2430 02ea 50E3FFFC 		e_lwz %r7,-4(%r3)
 2431              		.loc 1 1918 0 discriminator 3
 2432 02ee 51830000 		e_lwz %r12,0(%r3)
 2433              	.LVL200:
 2434              		.loc 1 1920 0 discriminator 3
 2435 02f2 31230005 		e_lbz %r9,5(%r3)
 2436              		.loc 1 1921 0 discriminator 3
 2437 02f6 31630004 		e_lbz %r11,4(%r3)
 2438              		.loc 1 1922 0 discriminator 3
 2439 02fa 50040084 		e_lwz %r0,132(%r4)
 2440 02fe 511F0008 		e_lwz %r8,8(%r31)
 2441 0302 7FCA1070 		e_slwi %r10,%r30,2
 2442              		.loc 1 1919 0 discriminator 3
 2443 0306 7CE68070 		e_slwi %r6,%r7,16
 2444              		.loc 1 1921 0 discriminator 3
 2445 030a 7D6BF070 		e_slwi %r11,%r11,30
 2446              		.loc 1 1919 0 discriminator 3
 2447 030e 7CC66214 		add %r6,%r6,%r12
 2448              	.LVL201:
 2449              		.loc 1 1920 0 discriminator 3
 2450 0312 7D27D870 		e_slwi %r7,%r9,27
 2451              	.LBE18:
GAS LISTING C:\Users\bayra\AppData\Local\Temp\cc4lF4Vd.s 			page 44


 2452              		.loc 1 1914 0 discriminator 3
 2453 0316 200E     		se_addi %r30,1
 2454              	.LVL202:
 2455              	.LBB19:
 2456              		.loc 1 1920 0 discriminator 3
 2457 0318 7CE63A14 		add %r7,%r6,%r7
 2458              	.LVL203:
 2459 031c 20B3     		se_addi %r3,12
 2460              		.loc 1 1921 0 discriminator 3
 2461 031e 7CE75A14 		add %r7,%r7,%r11
 2462              	.LVL204:
 2463              		.loc 1 1922 0 discriminator 3
 2464 0322 7406043B 		e_rlwinm %r6,%r0,0,16,29
 2465 0326 7CC64214 		add %r6,%r6,%r8
 2466              		.loc 1 1923 0 discriminator 3
 2467 032a 7CE6512E 		stwx %r7,%r6,%r10
 2468              	.LBE19:
 2469              		.loc 1 1914 0 discriminator 3
 2470 032e 30E500A0 		e_lbz %r7,160(%r5)
 2471              	.LVL205:
 2472 0332 0DE7     		se_cmpl %r7,%r30
 2473 0334 7A11FFB6 		e_bgt %cr0,.L181
 2474              	.LVL206:
 2475              	.L180:
 2476              		.loc 1 1927 0 discriminator 1
 2477 0338 30C500A1 		e_lbz %r6,161(%r5)
 2478 033c 18E5807C 		e_addi %r7,%r5,124
 2479 0340 4800     		se_li %r0,0
 2480 0342 2A06     		se_cmpi %r6,0
 2481 0344 7A120052 		e_beq %cr0,.L186
 2482              	.LVL207:
 2483              	.L185:
 2484              	.LBB20:
 2485              		.loc 1 1932 0 discriminator 3
 2486 0348 51270000 		e_lwz %r9,0(%r7)
 2487              	.LVL208:
 2488              		.loc 1 1933 0 discriminator 3
 2489 034c 8937     		se_lbz %r3,9(%r7)
 2490              		.loc 1 1934 0 discriminator 3
 2491 034e 50C40088 		e_lwz %r6,136(%r4)
 2492 0352 C2EF     		se_lwz %r30,8(%r31)
 2493 0354 7C0B1870 		e_slwi %r11,%r0,3
 2494 0358 20B7     		se_addi %r7,12
 2495              		.loc 1 1933 0 discriminator 3
 2496 035a 6DD3     		se_slwi %r3, 29
 2497              		.loc 1 1934 0 discriminator 3
 2498 035c 74C6043B 		e_rlwinm %r6,%r6,0,16,29
 2499              		.loc 1 1933 0 discriminator 3
 2500 0360 7C634A14 		add %r3,%r3,%r9
 2501              	.LVL209:
 2502              		.loc 1 1934 0 discriminator 3
 2503 0364 04E6     		se_add %r6,%r30
 2504              	.LBE20:
 2505              		.loc 1 1927 0 discriminator 3
 2506 0366 2000     		se_addi %r0,1
 2507              	.LVL210:
 2508              	.LBB21:
GAS LISTING C:\Users\bayra\AppData\Local\Temp\cc4lF4Vd.s 			page 45


 2509              		.loc 1 1935 0 discriminator 3
 2510 0368 7C6B312E 		stwx %r3,%r11,%r6
 2511              		.loc 1 1937 0 discriminator 3
 2512 036c 5127FFF8 		e_lwz %r9,-8(%r7)
 2513              	.LVL211:
 2514              		.loc 1 1938 0 discriminator 3
 2515 0370 3067FFFC 		e_lbz %r3,-4(%r7)
 2516              		.loc 1 1939 0 discriminator 3
 2517 0374 53C40088 		e_lwz %r30,136(%r4)
 2518 0378 C26F     		se_lwz %r6,8(%r31)
 2519              		.loc 1 1938 0 discriminator 3
 2520 037a 6DE3     		se_slwi %r3, 30
 2521 037c 2036     		se_addi %r6,4
 2522 037e 7C634A14 		add %r3,%r3,%r9
 2523              	.LVL212:
 2524              		.loc 1 1939 0 discriminator 3
 2525 0382 77DE043B 		e_rlwinm %r30,%r30,0,16,29
 2526              	.LVL213:
 2527 0386 04E6     		se_add %r6,%r30
 2528              		.loc 1 1940 0 discriminator 3
 2529 0388 7C66592E 		stwx %r3,%r6,%r11
 2530              	.LBE21:
 2531              		.loc 1 1927 0 discriminator 3
 2532 038c 30C500A1 		e_lbz %r6,161(%r5)
 2533 0390 0D06     		se_cmpl %r6,%r0
 2534 0392 7A11FFB6 		e_bgt %cr0,.L185
 2535              	.LVL214:
 2536              	.L186:
 2537              		.loc 1 1944 0
 2538 0396 30E50012 		e_lbz %r7,18(%r5)
 2539 039a 700798FF 		e_cmp16i %r7,255
 2540 039e 7A12002A 		e_beq %cr0,.L184
 2541              		.loc 1 1945 0
 2542 03a2 50E40054 		e_lwz %r7,84(%r4)
 2543 03a6 4816     		se_li %r6,1
 2544 03a8 74C79B18 		e_rlwimi %r7,%r6,19,12,12
 2545 03ac 54E40054 		e_stw %r7,84(%r4)
 2546              		.loc 1 1947 0
 2547 03b0 C17F     		se_lwz %r7,4(%r31)
 2548 03b2 C05F     		se_lwz %r5,0(%r31)
 2549 03b4 50C70058 		e_lwz %r6,88(%r7)
 2550 03b8 30A50012 		e_lbz %r5,18(%r5)
 2551 03bc 74A69B18 		e_rlwimi %r6,%r5,19,12,12
 2552 03c0 54C70058 		e_stw %r6,88(%r7)
 2553 03c4 C05F     		se_lwz %r5,0(%r31)
 2554 03c6 C14F     		se_lwz %r4,4(%r31)
 2555              	.L184:
 2556              		.loc 1 1951 0
 2557 03c8 30E50018 		e_lbz %r7,24(%r5)
 2558 03cc 700798FF 		e_cmp16i %r7,255
 2559 03d0 7A12002C 		e_beq %cr0,.L187
 2560              		.loc 1 1952 0
 2561 03d4 30E50019 		e_lbz %r7,25(%r5)
 2562 03d8 2A17     		se_cmpi %r7,1
 2563 03da 7A12029A 		e_beq %cr0,.L211
 2564              	.L188:
 2565              		.loc 1 1956 0
GAS LISTING C:\Users\bayra\AppData\Local\Temp\cc4lF4Vd.s 			page 46


 2566 03de 30E50020 		e_lbz %r7,32(%r5)
 2567 03e2 2A07     		se_cmpi %r7,0
 2568 03e4 7A02014A 		e_bne %cr0,.L212
 2569              		.loc 1 1960 0
 2570 03e8 30E50028 		e_lbz %r7,40(%r5)
 2571 03ec 2A17     		se_cmpi %r7,1
 2572 03ee 7A120170 		e_beq %cr0,.L213
 2573              	.L190:
 2574              		.loc 1 1964 0
 2575 03f2 30E50030 		e_lbz %r7,48(%r5)
 2576 03f6 2A17     		se_cmpi %r7,1
 2577 03f8 7A120194 		e_beq %cr0,.L214
 2578              	.L187:
 2579              		.loc 1 1971 0
 2580 03fc 30E50038 		e_lbz %r7,56(%r5)
 2581 0400 700798FF 		e_cmp16i %r7,255
 2582 0404 7A12002C 		e_beq %cr0,.L191
 2583              		.loc 1 1972 0
 2584 0408 30E50039 		e_lbz %r7,57(%r5)
 2585 040c 2A17     		se_cmpi %r7,1
 2586 040e 7A12028E 		e_beq %cr0,.L215
 2587              	.L192:
 2588              		.loc 1 1976 0
 2589 0412 30E50040 		e_lbz %r7,64(%r5)
 2590 0416 2A07     		se_cmpi %r7,0
 2591 0418 7A020092 		e_bne %cr0,.L216
 2592              		.loc 1 1980 0
 2593 041c 30E50048 		e_lbz %r7,72(%r5)
 2594 0420 2A17     		se_cmpi %r7,1
 2595 0422 7A1200B8 		e_beq %cr0,.L217
 2596              	.L194:
 2597              		.loc 1 1984 0
 2598 0426 30E50050 		e_lbz %r7,80(%r5)
 2599 042a 2A17     		se_cmpi %r7,1
 2600 042c 7A1200DC 		e_beq %cr0,.L218
 2601              	.L191:
 2602              		.loc 1 1991 0
 2603 0430 2C07     		se_bmaski %r7,0
 2604              		.loc 1 1994 0
 2605 0432 4815     		se_li %r5,1
 2606              		.loc 1 1991 0
 2607 0434 54E40098 		e_stw %r7,152(%r4)
 2608              		.loc 1 1992 0
 2609 0438 C16F     		se_lwz %r6,4(%r31)
 2610 043a 54E6009C 		e_stw %r7,156(%r6)
 2611              		.loc 1 1994 0
 2612 043e C17F     		se_lwz %r7,4(%r31)
 2613 0440 50C70054 		e_lwz %r6,84(%r7)
 2614 0444 74A6C98C 		e_rlwimi %r6,%r5,25,6,6
 2615              		.loc 1 1995 0
 2616 0448 4805     		se_li %r5,0
 2617              		.loc 1 1994 0
 2618 044a 54C70054 		e_stw %r6,84(%r7)
 2619              		.loc 1 1995 0
 2620 044e C17F     		se_lwz %r7,4(%r31)
 2621 0450 50C70058 		e_lwz %r6,88(%r7)
 2622 0454 74A6C98C 		e_rlwimi %r6,%r5,25,6,6
GAS LISTING C:\Users\bayra\AppData\Local\Temp\cc4lF4Vd.s 			page 47


 2623 0458 54C70058 		e_stw %r6,88(%r7)
 2624              		.loc 1 2020 0
 2625 045c C07F     		se_lwz %r7,0(%r31)
 2626 045e 50E700A8 		e_lwz %r7,168(%r7)
 2627 0462 2A07     		se_cmpi %r7,0
 2628 0464 7A120012 		e_beq %cr0,.L195
 2629              		.loc 1 2021 0
 2630 0468 C16F     		se_lwz %r6,4(%r31)
 2631 046a 50E60054 		e_lwz %r7,84(%r6)
 2632 046e 70E7D7F6 		e_or2is %r7,0x3ff6
 2633 0472 54E60054 		e_stw %r7,84(%r6)
 2634              	.L195:
 2635              		.loc 1 2025 0
 2636 0476 C17F     		se_lwz %r7,4(%r31)
 2637              		.loc 1 2028 0
 2638 0478 4805     		se_li %r5,0
 2639              		.loc 1 2025 0
 2640 047a 4836     		se_li %r6,3
 2641 047c 54C7005C 		e_stw %r6,92(%r7)
 2642              		.loc 1 2028 0
 2643 0480 C17F     		se_lwz %r7,4(%r31)
 2644 0482 C667     		se_lwz %r6,24(%r7)
 2645 0484 74A6177A 		e_rlwimi %r6,%r5,2,29,29
 2646 0488 D667     		se_stw %r6,24(%r7)
 2647              		.loc 1 2029 0
 2648 048a C17F     		se_lwz %r7,4(%r31)
 2649 048c C667     		se_lwz %r6,24(%r7)
 2650 048e 74A607FE 		e_rlwimi %r6,%r5,0,31,31
 2651 0492 D667     		se_stw %r6,24(%r7)
 2652 0494 C16F     		se_lwz %r6,4(%r31)
 2653              	.L196:
 2654              		.loc 1 2030 0 discriminator 1
 2655 0496 C676     		se_lwz %r7,24(%r6)
 2656 0498 67F7     		se_btsti %r7,31
 2657 049a 7A02FFFC 		e_bne %cr0,.L196
 2658              		.loc 1 2033 0
 2659 049e C701     		se_lwz %r0,28(%r1)
 2660 04a0 0090     		se_mtlr %r0
 2661              		.cfi_remember_state
 2662              		.cfi_restore 65
 2663 04a2 1BA1080C 		e_lmw %r29,12(%r1)
 2664              	.LVL215:
 2665 04a6 2171     		se_addi %r1,24
 2666              	.LCFI21:
 2667              		.cfi_restore 31
 2668              		.cfi_restore 30
 2669              		.cfi_restore 29
 2670              		.cfi_def_cfa_offset 0
 2671 04a8 0004     		se_blr
 2672              	.LVL216:
 2673              	.L216:
 2674              	.LCFI22:
 2675              		.cfi_restore_state
 2676              		.loc 1 1977 0
 2677 04aa 50E40054 		e_lwz %r7,84(%r4)
 2678 04ae 4816     		se_li %r6,1
 2679 04b0 74C72EB4 		e_rlwimi %r7,%r6,5,26,26
GAS LISTING C:\Users\bayra\AppData\Local\Temp\cc4lF4Vd.s 			page 48


 2680 04b4 54E40054 		e_stw %r7,84(%r4)
 2681              		.loc 1 1978 0
 2682 04b8 C17F     		se_lwz %r7,4(%r31)
 2683 04ba C05F     		se_lwz %r5,0(%r31)
 2684 04bc 50C70058 		e_lwz %r6,88(%r7)
 2685 04c0 30A50038 		e_lbz %r5,56(%r5)
 2686 04c4 74A62EB4 		e_rlwimi %r6,%r5,5,26,26
 2687 04c8 54C70058 		e_stw %r6,88(%r7)
 2688 04cc C05F     		se_lwz %r5,0(%r31)
 2689 04ce C14F     		se_lwz %r4,4(%r31)
 2690              		.loc 1 1980 0
 2691 04d0 30E50048 		e_lbz %r7,72(%r5)
 2692 04d4 2A17     		se_cmpi %r7,1
 2693 04d6 7A02FF50 		e_bne %cr0,.L194
 2694              	.L217:
 2695              		.loc 1 1981 0
 2696 04da 50C40054 		e_lwz %r6,84(%r4)
 2697 04de 74E63672 		e_rlwimi %r6,%r7,6,25,25
 2698 04e2 54C40054 		e_stw %r6,84(%r4)
 2699              		.loc 1 1982 0
 2700 04e6 C17F     		se_lwz %r7,4(%r31)
 2701 04e8 C05F     		se_lwz %r5,0(%r31)
 2702 04ea 50C70058 		e_lwz %r6,88(%r7)
 2703 04ee 30A50038 		e_lbz %r5,56(%r5)
 2704 04f2 74A63672 		e_rlwimi %r6,%r5,6,25,25
 2705 04f6 54C70058 		e_stw %r6,88(%r7)
 2706 04fa C05F     		se_lwz %r5,0(%r31)
 2707 04fc C14F     		se_lwz %r4,4(%r31)
 2708              		.loc 1 1984 0
 2709 04fe 30E50050 		e_lbz %r7,80(%r5)
 2710 0502 2A17     		se_cmpi %r7,1
 2711 0504 7A02FF2C 		e_bne %cr0,.L191
 2712              	.L218:
 2713              		.loc 1 1985 0
 2714 0508 50C40054 		e_lwz %r6,84(%r4)
 2715 050c 74E63E30 		e_rlwimi %r6,%r7,7,24,24
 2716 0510 54C40054 		e_stw %r6,84(%r4)
 2717              		.loc 1 1986 0
 2718 0514 C17F     		se_lwz %r7,4(%r31)
 2719 0516 C05F     		se_lwz %r5,0(%r31)
 2720 0518 50C70058 		e_lwz %r6,88(%r7)
 2721 051c 30A50038 		e_lbz %r5,56(%r5)
 2722 0520 74A63E30 		e_rlwimi %r6,%r5,7,24,24
 2723 0524 54C70058 		e_stw %r6,88(%r7)
 2724 0528 C14F     		se_lwz %r4,4(%r31)
 2725 052a 79FFFF06 		e_b .L191
 2726              	.L212:
 2727              		.loc 1 1957 0
 2728 052e 50E40054 		e_lwz %r7,84(%r4)
 2729 0532 4816     		se_li %r6,1
 2730 0534 74C70FBC 		e_rlwimi %r7,%r6,1,30,30
 2731 0538 54E40054 		e_stw %r7,84(%r4)
 2732              		.loc 1 1958 0
 2733 053c C17F     		se_lwz %r7,4(%r31)
 2734 053e C05F     		se_lwz %r5,0(%r31)
 2735 0540 50C70058 		e_lwz %r6,88(%r7)
 2736 0544 30A50018 		e_lbz %r5,24(%r5)
GAS LISTING C:\Users\bayra\AppData\Local\Temp\cc4lF4Vd.s 			page 49


 2737 0548 74A60FBC 		e_rlwimi %r6,%r5,1,30,30
 2738 054c 54C70058 		e_stw %r6,88(%r7)
 2739 0550 C05F     		se_lwz %r5,0(%r31)
 2740 0552 C14F     		se_lwz %r4,4(%r31)
 2741              		.loc 1 1960 0
 2742 0554 30E50028 		e_lbz %r7,40(%r5)
 2743 0558 2A17     		se_cmpi %r7,1
 2744 055a 7A02FE98 		e_bne %cr0,.L190
 2745              	.L213:
 2746              		.loc 1 1961 0
 2747 055e 50C40054 		e_lwz %r6,84(%r4)
 2748 0562 74E6177A 		e_rlwimi %r6,%r7,2,29,29
 2749 0566 54C40054 		e_stw %r6,84(%r4)
 2750              		.loc 1 1962 0
 2751 056a C17F     		se_lwz %r7,4(%r31)
 2752 056c C05F     		se_lwz %r5,0(%r31)
 2753 056e 50C70058 		e_lwz %r6,88(%r7)
 2754 0572 30A50018 		e_lbz %r5,24(%r5)
 2755 0576 74A6177A 		e_rlwimi %r6,%r5,2,29,29
 2756 057a 54C70058 		e_stw %r6,88(%r7)
 2757 057e C05F     		se_lwz %r5,0(%r31)
 2758 0580 C14F     		se_lwz %r4,4(%r31)
 2759              		.loc 1 1964 0
 2760 0582 30E50030 		e_lbz %r7,48(%r5)
 2761 0586 2A17     		se_cmpi %r7,1
 2762 0588 7A02FE74 		e_bne %cr0,.L187
 2763              	.L214:
 2764              		.loc 1 1965 0
 2765 058c 50C40054 		e_lwz %r6,84(%r4)
 2766 0590 74E61F38 		e_rlwimi %r6,%r7,3,28,28
 2767 0594 54C40054 		e_stw %r6,84(%r4)
 2768              		.loc 1 1966 0
 2769 0598 C17F     		se_lwz %r7,4(%r31)
 2770 059a C05F     		se_lwz %r5,0(%r31)
 2771 059c 50C70058 		e_lwz %r6,88(%r7)
 2772 05a0 30A50018 		e_lbz %r5,24(%r5)
 2773 05a4 74A61F38 		e_rlwimi %r6,%r5,3,28,28
 2774 05a8 54C70058 		e_stw %r6,88(%r7)
 2775 05ac C05F     		se_lwz %r5,0(%r31)
 2776 05ae C14F     		se_lwz %r4,4(%r31)
 2777 05b0 79FFFE4C 		e_b .L187
 2778              	.LVL217:
 2779              	.L210:
 2780              		.loc 1 1874 0
 2781 05b4 4804     		se_li %r4,0
 2782 05b6 7485F800 		e_rlwimi %r5,%r4,31,0,0
 2783 05ba 54A700B0 		e_stw %r5,176(%r7)
 2784 05be 79FFFC68 		e_b .L176
 2785              	.LVL218:
 2786              	.L209:
 2787              		.loc 1 1856 0
 2788 05c2 4804     		se_li %r4,0
 2789 05c4 7486F800 		e_rlwimi %r6,%r4,31,0,0
 2790 05c8 54C700A0 		e_stw %r6,160(%r7)
 2791 05cc 79FFFBF2 		e_b .L173
 2792              	.LVL219:
 2793              	.L208:
GAS LISTING C:\Users\bayra\AppData\Local\Temp\cc4lF4Vd.s 			page 50


 2794              		.loc 1 1785 0
 2795 05d0 C656     		se_lwz %r5,24(%r6)
 2796 05d2 74E545EE 		e_rlwimi %r5,%r7,8,23,23
 2797 05d6 D656     		se_stw %r5,24(%r6)
 2798              		.loc 1 1786 0
 2799 05d8 C07F     		se_lwz %r7,0(%r31)
 2800 05da 8977     		se_lbz %r7,9(%r7)
 2801 05dc 2A17     		se_cmpi %r7,1
 2802 05de 7A12013C 		e_beq %cr0,.L219
 2803              		.loc 1 1790 0
 2804 05e2 C17F     		se_lwz %r7,4(%r31)
 2805 05e4 4805     		se_li %r5,0
 2806 05e6 C667     		se_lwz %r6,24(%r7)
 2807 05e8 74A64DAC 		e_rlwimi %r6,%r5,9,22,22
 2808 05ec D667     		se_stw %r6,24(%r7)
 2809              	.L168:
 2810              		.loc 1 1794 0
 2811 05ee C17F     		se_lwz %r7,4(%r31)
 2812 05f0 C05F     		se_lwz %r5,0(%r31)
 2813 05f2 C367     		se_lwz %r6,12(%r7)
 2814 05f4 8A55     		se_lbz %r5,10(%r5)
 2815 05f6 74A6073E 		e_rlwimi %r6,%r5,0,28,31
 2816 05fa D367     		se_stw %r6,12(%r7)
 2817              		.loc 1 1795 0
 2818 05fc C17F     		se_lwz %r7,4(%r31)
 2819 05fe C05F     		se_lwz %r5,0(%r31)
 2820 0600 C367     		se_lwz %r6,12(%r7)
 2821 0602 8B55     		se_lbz %r5,11(%r5)
 2822 0604 74A644EE 		e_rlwimi %r6,%r5,8,19,23
 2823 0608 D367     		se_stw %r6,12(%r7)
 2824              		.loc 1 1796 0
 2825 060a C17F     		se_lwz %r7,4(%r31)
 2826 060c C05F     		se_lwz %r5,0(%r31)
 2827 060e C367     		se_lwz %r6,12(%r7)
 2828 0610 8C55     		se_lbz %r5,12(%r5)
 2829 0612 74A62636 		e_rlwimi %r6,%r5,4,24,27
 2830 0616 D367     		se_stw %r6,12(%r7)
 2831              		.loc 1 1797 0
 2832 0618 C16F     		se_lwz %r6,4(%r31)
 2833 061a C07F     		se_lwz %r7,0(%r31)
 2834 061c C356     		se_lwz %r5,12(%r6)
 2835 061e 8D77     		se_lbz %r7,13(%r7)
 2836 0620 18E784FF 		e_addi %r7,%r7,-1
 2837 0624 74E582DE 		e_rlwimi %r5,%r7,16,11,15
 2838 0628 D356     		se_stw %r5,12(%r6)
 2839              		.loc 1 1800 0
 2840 062a C07F     		se_lwz %r7,0(%r31)
 2841              		.loc 1 1801 0
 2842 062c C16F     		se_lwz %r6,4(%r31)
 2843              		.loc 1 1800 0
 2844 062e 8E77     		se_lbz %r7,14(%r7)
 2845 0630 2A17     		se_cmpi %r7,1
 2846 0632 7A1200A2 		e_beq %cr0,.L220
 2847              		.loc 1 1807 0
 2848 0636 C356     		se_lwz %r5,12(%r6)
 2849 0638 4807     		se_li %r7,0
 2850 063a 74E5BA10 		e_rlwimi %r5,%r7,23,8,8
GAS LISTING C:\Users\bayra\AppData\Local\Temp\cc4lF4Vd.s 			page 51


 2851 063e D356     		se_stw %r5,12(%r6)
 2852              		.loc 1 1808 0
 2853 0640 C16F     		se_lwz %r6,4(%r31)
 2854 0642 50A60044 		e_lwz %r5,68(%r6)
 2855 0646 74E5825E 		e_rlwimi %r5,%r7,16,9,15
 2856 064a 54A60044 		e_stw %r5,68(%r6)
 2857              		.loc 1 1809 0
 2858 064e C16F     		se_lwz %r6,4(%r31)
 2859 0650 50A60048 		e_lwz %r5,72(%r6)
 2860 0654 74E5446E 		e_rlwimi %r5,%r7,8,17,23
 2861 0658 54A60048 		e_stw %r5,72(%r6)
 2862              		.loc 1 1810 0
 2863 065c C16F     		se_lwz %r6,4(%r31)
 2864 065e 50A60048 		e_lwz %r5,72(%r6)
 2865 0662 74E5067E 		e_rlwimi %r5,%r7,0,25,31
 2866 0666 54A60048 		e_stw %r5,72(%r6)
 2867              	.L170:
 2868              		.loc 1 1815 0
 2869 066a C16F     		se_lwz %r6,4(%r31)
 2870 066c 4877     		se_li %r7,7
 2871              		.loc 1 1814 0
 2872 066e 4C05     		se_li %r5,64
 2873 0670 79FFFA74 		e_b .L203
 2874              	.LVL220:
 2875              	.L211:
 2876              		.loc 1 1953 0
 2877 0674 50C40054 		e_lwz %r6,84(%r4)
 2878 0678 74E607FE 		e_rlwimi %r6,%r7,0,31,31
 2879 067c 54C40054 		e_stw %r6,84(%r4)
 2880              		.loc 1 1954 0
 2881 0680 C17F     		se_lwz %r7,4(%r31)
 2882 0682 C05F     		se_lwz %r5,0(%r31)
 2883 0684 50C70058 		e_lwz %r6,88(%r7)
 2884 0688 30A50018 		e_lbz %r5,24(%r5)
 2885 068c 74A607FE 		e_rlwimi %r6,%r5,0,31,31
 2886 0690 54C70058 		e_stw %r6,88(%r7)
 2887 0694 C05F     		se_lwz %r5,0(%r31)
 2888 0696 C14F     		se_lwz %r4,4(%r31)
 2889 0698 79FFFD46 		e_b .L188
 2890              	.L215:
 2891              		.loc 1 1973 0
 2892 069c 50C40054 		e_lwz %r6,84(%r4)
 2893 06a0 74E626F6 		e_rlwimi %r6,%r7,4,27,27
 2894 06a4 54C40054 		e_stw %r6,84(%r4)
 2895              		.loc 1 1974 0
 2896 06a8 C17F     		se_lwz %r7,4(%r31)
 2897 06aa C05F     		se_lwz %r5,0(%r31)
 2898 06ac 50C70058 		e_lwz %r6,88(%r7)
 2899 06b0 30A50038 		e_lbz %r5,56(%r5)
 2900 06b4 74A626F6 		e_rlwimi %r6,%r5,4,27,27
 2901 06b8 54C70058 		e_stw %r6,88(%r7)
 2902 06bc C05F     		se_lwz %r5,0(%r31)
 2903 06be C14F     		se_lwz %r4,4(%r31)
 2904 06c0 79FFFD52 		e_b .L192
 2905              	.LVL221:
 2906              	.L207:
 2907              		.loc 1 1755 0
GAS LISTING C:\Users\bayra\AppData\Local\Temp\cc4lF4Vd.s 			page 52


 2908 06c4 C17F     		se_lwz %r7,4(%r31)
 2909 06c6 C657     		se_lwz %r5,24(%r7)
 2910 06c8 74C52EB4 		e_rlwimi %r5,%r6,5,26,26
 2911 06cc D657     		se_stw %r5,24(%r7)
 2912 06ce C07F     		se_lwz %r7,0(%r31)
 2913 06d0 79FFF9CE 		e_b .L165
 2914              	.L220:
 2915              		.loc 1 1801 0
 2916 06d4 C356     		se_lwz %r5,12(%r6)
 2917 06d6 74E5BA10 		e_rlwimi %r5,%r7,23,8,8
 2918 06da D356     		se_stw %r5,12(%r6)
 2919              		.loc 1 1802 0
 2920 06dc C17F     		se_lwz %r7,4(%r31)
 2921 06de C05F     		se_lwz %r5,0(%r31)
 2922 06e0 50C70044 		e_lwz %r6,68(%r7)
 2923 06e4 8F55     		se_lbz %r5,15(%r5)
 2924 06e6 74A6825E 		e_rlwimi %r6,%r5,16,9,15
 2925 06ea 54C70044 		e_stw %r6,68(%r7)
 2926              		.loc 1 1803 0
 2927 06ee C17F     		se_lwz %r7,4(%r31)
 2928 06f0 C05F     		se_lwz %r5,0(%r31)
 2929 06f2 50C70048 		e_lwz %r6,72(%r7)
 2930 06f6 30A50010 		e_lbz %r5,16(%r5)
 2931 06fa 74A6446E 		e_rlwimi %r6,%r5,8,17,23
 2932 06fe 54C70048 		e_stw %r6,72(%r7)
 2933              		.loc 1 1804 0
 2934 0702 C17F     		se_lwz %r7,4(%r31)
 2935 0704 C05F     		se_lwz %r5,0(%r31)
 2936 0706 50C70048 		e_lwz %r6,72(%r7)
 2937 070a 30A50011 		e_lbz %r5,17(%r5)
 2938 070e 74A6067E 		e_rlwimi %r6,%r5,0,25,31
 2939 0712 54C70048 		e_stw %r6,72(%r7)
 2940 0716 79FFFF54 		e_b .L170
 2941              	.L219:
 2942              		.loc 1 1787 0
 2943 071a C16F     		se_lwz %r6,4(%r31)
 2944 071c C656     		se_lwz %r5,24(%r6)
 2945 071e 74E54DAC 		e_rlwimi %r5,%r7,9,22,22
 2946 0722 D656     		se_stw %r5,24(%r6)
 2947 0724 79FFFECA 		e_b .L168
 2948              	.LVL222:
 2949              	.L204:
 2950              		.loc 1 1602 0
 2951 0728 4C33     		se_li %r3,67
 2952              	.LVL223:
 2953 072a 4924     		se_li %r4,18
 2954              	.LVL224:
 2955              		.loc 1 1601 0
 2956 072c 70FEE7ED 		e_lis %r7,0xf7ed
 2957              	.L202:
 2958              		.loc 1 1623 0
 2959 0730 6517     		se_bseti %r7,17
 2960              		.loc 1 1624 0
 2961 0732 480D     		se_li %r29,0
 2962              		.loc 1 1623 0
 2963 0734 D27F     		se_stw %r7,8(%r31)
 2964              		.loc 1 1624 0
GAS LISTING C:\Users\bayra\AppData\Local\Temp\cc4lF4Vd.s 			page 53


 2965 0736 480E     		se_li %r30,0
 2966 0738 78000001 		e_bl SPCSetPeripheralClockMode
 2967              	.LVL225:
 2968 073c 79FFF902 		e_b .L161
 2969              	.LVL226:
 2970              	.L205:
 2971 0740 706000C6 		e_li %r3,198
 2972              	.LVL227:
 2973 0744 4924     		se_li %r4,18
 2974              	.LVL228:
 2975              		.loc 1 1623 0
 2976 0746 70FFE3ED 		e_lis %r7,0xfbed
 2977 074a 79FFFFE6 		e_b .L202
 2978              	.LVL229:
 2979              	.L206:
 2980              		.loc 1 1631 0
 2981 074e 706000C5 		e_li %r3,197
 2982              	.LVL230:
 2983 0752 4924     		se_li %r4,18
 2984              	.LVL231:
 2985              		.loc 1 1630 0
 2986 0754 70FFE3ED 		e_lis %r7,0xfbed
 2987              		.loc 1 1631 0
 2988 0758 73A003E0 		e_li %r29,992
 2989              		.loc 1 1630 0
 2990 075c 6517     		se_bseti %r7,17
 2991              		.loc 1 1629 0
 2992 075e 73C10780 		e_li %r30,3968
 2993              		.loc 1 1630 0
 2994 0762 D27F     		se_stw %r7,8(%r31)
 2995              		.loc 1 1631 0
 2996 0764 78000001 		e_bl SPCSetPeripheralClockMode
 2997              	.LVL232:
 2998 0768 79FFF8D6 		e_b .L161
 2999              		.cfi_endproc
 3000              	.LFE16:
 3001              		.size	can_lld_start, .-can_lld_start
 3002              		.section	.text.can_lld_stop,"axv",@progbits
 3003              		.align 1
 3004              		.p2align 4,,15
 3005              		.globl can_lld_stop
 3006              		.type	can_lld_stop, @function
 3007              	can_lld_stop:
 3008              	.LFB17:
 3009              		.loc 1 2042 0
 3010              		.cfi_startproc
 3011              	.LVL233:
 3012 0000 182106F0 		e_stwu %r1,-16(%r1)
 3013              	.LCFI23:
 3014              		.cfi_def_cfa_offset 16
 3015              		.loc 1 2052 0
 3016 0004 4806     		se_li %r6,0
 3017              		.loc 1 2042 0
 3018 0006 D3F1     		se_stw %r31,12(%r1)
 3019 0008 0080     		se_mflr %r0
 3020              		.loc 1 2049 0
 3021 000a 4814     		se_li %r4,1
GAS LISTING C:\Users\bayra\AppData\Local\Temp\cc4lF4Vd.s 			page 54


 3022              		.loc 1 2042 0
 3023 000c D501     		se_stw %r0,20(%r1)
 3024              		.cfi_offset 31, -4
 3025              		.cfi_offset 65, 4
 3026              		.loc 1 2042 0
 3027 000e 013F     		se_mr %r31,%r3
 3028              		.loc 1 2049 0
 3029 0010 C173     		se_lwz %r7,4(%r3)
 3030 0012 C657     		se_lwz %r5,24(%r7)
 3031 0014 748507FE 		e_rlwimi %r5,%r4,0,31,31
 3032 0018 D657     		se_stw %r5,24(%r7)
 3033              		.loc 1 2079 0
 3034 001a 70E0E000 		e_lis %r7,.LANCHOR0@ha
 3035 001e 1CE70000 		e_la %r7,.LANCHOR0@l(%r7)
 3036 0022 0C73     		se_cmp %r3,%r7
 3037              		.loc 1 2052 0
 3038 0024 C173     		se_lwz %r7,4(%r3)
 3039 0026 54C70054 		e_stw %r6,84(%r7)
 3040              		.loc 1 2053 0
 3041 002a C173     		se_lwz %r7,4(%r3)
 3042 002c 54C7005C 		e_stw %r6,92(%r7)
 3043              		.loc 1 2054 0
 3044 0030 C173     		se_lwz %r7,4(%r3)
 3045 0032 54C70058 		e_stw %r6,88(%r7)
 3046              		.loc 1 2079 0
 3047 0036 7A12002E 		e_beq %cr0,.L232
 3048              		.loc 1 2100 0
 3049 003a 70E0E000 		e_lis %r7,.LANCHOR1@ha
 3050 003e 1CE70000 		e_la %r7,.LANCHOR1@l(%r7)
 3051 0042 0C73     		se_cmp %r3,%r7
 3052 0044 7A12004C 		e_beq %cr0,.L233
 3053              		.loc 1 2107 0
 3054 0048 70E0E000 		e_lis %r7,.LANCHOR2@ha
 3055 004c 1CE70000 		e_la %r7,.LANCHOR2@l(%r7)
 3056 0050 0C73     		se_cmp %r3,%r7
 3057 0052 7A120052 		e_beq %cr0,.L234
 3058              		.loc 1 2206 0
 3059 0056 C501     		se_lwz %r0,20(%r1)
 3060 0058 0090     		se_mtlr %r0
 3061              		.cfi_remember_state
 3062              		.cfi_restore 65
 3063              		.loc 1 2205 0
 3064 005a 4807     		se_li %r7,0
 3065 005c D07F     		se_stw %r7,0(%r31)
 3066              		.loc 1 2206 0
 3067 005e C3F1     		se_lwz %r31,12(%r1)
 3068 0060 20F1     		se_addi %r1,16
 3069              	.LCFI24:
 3070              		.cfi_restore 31
 3071              		.cfi_def_cfa_offset 0
 3072 0062 0004     		se_blr
 3073              	.L232:
 3074              	.LCFI25:
 3075              		.cfi_restore_state
 3076              	.LVL234:
 3077              		.loc 1 2082 0
 3078 0064 4C33     		se_li %r3,67
GAS LISTING C:\Users\bayra\AppData\Local\Temp\cc4lF4Vd.s 			page 55


 3079              	.LVL235:
 3080 0066 4804     		se_li %r4,0
 3081 0068 78000001 		e_bl SPCSetPeripheralClockMode
 3082              	.LVL236:
 3083              		.loc 1 2080 0
 3084 006c 70FEE7ED 		e_lis %r7,0xf7ed
 3085 0070 6517     		se_bseti %r7,17
 3086              	.LVL237:
 3087              	.L223:
 3088              		.loc 1 2201 0 discriminator 3
 3089 0072 70A003E0 		e_li %r5,992
 3090 0076 4806     		se_li %r6,0
 3091 0078 00B5     		se_mtctr %r5
 3092              	.LVL238:
 3093              	.L226:
 3094 007a D067     		se_stw %r6,0(%r7)
 3095 007c 2037     		se_addi %r7,4
 3096              	.LVL239:
 3097              		.loc 1 2199 0 discriminator 3
 3098 007e 7A20FFFC 		e_bdnz .L226
 3099              		.loc 1 2206 0
 3100 0082 C501     		se_lwz %r0,20(%r1)
 3101 0084 0090     		se_mtlr %r0
 3102              		.cfi_remember_state
 3103              		.cfi_restore 65
 3104              		.loc 1 2205 0
 3105 0086 4807     		se_li %r7,0
 3106              	.LVL240:
 3107 0088 D07F     		se_stw %r7,0(%r31)
 3108              		.loc 1 2206 0
 3109 008a C3F1     		se_lwz %r31,12(%r1)
 3110              	.LVL241:
 3111 008c 20F1     		se_addi %r1,16
 3112              	.LCFI26:
 3113              		.cfi_restore 31
 3114              		.cfi_def_cfa_offset 0
 3115 008e 0004     		se_blr
 3116              	.LVL242:
 3117              	.L233:
 3118              	.LCFI27:
 3119              		.cfi_restore_state
 3120              		.loc 1 2103 0
 3121 0090 706000C6 		e_li %r3,198
 3122              	.LVL243:
 3123 0094 4804     		se_li %r4,0
 3124 0096 78000001 		e_bl SPCSetPeripheralClockMode
 3125              	.LVL244:
 3126              		.loc 1 2101 0
 3127 009a 70FFE3ED 		e_lis %r7,0xfbed
 3128 009e 6517     		se_bseti %r7,17
 3129 00a0 79FFFFD2 		e_b .L223
 3130              	.LVL245:
 3131              	.L234:
 3132              		.loc 1 2110 0
 3133 00a4 706000C5 		e_li %r3,197
 3134              	.LVL246:
 3135 00a8 4804     		se_li %r4,0
GAS LISTING C:\Users\bayra\AppData\Local\Temp\cc4lF4Vd.s 			page 56


 3136 00aa 78000001 		e_bl SPCSetPeripheralClockMode
 3137              	.LVL247:
 3138              		.loc 1 2108 0
 3139 00ae 70FFE3ED 		e_lis %r7,0xfbed
 3140 00b2 70E9C780 		e_or2i %r7,20352
 3141 00b6 79FFFFBC 		e_b .L223
 3142              		.cfi_endproc
 3143              	.LFE17:
 3144              		.size	can_lld_stop, .-can_lld_stop
 3145              		.section	.text.can_lld_transmit,"axv",@progbits
 3146              		.align 1
 3147              		.p2align 4,,15
 3148              		.globl can_lld_transmit
 3149              		.type	can_lld_transmit, @function
 3150              	can_lld_transmit:
 3151              	.LFB18:
 3152              		.loc 1 2219 0
 3153              		.cfi_startproc
 3154              	.LVL248:
 3155 0000 182106E8 		e_stwu %r1,-24(%r1)
 3156              	.LCFI28:
 3157              		.cfi_def_cfa_offset 24
 3158 0004 0080     		se_mflr %r0
 3159 0006 1BA1090C 		e_stmw %r29,12(%r1)
 3160 000a D701     		se_stw %r0,28(%r1)
 3161              		.cfi_offset 65, 4
 3162              		.cfi_offset 29, -12
 3163              		.cfi_offset 30, -8
 3164              		.cfi_offset 31, -4
 3165              		.loc 1 2219 0
 3166 000c 013D     		se_mr %r29,%r3
 3167 000e 015E     		se_mr %r30,%r5
 3168              		.loc 1 2227 0
 3169 0010 8835     		se_lbz %r3,8(%r5)
 3170              	.LVL249:
 3171              		.loc 1 2219 0
 3172 0012 014F     		se_mr %r31,%r4
 3173              		.loc 1 2227 0
 3174 0014 2273     		se_cmpli %r3,8
 3175 0016 7A01001E 		e_ble %cr0,.L236
 3176              		.loc 1 2227 0 is_stmt 0 discriminator 1
 3177 001a C05D     		se_lwz %r5,0(%r29)
 3178              	.LVL250:
 3179              		.loc 1 2228 0 is_stmt 1 discriminator 1
 3180 001c 4836     		se_li %r6,3
 3181              		.loc 1 2227 0 discriminator 1
 3182 001e 8855     		se_lbz %r5,8(%r5)
 3183 0020 2A05     		se_cmpi %r5,0
 3184 0022 7A020012 		e_bne %cr0,.L236
 3185              	.LVL251:
 3186              	.L237:
 3187              		.loc 1 2301 0
 3188 0026 C701     		se_lwz %r0,28(%r1)
 3189 0028 0090     		se_mtlr %r0
 3190              		.cfi_remember_state
 3191              		.cfi_restore 65
 3192 002a 1BA1080C 		e_lmw %r29,12(%r1)
GAS LISTING C:\Users\bayra\AppData\Local\Temp\cc4lF4Vd.s 			page 57


 3193              	.LVL252:
 3194 002e 0163     		se_mr %r3,%r6
 3195 0030 2171     		se_addi %r1,24
 3196              	.LCFI29:
 3197              		.cfi_restore 31
 3198              		.cfi_restore 30
 3199              		.cfi_restore 29
 3200              		.cfi_def_cfa_offset 0
 3201 0032 0004     		se_blr
 3202              	.LVL253:
 3203              	.L236:
 3204              	.LCFI30:
 3205              		.cfi_restore_state
 3206              		.loc 1 2232 0
 3207 0034 78000001 		e_bl can_lld_getDLC
 3208              	.LVL254:
 3209              		.loc 1 2228 0
 3210 0038 4836     		se_li %r6,3
 3211              		.loc 1 2232 0
 3212 003a 2A03     		se_cmpi %r3,0
 3213 003c 7A12FFEA 		e_beq %cr0,.L237
 3214              		.loc 1 2237 0
 3215 0040 701FA8FB 		e_cmpl16i %r31,251
 3216 0044 7A12005A 		e_beq %cr0,.L261
 3217              		.loc 1 2251 0
 3218 0048 701FA8FC 		e_cmpl16i %r31,252
 3219 004c 7A1200B4 		e_beq %cr0,.L262
 3220              		.loc 1 2266 0
 3221 0050 C05D     		se_lwz %r5,0(%r29)
 3222              		.loc 1 2239 0
 3223 0052 4826     		se_li %r6,2
 3224              		.loc 1 2266 0
 3225 0054 30E500A5 		e_lbz %r7,165(%r5)
 3226 0058 2047     		se_addi %r7,5
 3227 005a 00C7     		se_extzb %r7
 3228 005c 2207     		se_cmpli %r7,1
 3229 005e 7A01FFC8 		e_ble %cr0,.L237
 3230              		.loc 1 2270 0
 3231 0062 701FA8FF 		e_cmpl16i %r31,255
 3232 0066 7A120064 		e_beq %cr0,.L263
 3233              		.loc 1 2280 0
 3234 006a C17D     		se_lwz %r7,4(%r29)
 3235              		.loc 1 2288 0
 3236 006c 4816     		se_li %r6,1
 3237              		.loc 1 2280 0
 3238 006e 50E700CC 		e_lwz %r7,204(%r7)
 3239 0072 40F7     		se_srw %r7,%r31
 3240 0074 67F7     		se_btsti %r7,31
 3241 0076 7A02FFB0 		e_bne %cr0,.L237
 3242              		.loc 1 2281 0
 3243 007a 00CF     		se_extzb %r31
 3244              	.LVL255:
 3245              		.loc 1 2287 0
 3246 007c 701FA8FF 		e_cmpl16i %r31,255
 3247 0080 7A12FFA6 		e_beq %cr0,.L237
 3248              	.LVL256:
 3249              	.L245:
GAS LISTING C:\Users\bayra\AppData\Local\Temp\cc4lF4Vd.s 			page 58


 3250              		.loc 1 2293 0
 3251 0084 01E5     		se_mr %r5,%r30
 3252 0086 01D3     		se_mr %r3,%r29
 3253 0088 01F4     		se_mr %r4,%r31
 3254 008a 78000001 		e_bl can_lld_writeTxBuffer
 3255              	.LVL257:
 3256              		.loc 1 2296 0
 3257 008e C15D     		se_lwz %r5,4(%r29)
 3258 0090 4817     		se_li %r7,1
 3259              		.loc 1 2300 0
 3260 0092 4806     		se_li %r6,0
 3261              		.loc 1 2296 0
 3262 0094 42F7     		se_slw %r7, %r31
 3263 0096 54E500D0 		e_stw %r7,208(%r5)
 3264              		.loc 1 2300 0
 3265 009a 79FFFF8C 		e_b .L237
 3266              	.LVL258:
 3267              	.L261:
 3268              		.loc 1 2238 0
 3269 009e C07D     		se_lwz %r7,0(%r29)
 3270              		.loc 1 2239 0
 3271 00a0 4826     		se_li %r6,2
 3272              		.loc 1 2238 0
 3273 00a2 30E700A5 		e_lbz %r7,165(%r7)
 3274 00a6 2047     		se_addi %r7,5
 3275 00a8 70E0C8FD 		e_and2i. %r7,253
 3276 00ac 7A02FF7A 		e_bne %cr0,.L237
 3277              	.L260:
 3278              		.loc 1 2259 0
 3279 00b0 C15D     		se_lwz %r5,4(%r29)
 3280              		.loc 1 2288 0
 3281 00b2 4816     		se_li %r6,1
 3282              		.loc 1 2259 0
 3283 00b4 50E500C4 		e_lwz %r7,196(%r5)
 3284 00b8 66A7     		se_btsti %r7,10
 3285 00ba 7A02FF6C 		e_bne %cr0,.L237
 3286              		.loc 1 2260 0
 3287 00be 53E500C4 		e_lwz %r31,196(%r5)
 3288              	.LVL259:
 3289 00c2 77FF86FF 		e_rlwinm %r31,%r31,16,27,31
 3290              	.LVL260:
 3291 00c6 79FFFFBE 		e_b .L245
 3292              	.LVL261:
 3293              	.L263:
 3294              		.loc 1 2271 0 discriminator 1
 3295 00ca 30C500A6 		e_lbz %r6,166(%r5)
 3296 00ce 2A06     		se_cmpi %r6,0
 3297 00d0 7A12002A 		e_beq %cr0,.L253
 3298              		.loc 1 2272 0
 3299 00d4 C15D     		se_lwz %r5,4(%r29)
 3300 00d6 50E500CC 		e_lwz %r7,204(%r5)
 3301 00da 67F7     		se_btsti %r7,31
 3302 00dc 4807     		se_li %r7,0
 3303 00de 7A12003A 		e_beq %cr0,.L242
 3304 00e2 00B6     		se_mtctr %r6
 3305 00e4 78000010 		e_b .L243
 3306              	.LVL262:
GAS LISTING C:\Users\bayra\AppData\Local\Temp\cc4lF4Vd.s 			page 59


 3307              	.L244:
 3308 00e8 50C500CC 		e_lwz %r6,204(%r5)
 3309 00ec 4076     		se_srw %r6,%r7
 3310 00ee 67F6     		se_btsti %r6,31
 3311 00f0 7A120028 		e_beq %cr0,.L242
 3312              	.LVL263:
 3313              	.L243:
 3314              		.loc 1 2271 0 discriminator 2
 3315 00f4 2007     		se_addi %r7,1
 3316              	.LVL264:
 3317 00f6 7A20FFF2 		e_bdnz .L244
 3318              	.LVL265:
 3319              	.L253:
 3320              		.loc 1 2288 0
 3321 00fa 4816     		se_li %r6,1
 3322 00fc 79FFFF2A 		e_b .L237
 3323              	.L262:
 3324              		.loc 1 2252 0
 3325 0100 C07D     		se_lwz %r7,0(%r29)
 3326              		.loc 1 2239 0
 3327 0102 4826     		se_li %r6,2
 3328              		.loc 1 2252 0
 3329 0104 30E700A5 		e_lbz %r7,165(%r7)
 3330 0108 18E7C0FD 		e_andi %r7,%r7,253
 3331 010c 700798FC 		e_cmp16i %r7,252
 3332 0110 7A02FF16 		e_bne %cr0,.L237
 3333 0114 79FFFF9C 		e_b .L260
 3334              	.L242:
 3335              		.loc 1 2273 0
 3336 0118 74FF063F 		e_rlwinm %r31,%r7,0,0xff
 3337              	.LVL266:
 3338              		.loc 1 2274 0
 3339 011c 79FFFF68 		e_b .L245
 3340              		.cfi_endproc
 3341              	.LFE18:
 3342              		.size	can_lld_transmit, .-can_lld_transmit
 3343              		.section	.text.can_lld_receive,"axv",@progbits
 3344              		.align 1
 3345              		.p2align 4,,15
 3346              		.globl can_lld_receive
 3347              		.type	can_lld_receive, @function
 3348              	can_lld_receive:
 3349              	.LFB19:
 3350              		.loc 1 2314 0
 3351              		.cfi_startproc
 3352              	.LVL267:
 3353 0000 182106F0 		e_stwu %r1,-16(%r1)
 3354              	.LCFI31:
 3355              		.cfi_def_cfa_offset 16
 3356 0004 0080     		se_mflr %r0
 3357 0006 1BC10908 		e_stmw %r30,8(%r1)
 3358 000a D501     		se_stw %r0,20(%r1)
 3359              		.cfi_offset 65, 4
 3360              		.cfi_offset 30, -8
 3361              		.cfi_offset 31, -4
 3362              		.loc 1 2314 0
 3363 000c 0147     		se_mr %r7,%r4
GAS LISTING C:\Users\bayra\AppData\Local\Temp\cc4lF4Vd.s 			page 60


 3364 000e 013E     		se_mr %r30,%r3
 3365 0010 0156     		se_mr %r6,%r5
 3366              		.loc 1 2321 0
 3367 0012 7004A8FD 		e_cmpl16i %r4,253
 3368 0016 7A120026 		e_beq %cr0,.L282
 3369              		.loc 1 2336 0
 3370 001a 7004A8FE 		e_cmpl16i %r4,254
 3371 001e 7A12005E 		e_beq %cr0,.L283
 3372              		.loc 1 2352 0
 3373 0022 C143     		se_lwz %r4,4(%r3)
 3374              	.LVL268:
 3375 0024 50640050 		e_lwz %r3,80(%r4)
 3376              	.LVL269:
 3377 0028 66C3     		se_btsti %r3,12
 3378 002a 7A020094 		e_bne %cr0,.L284
 3379              	.LVL270:
 3380              	.L269:
 3381              		.loc 1 2331 0
 3382 002e 4813     		se_li %r3,1
 3383              	.LVL271:
 3384              	.L281:
 3385              		.loc 1 2403 0
 3386 0030 C501     		se_lwz %r0,20(%r1)
 3387 0032 0090     		se_mtlr %r0
 3388              		.cfi_remember_state
 3389              		.cfi_restore 65
 3390 0034 1BC10808 		e_lmw %r30,8(%r1)
 3391              	.LVL272:
 3392 0038 20F1     		se_addi %r1,16
 3393              	.LCFI32:
 3394              		.cfi_restore 31
 3395              		.cfi_restore 30
 3396              		.cfi_def_cfa_offset 0
 3397 003a 0004     		se_blr
 3398              	.LVL273:
 3399              	.L282:
 3400              	.LCFI33:
 3401              		.cfi_restore_state
 3402              		.loc 1 2322 0
 3403 003c C173     		se_lwz %r7,4(%r3)
 3404 003e 53E70050 		e_lwz %r31,80(%r7)
 3405 0042 2E1F     		se_andi %r31,1
 3406 0044 220F     		se_cmpli %r31,1
 3407 0046 7A02FFE8 		e_bne %cr0,.L269
 3408              		.loc 1 2323 0
 3409 004a 50A700A4 		e_lwz %r5,164(%r7)
 3410              	.LVL274:
 3411              		.loc 1 2325 0
 3412 004e 74A5C6BF 		e_rlwinm %r5,%r5,24,26,31
 3413              	.LVL275:
 3414 0052 78000001 		e_bl can_lld_readBuffer
 3415              	.LVL276:
 3416              		.loc 1 2327 0
 3417 0056 C17E     		se_lwz %r7,4(%r30)
 3418              		.loc 1 2402 0
 3419 0058 4803     		se_li %r3,0
 3420              		.loc 1 2327 0
GAS LISTING C:\Users\bayra\AppData\Local\Temp\cc4lF4Vd.s 			page 61


 3421 005a 50A700A4 		e_lwz %r5,164(%r7)
 3422 005e 50C700A8 		e_lwz %r6,168(%r7)
 3423 0062 74A6C6BE 		e_rlwimi %r6,%r5,24,26,31
 3424 0066 54C700A8 		e_stw %r6,168(%r7)
 3425              		.loc 1 2329 0
 3426 006a C17E     		se_lwz %r7,4(%r30)
 3427 006c 50C70050 		e_lwz %r6,80(%r7)
 3428 0070 77E607FE 		e_rlwimi %r6,%r31,0,31,31
 3429 0074 54C70050 		e_stw %r6,80(%r7)
 3430 0078 79FFFFB8 		e_b .L281
 3431              	.LVL277:
 3432              	.L283:
 3433              		.loc 1 2337 0
 3434 007c C173     		se_lwz %r7,4(%r3)
 3435 007e 53E70050 		e_lwz %r31,80(%r7)
 3436 0082 77FFE7FF 		e_rlwinm %r31,%r31,28,31,31
 3437 0086 220F     		se_cmpli %r31,1
 3438 0088 7A02FFA6 		e_bne %cr0,.L269
 3439              		.loc 1 2338 0
 3440 008c 50A700B4 		e_lwz %r5,180(%r7)
 3441              	.LVL278:
 3442              		.loc 1 2340 0
 3443 0090 74A5C6BF 		e_rlwinm %r5,%r5,24,26,31
 3444              	.LVL279:
 3445 0094 78000001 		e_bl can_lld_readBuffer
 3446              	.LVL280:
 3447              		.loc 1 2342 0
 3448 0098 C17E     		se_lwz %r7,4(%r30)
 3449              		.loc 1 2402 0
 3450 009a 4803     		se_li %r3,0
 3451              		.loc 1 2342 0
 3452 009c 50A700B4 		e_lwz %r5,180(%r7)
 3453 00a0 50C700B8 		e_lwz %r6,184(%r7)
 3454 00a4 74A6C6BE 		e_rlwimi %r6,%r5,24,26,31
 3455 00a8 54C700B8 		e_stw %r6,184(%r7)
 3456              		.loc 1 2344 0
 3457 00ac C17E     		se_lwz %r7,4(%r30)
 3458 00ae 50C70050 		e_lwz %r6,80(%r7)
 3459 00b2 77E626F6 		e_rlwimi %r6,%r31,4,27,27
 3460 00b6 54C70050 		e_stw %r6,80(%r7)
 3461 00ba 79FFFF76 		e_b .L281
 3462              	.LVL281:
 3463              	.L284:
 3464              		.loc 1 2353 0
 3465 00be 7007A8FF 		e_cmpl16i %r7,255
 3466 00c2 7A12009C 		e_beq %cr0,.L285
 3467              		.loc 1 2370 0
 3468 00c6 23E7     		se_cmpli %r7,31
 3469 00c8 7A11005A 		e_bgt %cr0,.L277
 3470              		.loc 1 2371 0
 3471 00cc 50A40098 		e_lwz %r5,152(%r4)
 3472              	.LVL282:
 3473 00d0 4075     		se_srw %r5,%r7
 3474 00d2 67F5     		se_btsti %r5,31
 3475 00d4 7A12005E 		e_beq %cr0,.L271
 3476              	.LVL283:
 3477              	.L278:
GAS LISTING C:\Users\bayra\AppData\Local\Temp\cc4lF4Vd.s 			page 62


 3478              		.loc 1 2372 0
 3479 00d8 74FF063F 		e_rlwinm %r31,%r7,0,0xff
 3480              	.LVL284:
 3481              		.loc 1 2381 0
 3482 00dc 4815     		se_li %r5,1
 3483 00de 50E40050 		e_lwz %r7,80(%r4)
 3484              	.LVL285:
 3485              		.loc 1 2385 0
 3486 00e2 701FA8FF 		e_cmpl16i %r31,255
 3487              		.loc 1 2381 0
 3488 00e6 74A79B18 		e_rlwimi %r7,%r5,19,12,12
 3489 00ea 54E40050 		e_stw %r7,80(%r4)
 3490              		.loc 1 2385 0
 3491 00ee 7A12FF40 		e_beq %cr0,.L269
 3492              	.LVL286:
 3493              	.L274:
 3494              		.loc 1 2391 0
 3495 00f2 01E3     		se_mr %r3,%r30
 3496 00f4 708000FC 		e_li %r4,252
 3497 00f8 01F5     		se_mr %r5,%r31
 3498 00fa 78000001 		e_bl can_lld_readBuffer
 3499              	.LVL287:
 3500              		.loc 1 2394 0
 3501 00fe 23EF     		se_cmpli %r31,31
 3502 0100 7A010046 		e_ble %cr0,.L286
 3503              		.loc 1 2397 0
 3504 0104 C15E     		se_lwz %r5,4(%r30)
 3505 0106 18FF84E0 		e_addi %r7,%r31,-32
 3506 010a 4816     		se_li %r6,1
 3507 010c 7CC73830 		slw %r7,%r6,%r7
 3508 0110 54E5009C 		e_stw %r7,156(%r5)
 3509              		.loc 1 2403 0
 3510 0114 C501     		se_lwz %r0,20(%r1)
 3511 0116 0090     		se_mtlr %r0
 3512              		.cfi_remember_state
 3513              		.cfi_restore 65
 3514 0118 1BC10808 		e_lmw %r30,8(%r1)
 3515              	.LVL288:
 3516              		.loc 1 2402 0
 3517 011c 4803     		se_li %r3,0
 3518              		.loc 1 2403 0
 3519 011e 20F1     		se_addi %r1,16
 3520              	.LCFI34:
 3521              		.cfi_restore 30
 3522              		.cfi_restore 31
 3523              		.cfi_def_cfa_offset 0
 3524 0120 0004     		se_blr
 3525              	.LVL289:
 3526              	.L277:
 3527              	.LCFI35:
 3528              		.cfi_restore_state
 3529              		.loc 1 2375 0
 3530 0122 50A4009C 		e_lwz %r5,156(%r4)
 3531              	.LVL290:
 3532 0126 186784E0 		e_addi %r3,%r7,-32
 3533 012a 4035     		se_srw %r5,%r3
 3534 012c 67F5     		se_btsti %r5,31
GAS LISTING C:\Users\bayra\AppData\Local\Temp\cc4lF4Vd.s 			page 63


 3535 012e 7A02FFAA 		e_bne %cr0,.L278
 3536              	.LVL291:
 3537              	.L271:
 3538              		.loc 1 2381 0
 3539 0132 50E40050 		e_lwz %r7,80(%r4)
 3540 0136 4816     		se_li %r6,1
 3541              	.LVL292:
 3542              		.loc 1 2386 0
 3543 0138 4813     		se_li %r3,1
 3544              		.loc 1 2381 0
 3545 013a 74C79B18 		e_rlwimi %r7,%r6,19,12,12
 3546 013e 54E40050 		e_stw %r7,80(%r4)
 3547 0142 79FFFEEE 		e_b .L281
 3548              	.LVL293:
 3549              	.L286:
 3550              		.loc 1 2395 0
 3551 0146 C16E     		se_lwz %r6,4(%r30)
 3552 0148 4817     		se_li %r7,1
 3553 014a 42F7     		se_slw %r7, %r31
 3554 014c 54E60098 		e_stw %r7,152(%r6)
 3555              		.loc 1 2403 0
 3556 0150 C501     		se_lwz %r0,20(%r1)
 3557 0152 0090     		se_mtlr %r0
 3558              		.cfi_remember_state
 3559              		.cfi_restore 65
 3560 0154 1BC10808 		e_lmw %r30,8(%r1)
 3561              	.LVL294:
 3562              		.loc 1 2402 0
 3563 0158 4803     		se_li %r3,0
 3564              		.loc 1 2403 0
 3565 015a 20F1     		se_addi %r1,16
 3566              	.LCFI36:
 3567              		.cfi_restore 30
 3568              		.cfi_restore 31
 3569              		.cfi_def_cfa_offset 0
 3570 015c 0004     		se_blr
 3571              	.LVL295:
 3572              	.L285:
 3573              	.LCFI37:
 3574              		.cfi_restore_state
 3575              		.loc 1 2354 0 discriminator 1
 3576 015e C07E     		se_lwz %r7,0(%r30)
 3577              	.LVL296:
 3578 0160 30A700A2 		e_lbz %r5,162(%r7)
 3579              	.LVL297:
 3580 0164 2A05     		se_cmpi %r5,0
 3581 0166 7A12FFCC 		e_beq %cr0,.L271
 3582              		.loc 1 2354 0 is_stmt 0
 3583 016a 4807     		se_li %r7,0
 3584 016c 00B5     		se_mtctr %r5
 3585 016e 78000016 		e_b .L276
 3586              	.LVL298:
 3587              	.L288:
 3588              		.loc 1 2356 0 is_stmt 1
 3589 0172 50640098 		e_lwz %r3,152(%r4)
 3590 0176 4073     		se_srw %r3,%r7
 3591 0178 67F3     		se_btsti %r3,31
GAS LISTING C:\Users\bayra\AppData\Local\Temp\cc4lF4Vd.s 			page 64


 3592 017a 7A020024 		e_bne %cr0,.L287
 3593              	.L273:
 3594              		.loc 1 2354 0 discriminator 2
 3595 017e 2007     		se_addi %r7,1
 3596              	.LVL299:
 3597 0180 7A30FFB2 		e_bdz .L271
 3598              	.LVL300:
 3599              	.L276:
 3600              		.loc 1 2355 0
 3601 0184 23E7     		se_cmpli %r7,31
 3602 0186 7A01FFEC 		e_ble %cr0,.L288
 3603              		.loc 1 2361 0
 3604 018a 5064009C 		e_lwz %r3,156(%r4)
 3605 018e 18A784E0 		e_addi %r5,%r7,-32
 3606 0192 4053     		se_srw %r3,%r5
 3607 0194 67F3     		se_btsti %r3,31
 3608 0196 7A12FFE8 		e_beq %cr0,.L273
 3609 019a 79FFFF3E 		e_b .L278
 3610              	.L287:
 3611              		.loc 1 2381 0
 3612 019e 50A40050 		e_lwz %r5,80(%r4)
 3613              		.loc 1 2357 0
 3614 01a2 74FF063F 		e_rlwinm %r31,%r7,0,0xff
 3615              	.LVL301:
 3616              		.loc 1 2381 0
 3617 01a6 4817     		se_li %r7,1
 3618              	.LVL302:
 3619 01a8 74E59B18 		e_rlwimi %r5,%r7,19,12,12
 3620 01ac 54A40050 		e_stw %r5,80(%r4)
 3621 01b0 79FFFF42 		e_b .L274
 3622              		.cfi_endproc
 3623              	.LFE19:
 3624              		.size	can_lld_receive, .-can_lld_receive
 3625              		.globl CAND8
 3626              		.globl CAND7
 3627              		.globl CAND4
 3628              		.section	.bss.CAND4,"aw",@nobits
 3629              		.align 2
 3630              		.set	.LANCHOR0,. + 0
 3631              		.type	CAND4, @object
 3632              		.size	CAND4, 16
 3633              	CAND4:
 3634 0000 00000000 		.zero	16
 3634      00000000 
 3634      00000000 
 3634      00000000 
 3635              		.section	.bss.CAND7,"aw",@nobits
 3636              		.align 2
 3637              		.set	.LANCHOR1,. + 0
 3638              		.type	CAND7, @object
 3639              		.size	CAND7, 16
 3640              	CAND7:
 3641 0000 00000000 		.zero	16
 3641      00000000 
 3641      00000000 
 3641      00000000 
 3642              		.section	.bss.CAND8,"aw",@nobits
GAS LISTING C:\Users\bayra\AppData\Local\Temp\cc4lF4Vd.s 			page 65


 3643              		.align 2
 3644              		.set	.LANCHOR2,. + 0
 3645              		.type	CAND8, @object
 3646              		.size	CAND8, 16
 3647              	CAND8:
 3648 0000 00000000 		.zero	16
 3648      00000000 
 3648      00000000 
 3648      00000000 
 3649              		.section	".text","axv"
 3650              	.Letext0:
 3651              		.file 2 "c:\\spc5studio-6.0\\eclipse\\plugins\\com.st.tools.spc5.tools.gnu.gcc.ppcvle.win32_4.9.4.
 3652              		.file 3 "c:\\spc5studio-6.0\\eclipse\\plugins\\com.st.tools.spc5.tools.gnu.gcc.ppcvle.win32_4.9.4.
 3653              		.file 4 "./components/spc58xgxx_platform_component_rla/lib/include/typedefs.h"
 3654              		.file 5 "./components/spc58xgxx_platform_component_rla/lib/include/spc58xgxx.h"
 3655              		.file 6 "./components/spc58xgxx_low_level_drivers_component_rla/lib/include/can_lld.h"
 3656              		.file 7 "./components/spc58xgxx_clock_component_rla/lib/include/clock.h"