GAS LISTING C:\Users\bayra\AppData\Local\Temp\cc8w6Q6O.s 			page 1


   1              		.file	"CAN_tools.c"
   2              		.section	".text","axv"
   3              	.Ltext0:
   4              		.cfi_sections	.debug_frame
   5              		.globl __floatunsisf
   6              		.globl __mulsf3
   7              		.globl __gtsf2
   8              		.globl __fixunssfsi
   9              		.section	.text.can3_rx,"axv",@progbits
  10              		.align 1
  11              		.p2align 4,,15
  12              		.globl can3_rx
  13              		.type	can3_rx, @function
  14              	can3_rx:
  15              	.LFB3:
  16              		.file 1 "./source/CAN_tools.c"
  17              		.loc 1 15 0
  18              		.cfi_startproc
  19              	.LVL0:
  20 0000 701F7F50 		e_li %r0,-176
  21 0004 7C21016E 		stwux %r1,%r1,%r0
  22              	.LCFI0:
  23              		.cfi_def_cfa_offset 176
  24 0008 0080     		se_mflr %r0
  25 000a 57E100AC 		e_stw %r31,172(%r1)
  26 000e 540100B4 		e_stw %r0,180(%r1)
  27 0012 57C100A8 		e_stw %r30,168(%r1)
  28              		.cfi_offset 65, 4
  29              		.cfi_offset 31, -4
  30              		.cfi_offset 30, -8
  31              		.loc 1 21 0
  32 0016 73E0E000 		e_lis %r31,CAND4@ha
  33 001a 1FFF0000 		e_la %r31,CAND4@l(%r31)
  34 001e C17F     		se_lwz %r7,4(%r31)
  35 0020 50C70050 		e_lwz %r6,80(%r7)
  36 0024 67F6     		se_btsti %r6,31
  37 0026 7A020036 		e_bne %cr0,.L19
  38              	.LVL1:
  39              	.L2:
  40              	.LBB27:
  41              	.LBB28:
  42              		.loc 1 145 0
  43 002a 50C70050 		e_lwz %r6,80(%r7)
  44 002e 70C7EFF6 		e_and2is. %r6,0x3ff6
  45 0032 7A120016 		e_beq %cr0,.L1
  46              		.loc 1 148 0
  47 0036 50C70050 		e_lwz %r6,80(%r7)
  48 003a 6666     		se_btsti %r6,6
  49 003c 7A0200E0 		e_bne %cr0,.L20
  50              	.L12:
  51              		.loc 1 153 0
  52 0040 70C7E7F6 		e_lis %r6,0x3ff6
  53 0044 54C70050 		e_stw %r6,80(%r7)
  54              	.L1:
  55              	.LBE28:
  56              	.LBE27:
  57              		.loc 1 66 0
GAS LISTING C:\Users\bayra\AppData\Local\Temp\cc8w6Q6O.s 			page 2


  58 0048 500100B4 		e_lwz %r0,180(%r1)
  59 004c 0090     		se_mtlr %r0
  60              		.cfi_remember_state
  61              		.cfi_restore 65
  62 004e 53C100A8 		e_lwz %r30,168(%r1)
  63 0052 53E100AC 		e_lwz %r31,172(%r1)
  64 0056 182180B0 		e_addi %r1,%r1,176
  65              	.LCFI1:
  66              		.cfi_restore 31
  67              		.cfi_restore 30
  68              		.cfi_def_cfa_offset 0
  69 005a 0004     		se_blr
  70              	.LVL2:
  71              	.L19:
  72              	.LCFI2:
  73              		.cfi_restore_state
  74              	.LBB30:
  75              		.loc 1 24 0
  76 005c 50A700A4 		e_lwz %r5,164(%r7)
  77              	.LVL3:
  78              		.loc 1 26 0
  79 0060 18C18008 		e_addi %r6,%r1,8
  80 0064 74A5C6BF 		e_rlwinm %r5,%r5,24,26,31
  81              	.LVL4:
  82 0068 01F3     		se_mr %r3,%r31
  83              	.LVL5:
  84 006a 708000FD 		e_li %r4,253
  85 006e 78000001 		e_bl can_lld_readBuffer
  86              	.LVL6:
  87              		.loc 1 28 0
  88 0072 C17F     		se_lwz %r7,4(%r31)
  89 0074 50A700A4 		e_lwz %r5,164(%r7)
  90 0078 50C700A8 		e_lwz %r6,168(%r7)
  91 007c 74A6C6BE 		e_rlwimi %r6,%r5,24,26,31
  92 0080 54C700A8 		e_stw %r6,168(%r7)
  93              		.loc 1 29 0
  94 0084 70C0E000 		e_lis %r6,Relay@ha
  95 0088 30C60000 		e_lbz %r6,Relay@l(%r6)
  96 008c 2A06     		se_cmpi %r6,0
  97 008e 7A12FF9C 		e_beq %cr0,.L2
  98              		.loc 1 30 0
  99 0092 70E0E000 		e_lis %r7,autonom@ha
 100 0096 30E70000 		e_lbz %r7,autonom@l(%r7)
 101 009a 2A07     		se_cmpi %r7,0
 102 009c 7A12008E 		e_beq %cr0,.L3
 103              		.loc 1 31 0
 104 00a0 C471     		se_lwz %r7,16(%r1)
 105 00a2 7007A8FD 		e_cmpl16i %r7,253
 106 00a6 7A1200C0 		e_beq %cr0,.L21
 107              	.LVL7:
 108              	.LBB31:
 109              	.LBB32:
 110              		.loc 1 134 0
 111 00aa 30C10014 		e_lbz %r6,20(%r1)
 112              		.loc 1 135 0
 113 00ae 54E1005C 		e_stw %r7,92(%r1)
 114              		.loc 1 134 0
GAS LISTING C:\Users\bayra\AppData\Local\Temp\cc8w6Q6O.s 			page 3


 115 00b2 34C10060 		e_stb %r6,96(%r1)
 116              		.loc 1 136 0
 117 00b6 8A71     		se_lbz %r7,10(%r1)
 118 00b8 4905     		se_li %r5,16
 119 00ba 34E10058 		e_stb %r7,88(%r1)
 120 00be 18C18014 		e_addi %r6,%r1,20
 121              		.loc 1 137 0
 122 00c2 8C71     		se_lbz %r7,12(%r1)
 123 00c4 00B5     		se_mtctr %r5
 124 00c6 34E1005A 		e_stb %r7,90(%r1)
 125              		.loc 1 138 0
 126 00ca 8B71     		se_lbz %r7,11(%r1)
 127 00cc 34E10059 		e_stb %r7,89(%r1)
 128              	.LVL8:
 129 00d0 18E18060 		e_addi %r7,%r1,96
 130              	.LVL9:
 131              	.L8:
 132              	.LBB33:
 133              		.loc 1 140 0
 134 00d4 18A60204 		e_lwzu %r5,4(%r6)
 135 00d8 18A70604 		e_stwu %r5,4(%r7)
 136              		.loc 1 139 0
 137 00dc 7A20FFF8 		e_bdnz .L8
 138              	.LVL10:
 139              	.L10:
 140              	.LBE33:
 141              	.LBE32:
 142              	.LBE31:
 143              		.loc 1 50 0
 144 00e0 708000FC 		e_li %r4,252
 145 00e4 7060E000 		e_lis %r3,CAND7@ha
 146 00e8 18A18058 		e_addi %r5,%r1,88
 147 00ec 1C630000 		e_la %r3,CAND7@l(%r3)
 148 00f0 78000001 		e_bl can_lld_transmit
 149              	.LVL11:
 150              		.loc 1 58 0
 151 00f4 70E0E000 		e_lis %r7,CAND4+4@ha
 152 00f8 50E70000 		e_lwz %r7,CAND4+4@l(%r7)
 153 00fc 50C700A4 		e_lwz %r6,164(%r7)
 154 0100 18C6C07F 		e_andi %r6,%r6,127
 155 0104 2A06     		se_cmpi %r6,0
 156 0106 7A02FF24 		e_bne %cr0,.L2
 157              		.loc 1 59 0
 158 010a 50C70050 		e_lwz %r6,80(%r7)
 159 010e 4815     		se_li %r5,1
 160 0110 74A607FE 		e_rlwimi %r6,%r5,0,31,31
 161 0114 54C70050 		e_stw %r6,80(%r7)
 162 0118 79FFFF12 		e_b .L2
 163              	.LVL12:
 164              	.L20:
 165              	.LBE30:
 166              	.LBB41:
 167              	.LBB29:
 168              		.loc 1 150 0
 169 011c C667     		se_lwz %r6,24(%r7)
 170 011e 4805     		se_li %r5,0
 171 0120 74A607FE 		e_rlwimi %r6,%r5,0,31,31
GAS LISTING C:\Users\bayra\AppData\Local\Temp\cc8w6Q6O.s 			page 4


 172 0124 D667     		se_stw %r6,24(%r7)
 173 0126 79FFFF1A 		e_b .L12
 174              	.LVL13:
 175              	.L3:
 176              	.LBE29:
 177              	.LBE41:
 178              	.LBB42:
 179              	.LBB34:
 180              	.LBB35:
 181              		.loc 1 134 0
 182 012a 30E10014 		e_lbz %r7,20(%r1)
 183 012e 4905     		se_li %r5,16
 184 0130 34E10060 		e_stb %r7,96(%r1)
 185 0134 18C18014 		e_addi %r6,%r1,20
 186              		.loc 1 135 0
 187 0138 C471     		se_lwz %r7,16(%r1)
 188 013a 00B5     		se_mtctr %r5
 189 013c 54E1005C 		e_stw %r7,92(%r1)
 190              		.loc 1 136 0
 191 0140 8A71     		se_lbz %r7,10(%r1)
 192 0142 34E10058 		e_stb %r7,88(%r1)
 193              		.loc 1 137 0
 194 0146 8C71     		se_lbz %r7,12(%r1)
 195 0148 34E1005A 		e_stb %r7,90(%r1)
 196              		.loc 1 138 0
 197 014c 8B71     		se_lbz %r7,11(%r1)
 198 014e 34E10059 		e_stb %r7,89(%r1)
 199              	.LVL14:
 200 0152 18E18060 		e_addi %r7,%r1,96
 201              	.LVL15:
 202              	.L9:
 203              	.LBB36:
 204              		.loc 1 140 0
 205 0156 18A60204 		e_lwzu %r5,4(%r6)
 206 015a 18A70604 		e_stwu %r5,4(%r7)
 207              		.loc 1 139 0
 208 015e 7A20FFF8 		e_bdnz .L9
 209 0162 79FFFF7E 		e_b .L10
 210              	.LVL16:
 211              	.L21:
 212              	.LBE36:
 213              	.LBE35:
 214              	.LBE34:
 215              	.LBB37:
 216              	.LBB38:
 217              	.LBB39:
 218              		.loc 1 134 0
 219 0166 33E10014 		e_lbz %r31,20(%r1)
 220              		.loc 1 135 0
 221 016a 54E1005C 		e_stw %r7,92(%r1)
 222 016e 4905     		se_li %r5,16
 223              		.loc 1 136 0
 224 0170 8A71     		se_lbz %r7,10(%r1)
 225              		.loc 1 134 0
 226 0172 37E10060 		e_stb %r31,96(%r1)
 227              		.loc 1 136 0
 228 0176 34E10058 		e_stb %r7,88(%r1)
GAS LISTING C:\Users\bayra\AppData\Local\Temp\cc8w6Q6O.s 			page 5


 229 017a 18C18014 		e_addi %r6,%r1,20
 230              		.loc 1 137 0
 231 017e 8C71     		se_lbz %r7,12(%r1)
 232 0180 00B5     		se_mtctr %r5
 233 0182 34E1005A 		e_stb %r7,90(%r1)
 234              		.loc 1 138 0
 235 0186 8B71     		se_lbz %r7,11(%r1)
 236 0188 34E10059 		e_stb %r7,89(%r1)
 237              	.LVL17:
 238 018c 18E18060 		e_addi %r7,%r1,96
 239              	.LVL18:
 240              	.L5:
 241              	.LBB40:
 242              		.loc 1 140 0
 243 0190 18A60204 		e_lwzu %r5,4(%r6)
 244 0194 18A70604 		e_stwu %r5,4(%r7)
 245              		.loc 1 139 0
 246 0198 7A20FFF8 		e_bdnz .L5
 247              	.LVL19:
 248              	.LBE40:
 249              	.LBE39:
 250              	.LBE38:
 251              		.loc 1 35 0
 252 019c 30E1001D 		e_lbz %r7,29(%r1)
 253 01a0 3061001C 		e_lbz %r3,28(%r1)
 254 01a4 6C87     		se_slwi %r7, 8
 255              		.loc 1 36 0
 256 01a6 4473     		se_or %r3,%r7
 257 01a8 78000001 		e_bl __floatunsisf
 258              	.LVL20:
 259 01ac 7087E423 		e_lis %r4,0x3c23
 260 01b0 709AC70A 		e_or2i %r4,55050
 261 01b4 78000001 		e_bl __mulsf3
 262              	.LVL21:
 263              		.loc 1 39 0
 264 01b8 7088E110 		e_lis %r4,0x4110
 265              		.loc 1 36 0
 266 01bc 013E     		se_mr %r30,%r3
 267              	.LVL22:
 268              		.loc 1 39 0
 269 01be 78000001 		e_bl __gtsf2
 270              	.LVL23:
 271 01c2 4837     		se_li %r7,3
 272 01c4 70C00084 		e_li %r6,132
 273 01c8 2A03     		se_cmpi %r3,0
 274 01ca 7A11001C 		e_bgt %cr0,.L6
 275 01ce 7088E2C8 		e_lis %r4,0x42c8
 276 01d2 01E3     		se_mr %r3,%r30
 277 01d4 78000001 		e_bl __mulsf3
 278              	.LVL24:
 279 01d8 78000001 		e_bl __fixunssfsi
 280              	.LVL25:
 281 01dc 00E3     		se_extzh %r3
 282 01de 7466063F 		e_rlwinm %r6,%r3,0,0xff
 283 01e2 7C674470 		e_srwi %r7,%r3,8
 284              	.L6:
 285              	.LVL26:
GAS LISTING C:\Users\bayra\AppData\Local\Temp\cc8w6Q6O.s 			page 6


 286              		.loc 1 43 0 discriminator 4
 287 01e6 34E10069 		e_stb %r7,105(%r1)
 288              		.loc 1 44 0 discriminator 4
 289 01ea 01F4     		se_mr %r4,%r31
 290 01ec 18E18058 		e_addi %r7,%r1,88
 291              	.LVL27:
 292              		.loc 1 42 0 discriminator 4
 293 01f0 34C10068 		e_stb %r6,104(%r1)
 294              		.loc 1 44 0 discriminator 4
 295 01f4 1867800C 		e_addi %r3,%r7,12
 296 01f8 70A000FD 		e_li %r5,253
 297 01fc 78000001 		e_bl Crc_CalculateCRC8H2F
 298              	.LVL28:
 299 0200 34610064 		e_stb %r3,100(%r1)
 300 0204 79FFFEDC 		e_b .L10
 301              	.LBE37:
 302              	.LBE42:
 303              		.cfi_endproc
 304              	.LFE3:
 305              		.size	can3_rx, .-can3_rx
 306              		.section	.text.can4_rx,"axv",@progbits
 307              		.align 1
 308              		.p2align 4,,15
 309              		.globl can4_rx
 310              		.type	can4_rx, @function
 311              	can4_rx:
 312              	.LFB4:
 313              		.loc 1 68 0
 314              		.cfi_startproc
 315              	.LVL29:
 316 0000 701F7F50 		e_li %r0,-176
 317 0004 7C21016E 		stwux %r1,%r1,%r0
 318              	.LCFI3:
 319              		.cfi_def_cfa_offset 176
 320 0008 0080     		se_mflr %r0
 321 000a 57E100AC 		e_stw %r31,172(%r1)
 322 000e 540100B4 		e_stw %r0,180(%r1)
 323              		.cfi_offset 65, 4
 324              		.cfi_offset 31, -4
 325              		.loc 1 74 0
 326 0012 73E0E000 		e_lis %r31,CAND7@ha
 327 0016 1FFF0000 		e_la %r31,CAND7@l(%r31)
 328 001a C17F     		se_lwz %r7,4(%r31)
 329 001c 50C70050 		e_lwz %r6,80(%r7)
 330 0020 67F6     		se_btsti %r6,31
 331 0022 7A020032 		e_bne %cr0,.L34
 332              	.LVL30:
 333              	.L23:
 334              	.LBB43:
 335              	.LBB44:
 336              		.loc 1 145 0
 337 0026 50C70050 		e_lwz %r6,80(%r7)
 338 002a 70C7EFF6 		e_and2is. %r6,0x3ff6
 339 002e 7A120016 		e_beq %cr0,.L22
 340              		.loc 1 148 0
 341 0032 50C70050 		e_lwz %r6,80(%r7)
 342 0036 6666     		se_btsti %r6,6
GAS LISTING C:\Users\bayra\AppData\Local\Temp\cc8w6Q6O.s 			page 7


 343 0038 7A0200D4 		e_bne %cr0,.L35
 344              	.L29:
 345              		.loc 1 153 0
 346 003c 70C7E7F6 		e_lis %r6,0x3ff6
 347 0040 54C70050 		e_stw %r6,80(%r7)
 348              	.L22:
 349              	.LBE44:
 350              	.LBE43:
 351              		.loc 1 101 0
 352 0044 500100B4 		e_lwz %r0,180(%r1)
 353 0048 0090     		se_mtlr %r0
 354              		.cfi_remember_state
 355              		.cfi_restore 65
 356 004a 53E100AC 		e_lwz %r31,172(%r1)
 357 004e 182180B0 		e_addi %r1,%r1,176
 358              	.LCFI4:
 359              		.cfi_restore 31
 360              		.cfi_def_cfa_offset 0
 361 0052 0004     		se_blr
 362              	.LVL31:
 363              	.L34:
 364              	.LCFI5:
 365              		.cfi_restore_state
 366              	.LBB46:
 367              		.loc 1 77 0
 368 0054 50A700A4 		e_lwz %r5,164(%r7)
 369              	.LVL32:
 370              		.loc 1 79 0
 371 0058 18C18008 		e_addi %r6,%r1,8
 372 005c 74A5C6BF 		e_rlwinm %r5,%r5,24,26,31
 373              	.LVL33:
 374 0060 01F3     		se_mr %r3,%r31
 375              	.LVL34:
 376 0062 708000FD 		e_li %r4,253
 377 0066 78000001 		e_bl can_lld_readBuffer
 378              	.LVL35:
 379              		.loc 1 81 0
 380 006a C17F     		se_lwz %r7,4(%r31)
 381 006c 50A700A4 		e_lwz %r5,164(%r7)
 382 0070 50C700A8 		e_lwz %r6,168(%r7)
 383 0074 74A6C6BE 		e_rlwimi %r6,%r5,24,26,31
 384 0078 54C700A8 		e_stw %r6,168(%r7)
 385              		.loc 1 82 0
 386 007c 70C0E000 		e_lis %r6,Relay@ha
 387 0080 30C60000 		e_lbz %r6,Relay@l(%r6)
 388 0084 2A06     		se_cmpi %r6,0
 389 0086 7A120066 		e_beq %cr0,.L24
 390              		.loc 1 83 0
 391 008a 70E0E000 		e_lis %r7,autonom@ha
 392 008e 4905     		se_li %r5,16
 393 0090 30E70000 		e_lbz %r7,autonom@l(%r7)
 394 0094 18C18014 		e_addi %r6,%r1,20
 395 0098 2A07     		se_cmpi %r7,0
 396 009a 00B5     		se_mtctr %r5
 397              	.LBB47:
 398              	.LBB48:
 399              		.loc 1 134 0
GAS LISTING C:\Users\bayra\AppData\Local\Temp\cc8w6Q6O.s 			page 8


 400 009c 30E10014 		e_lbz %r7,20(%r1)
 401 00a0 34E10060 		e_stb %r7,96(%r1)
 402              		.loc 1 135 0
 403 00a4 C471     		se_lwz %r7,16(%r1)
 404 00a6 54E1005C 		e_stw %r7,92(%r1)
 405              		.loc 1 136 0
 406 00aa 8A71     		se_lbz %r7,10(%r1)
 407 00ac 34E10058 		e_stb %r7,88(%r1)
 408              		.loc 1 137 0
 409 00b0 8C71     		se_lbz %r7,12(%r1)
 410 00b2 34E1005A 		e_stb %r7,90(%r1)
 411              		.loc 1 138 0
 412 00b6 8B71     		se_lbz %r7,11(%r1)
 413 00b8 34E10059 		e_stb %r7,89(%r1)
 414              	.LVL36:
 415 00bc 18E18060 		e_addi %r7,%r1,96
 416              	.LBE48:
 417              	.LBE47:
 418              		.loc 1 83 0
 419 00c0 7A12005A 		e_beq %cr0,.L27
 420              	.LVL37:
 421              	.L26:
 422              	.LBB51:
 423              	.LBB50:
 424              	.LBB49:
 425              		.loc 1 140 0
 426 00c4 18A60204 		e_lwzu %r5,4(%r6)
 427 00c8 18A70604 		e_stwu %r5,4(%r7)
 428              		.loc 1 139 0
 429 00cc 7A20FFF8 		e_bdnz .L26
 430              	.L32:
 431              	.LBE49:
 432              	.LBE50:
 433              	.LBE51:
 434              		.loc 1 89 0
 435 00d0 708000FC 		e_li %r4,252
 436 00d4 7060E000 		e_lis %r3,CAND4@ha
 437 00d8 18A18058 		e_addi %r5,%r1,88
 438 00dc 1C630000 		e_la %r3,CAND4@l(%r3)
 439 00e0 78000001 		e_bl can_lld_transmit
 440              	.LVL38:
 441 00e4 70E0E000 		e_lis %r7,CAND7+4@ha
 442 00e8 50E70000 		e_lwz %r7,CAND7+4@l(%r7)
 443              	.L24:
 444              		.loc 1 95 0
 445 00ec 50C700A4 		e_lwz %r6,164(%r7)
 446 00f0 18C6C07F 		e_andi %r6,%r6,127
 447 00f4 2A06     		se_cmpi %r6,0
 448 00f6 7A02FF30 		e_bne %cr0,.L23
 449              		.loc 1 96 0
 450 00fa 50C70050 		e_lwz %r6,80(%r7)
 451 00fe 4815     		se_li %r5,1
 452 0100 74A607FE 		e_rlwimi %r6,%r5,0,31,31
 453 0104 54C70050 		e_stw %r6,80(%r7)
 454 0108 79FFFF1E 		e_b .L23
 455              	.LVL39:
 456              	.L35:
GAS LISTING C:\Users\bayra\AppData\Local\Temp\cc8w6Q6O.s 			page 9


 457              	.LBE46:
 458              	.LBB55:
 459              	.LBB45:
 460              		.loc 1 150 0
 461 010c C667     		se_lwz %r6,24(%r7)
 462 010e 4805     		se_li %r5,0
 463 0110 74A607FE 		e_rlwimi %r6,%r5,0,31,31
 464 0114 D667     		se_stw %r6,24(%r7)
 465 0116 79FFFF26 		e_b .L29
 466              	.LVL40:
 467              	.L27:
 468              	.LBE45:
 469              	.LBE55:
 470              	.LBB56:
 471              	.LBB52:
 472              	.LBB53:
 473              	.LBB54:
 474              		.loc 1 140 0
 475 011a 18A60204 		e_lwzu %r5,4(%r6)
 476 011e 18A70604 		e_stwu %r5,4(%r7)
 477              	.LVL41:
 478              		.loc 1 139 0
 479 0122 7A30FFAE 		e_bdz .L32
 480              		.loc 1 140 0
 481 0126 18A60204 		e_lwzu %r5,4(%r6)
 482 012a 18A70604 		e_stwu %r5,4(%r7)
 483              		.loc 1 139 0
 484 012e 7A20FFEC 		e_bdnz .L27
 485 0132 79FFFF9E 		e_b .L32
 486              	.LBE54:
 487              	.LBE53:
 488              	.LBE52:
 489              	.LBE56:
 490              		.cfi_endproc
 491              	.LFE4:
 492              		.size	can4_rx, .-can4_rx
 493              		.section	.text.can5_rx,"axv",@progbits
 494              		.align 1
 495              		.p2align 4,,15
 496              		.globl can5_rx
 497              		.type	can5_rx, @function
 498              	can5_rx:
 499              	.LFB5:
 500              		.loc 1 103 0
 501              		.cfi_startproc
 502              	.LVL42:
 503 0000 182106A0 		e_stwu %r1,-96(%r1)
 504              	.LCFI6:
 505              		.cfi_def_cfa_offset 96
 506 0004 0080     		se_mflr %r0
 507 0006 57E1005C 		e_stw %r31,92(%r1)
 508 000a 54010064 		e_stw %r0,100(%r1)
 509              		.cfi_offset 65, 4
 510              		.cfi_offset 31, -4
 511              		.loc 1 109 0
 512 000e 73E0E000 		e_lis %r31,CAND8@ha
 513 0012 1FFF0000 		e_la %r31,CAND8@l(%r31)
GAS LISTING C:\Users\bayra\AppData\Local\Temp\cc8w6Q6O.s 			page 10


 514 0016 C17F     		se_lwz %r7,4(%r31)
 515 0018 50C70050 		e_lwz %r6,80(%r7)
 516 001c 67F6     		se_btsti %r6,31
 517 001e 7A020032 		e_bne %cr0,.L40
 518              	.LVL43:
 519              	.L37:
 520              	.LBB57:
 521              	.LBB58:
 522              		.loc 1 145 0
 523 0022 50C70050 		e_lwz %r6,80(%r7)
 524 0026 70C7EFF6 		e_and2is. %r6,0x3ff6
 525 002a 7A120016 		e_beq %cr0,.L36
 526              		.loc 1 148 0
 527 002e 50C70050 		e_lwz %r6,80(%r7)
 528 0032 6666     		se_btsti %r6,6
 529 0034 7A02007A 		e_bne %cr0,.L41
 530              	.L39:
 531              		.loc 1 153 0
 532 0038 70C7E7F6 		e_lis %r6,0x3ff6
 533 003c 54C70050 		e_stw %r6,80(%r7)
 534              	.L36:
 535              	.LBE58:
 536              	.LBE57:
 537              		.loc 1 130 0
 538 0040 50010064 		e_lwz %r0,100(%r1)
 539 0044 0090     		se_mtlr %r0
 540              		.cfi_remember_state
 541              		.cfi_restore 65
 542 0046 53E1005C 		e_lwz %r31,92(%r1)
 543 004a 18218060 		e_addi %r1,%r1,96
 544              	.LCFI7:
 545              		.cfi_restore 31
 546              		.cfi_def_cfa_offset 0
 547 004e 0004     		se_blr
 548              	.LVL44:
 549              	.L40:
 550              	.LCFI8:
 551              		.cfi_restore_state
 552              	.LBB60:
 553              		.loc 1 112 0
 554 0050 50A700A4 		e_lwz %r5,164(%r7)
 555              	.LVL45:
 556              		.loc 1 114 0
 557 0054 01F3     		se_mr %r3,%r31
 558              	.LVL46:
 559 0056 708000FD 		e_li %r4,253
 560 005a 74A5C6BF 		e_rlwinm %r5,%r5,24,26,31
 561              	.LVL47:
 562 005e 18C18008 		e_addi %r6,%r1,8
 563 0062 78000001 		e_bl can_lld_readBuffer
 564              	.LVL48:
 565              		.loc 1 116 0
 566 0066 C17F     		se_lwz %r7,4(%r31)
 567              		.loc 1 121 0
 568 0068 18818008 		e_addi %r4,%r1,8
 569              		.loc 1 116 0
 570 006c 50C700A4 		e_lwz %r6,164(%r7)
GAS LISTING C:\Users\bayra\AppData\Local\Temp\cc8w6Q6O.s 			page 11


 571              		.loc 1 121 0
 572 0070 4805     		se_li %r5,0
 573              		.loc 1 116 0
 574 0072 506700A8 		e_lwz %r3,168(%r7)
 575 0076 74C3C6BE 		e_rlwimi %r3,%r6,24,26,31
 576              		.loc 1 121 0
 577 007a 4806     		se_li %r6,0
 578              		.loc 1 116 0
 579 007c 546700A8 		e_stw %r3,168(%r7)
 580              	.LVL49:
 581              		.loc 1 121 0
 582 0080 70E0E000 		e_lis %r7,xQueue_CAN5@ha
 583 0084 50670000 		e_lwz %r3,xQueue_CAN5@l(%r7)
 584 0088 78000001 		e_bl xQueueGenericSendFromISR
 585              	.LVL50:
 586              		.loc 1 124 0
 587 008c C17F     		se_lwz %r7,4(%r31)
 588 008e 50C700A4 		e_lwz %r6,164(%r7)
 589 0092 18C6C07F 		e_andi %r6,%r6,127
 590 0096 2A06     		se_cmpi %r6,0
 591 0098 7A02FF8A 		e_bne %cr0,.L37
 592              		.loc 1 125 0
 593 009c 50C70050 		e_lwz %r6,80(%r7)
 594 00a0 4815     		se_li %r5,1
 595 00a2 74A607FE 		e_rlwimi %r6,%r5,0,31,31
 596 00a6 54C70050 		e_stw %r6,80(%r7)
 597 00aa 79FFFF78 		e_b .L37
 598              	.LVL51:
 599              	.L41:
 600              	.LBE60:
 601              	.LBB61:
 602              	.LBB59:
 603              		.loc 1 150 0
 604 00ae C667     		se_lwz %r6,24(%r7)
 605 00b0 4805     		se_li %r5,0
 606 00b2 74A607FE 		e_rlwimi %r6,%r5,0,31,31
 607 00b6 D667     		se_stw %r6,24(%r7)
 608 00b8 79FFFF80 		e_b .L39
 609              	.LBE59:
 610              	.LBE61:
 611              		.cfi_endproc
 612              	.LFE5:
 613              		.size	can5_rx, .-can5_rx
 614              		.section	.text.copyCANmsgs,"axv",@progbits
 615              		.align 1
 616              		.p2align 4,,15
 617              		.globl copyCANmsgs
 618              		.type	copyCANmsgs, @function
 619              	copyCANmsgs:
 620              	.LFB6:
 621              		.loc 1 133 0
 622              		.cfi_startproc
 623              	.LVL52:
 624              		.loc 1 134 0
 625 0000 8C54     		se_lbz %r5,12(%r4)
 626 0002 18C38008 		e_addi %r6,%r3,8
 627 0006 9853     		se_stb %r5,8(%r3)
GAS LISTING C:\Users\bayra\AppData\Local\Temp\cc8w6Q6O.s 			page 12


 628 0008 18E4800C 		e_addi %r7,%r4,12
 629 000c 4905     		se_li %r5,16
 630 000e 00B5     		se_mtctr %r5
 631              		.loc 1 135 0
 632 0010 C254     		se_lwz %r5,8(%r4)
 633 0012 D153     		se_stw %r5,4(%r3)
 634              		.loc 1 136 0
 635 0014 8254     		se_lbz %r5,2(%r4)
 636 0016 9053     		se_stb %r5,0(%r3)
 637              		.loc 1 137 0
 638 0018 8454     		se_lbz %r5,4(%r4)
 639 001a 9253     		se_stb %r5,2(%r3)
 640              		.loc 1 138 0
 641 001c 8354     		se_lbz %r5,3(%r4)
 642 001e 9153     		se_stb %r5,1(%r3)
 643              	.LVL53:
 644              	.L43:
 645              	.LBB62:
 646              		.loc 1 140 0 discriminator 3
 647 0020 18A70204 		e_lwzu %r5,4(%r7)
 648 0024 18A60604 		e_stwu %r5,4(%r6)
 649              		.loc 1 139 0 discriminator 3
 650 0028 7A20FFF8 		e_bdnz .L43
 651              	.LBE62:
 652              		.loc 1 142 0
 653 002c 0004     		se_blr
 654              		.cfi_endproc
 655              	.LFE6:
 656              		.size	copyCANmsgs, .-copyCANmsgs
 657              		.section	.text.clearCANerrors,"axv",@progbits
 658              		.align 1
 659              		.p2align 4,,15
 660              		.globl clearCANerrors
 661              		.type	clearCANerrors, @function
 662              	clearCANerrors:
 663              	.LFB7:
 664              		.loc 1 144 0
 665              		.cfi_startproc
 666              	.LVL54:
 667              		.loc 1 145 0
 668 0000 C163     		se_lwz %r6,4(%r3)
 669 0002 50E60050 		e_lwz %r7,80(%r6)
 670 0006 70E7EFF6 		e_and2is. %r7,0x3ff6
 671 000a 7A120016 		e_beq %cr0,.L45
 672              		.loc 1 148 0
 673 000e 50E60050 		e_lwz %r7,80(%r6)
 674 0012 6667     		se_btsti %r7,6
 675 0014 7A02000E 		e_bne %cr0,.L48
 676              		.loc 1 153 0
 677 0018 70E7E7F6 		e_lis %r7,0x3ff6
 678 001c 54E60050 		e_stw %r7,80(%r6)
 679              	.L45:
 680 0020 0004     		se_blr
 681              	.L48:
 682              		.loc 1 150 0
 683 0022 C676     		se_lwz %r7,24(%r6)
 684 0024 4805     		se_li %r5,0
GAS LISTING C:\Users\bayra\AppData\Local\Temp\cc8w6Q6O.s 			page 13


 685 0026 74A707FE 		e_rlwimi %r7,%r5,0,31,31
 686 002a D676     		se_stw %r7,24(%r6)
 687              		.loc 1 153 0
 688 002c 70E7E7F6 		e_lis %r7,0x3ff6
 689 0030 C163     		se_lwz %r6,4(%r3)
 690 0032 54E60050 		e_stw %r7,80(%r6)
 691 0036 79FFFFEA 		e_b .L45
 692              		.cfi_endproc
 693              	.LFE7:
 694              		.size	clearCANerrors, .-clearCANerrors
 695              		.section	".text","axv"
 696              	.Letext0:
 697              		.file 2 "c:\\spc5studio-6.0\\eclipse\\plugins\\com.st.tools.spc5.tools.gnu.gcc.ppcvle.win32_4.9.4.
 698              		.file 3 "c:\\spc5studio-6.0\\eclipse\\plugins\\com.st.tools.spc5.tools.gnu.gcc.ppcvle.win32_4.9.4.
 699              		.file 4 "./components/spc58xgxx_platform_component_rla/lib/include/typedefs.h"
 700              		.file 5 "./components/spc58xgxx_platform_component_rla/lib/include/spc58xgxx.h"
 701              		.file 6 "./components/spc58xgxx_low_level_drivers_component_rla/lib/include/can_lld.h"
 702              		.file 7 "./components/spc5_freertos_component_rla/lib/portable/portmacro.h"
 703              		.file 8 "./components/spc5_freertos_component_rla/lib/include/queue.h"
 704              		.file 9 "./source/crc.h"