GAS LISTING C:\Users\bayra\AppData\Local\Temp\ccINehac.s 			page 1


   1              		.file	"clock.c"
   2              		.section	".text","axv"
   3              	.Ltext0:
   4              		.cfi_sections	.debug_frame
   5              		.section	.text.clockInit,"axv",@progbits
   6              		.align 1
   7              		.p2align 4,,15
   8              		.globl clockInit
   9              		.type	clockInit, @function
  10              	clockInit:
  11              	.LFB5:
  12              		.file 1 "./components/spc58xgxx_clock_component_rla/lib/src/clock.c"
  13              		.loc 1 147 0
  14              		.cfi_startproc
  15              	.LVL0:
  16              	.LBB12:
  17              	.LBB13:
  18              		.loc 1 331 0
  19 0000 4BF6     		se_li %r6,63
  20 0002 70FEE7FB 		e_lis %r7,0xf7fb
  21              		.loc 1 335 0
  22 0006 6215     		se_bgeni %r5,1
  23              		.loc 1 331 0
  24 0008 6507     		se_bseti %r7,16
  25              		.loc 1 335 0
  26 000a 70B4C50F 		e_or2i %r5,42255
  27              		.loc 1 331 0
  28 000e D367     		se_stw %r6,12(%r7)
  29              		.loc 1 334 0
  30 0010 6216     		se_bgeni %r6,1
  31 0012 70CBC2F0 		e_or2i %r6,23280
  32 0016 D167     		se_stw %r6,4(%r7)
  33              		.loc 1 338 0
  34 0018 0176     		se_mr %r6,%r7
  35              		.loc 1 335 0
  36 001a D157     		se_stw %r5,4(%r7)
  37              	.L2:
  38              		.loc 1 338 0
  39 001c C376     		se_lwz %r7,12(%r6)
  40 001e 2A07     		se_cmpi %r7,0
  41 0020 7A12FFFC 		e_beq %cr0,.L2
  42              		.loc 1 342 0
  43 0024 C376     		se_lwz %r7,12(%r6)
  44 0026 67F7     		se_btsti %r7,31
  45 0028 7A020008 		e_bne %cr0,.L5
  46              	.LBE13:
  47              	.LBE12:
  48              		.loc 1 153 0
  49              		.loc 1 151 0
  50 002c 78000000 		e_b irqSysHalt
  51              	.LVL1:
  52              	.L5:
  53 0030 0004     		se_blr
  54              		.cfi_endproc
  55              	.LFE5:
  56              		.size	clockInit, .-clockInit
  57              		.section	.text.spc_clock_init,"axv",@progbits
GAS LISTING C:\Users\bayra\AppData\Local\Temp\ccINehac.s 			page 2


  58              		.align 1
  59              		.p2align 4,,15
  60              		.globl spc_clock_init
  61              		.type	spc_clock_init, @function
  62              	spc_clock_init:
  63              	.LFB6:
  64              		.loc 1 162 0
  65              		.cfi_startproc
  66 0000 182106F0 		e_stwu %r1,-16(%r1)
  67              	.LCFI0:
  68              		.cfi_def_cfa_offset 16
  69 0004 0080     		se_mflr %r0
  70              		.loc 1 165 0
  71 0006 70DEE7FB 		e_lis %r6,0xf7fb
  72              		.loc 1 162 0
  73 000a D501     		se_stw %r0,20(%r1)
  74 000c D3F1     		se_stw %r31,12(%r1)
  75              		.cfi_offset 65, 4
  76              		.cfi_offset 31, -4
  77              		.loc 1 165 0
  78 000e 6506     		se_bseti %r6,16
  79              	.L8:
  80              		.loc 1 165 0 is_stmt 0 discriminator 1
  81 0010 C076     		se_lwz %r7,0(%r6)
  82 0012 67B7     		se_btsti %r7,27
  83 0014 7A12FFFC 		e_beq %cr0,.L8
  84              		.loc 1 171 0 is_stmt 1
  85 0018 4836     		se_li %r6,3
  86 001a 70FEE7FF 		e_lis %r7,0xf7ff
  87              	.LBB24:
  88              	.LBB25:
  89              		.loc 1 44 0
  90 001e 70B5E334 		e_lis %r5,0xab34
  91              	.LBE25:
  92              	.LBE24:
  93              		.loc 1 171 0
  94 0022 6507     		se_bseti %r7,16
  95              	.LBB28:
  96              	.LBB26:
  97              		.loc 1 44 0
  98 0024 70B3C0FE 		e_or2i %r5,39166
  99              	.LBE26:
 100              	.LBE28:
 101              		.loc 1 171 0
 102 0028 B367     		se_sth %r6,6(%r7)
 103              	.LBB29:
 104              	.LBB27:
 105              		.loc 1 44 0
 106 002a 700793F6 		e_add2is %r7,0x3f6
 107 002e 54A70090 		e_stw %r5,144(%r7)
 108              		.loc 1 46 0
 109 0032 0176     		se_mr %r6,%r7
 110              		.loc 1 45 0
 111 0034 2C05     		se_bmaski %r5,0
 112 0036 54A70080 		e_stw %r5,128(%r7)
 113              	.L9:
 114              		.loc 1 46 0
GAS LISTING C:\Users\bayra\AppData\Local\Temp\ccINehac.s 			page 3


 115 003a C076     		se_lwz %r7,0(%r6)
 116 003c 74E7D7BF 		e_rlwinm %r7,%r7,26,30,31
 117 0040 2227     		se_cmpli %r7,3
 118 0042 7A02FFF8 		e_bne %cr0,.L9
 119              		.loc 1 50 0
 120 0046 70F5E334 		e_lis %r7,0xab34
 121              		.loc 1 52 0
 122 004a 70BFE3F5 		e_lis %r5,0xfbf5
 123              		.loc 1 50 0
 124 004e 70F3C0FE 		e_or2i %r7,39166
 125              		.loc 1 52 0
 126 0052 6505     		se_bseti %r5,16
 127              		.loc 1 50 0
 128 0054 54E60090 		e_stw %r7,144(%r6)
 129              		.loc 1 51 0
 130 0058 2C07     		se_bmaski %r7,0
 131 005a 54E60084 		e_stw %r7,132(%r6)
 132              	.L10:
 133              		.loc 1 52 0
 134 005e C075     		se_lwz %r7,0(%r5)
 135 0060 74E7D7BF 		e_rlwinm %r7,%r7,26,30,31
 136 0064 2227     		se_cmpli %r7,3
 137 0066 7A02FFF8 		e_bne %cr0,.L10
 138              		.loc 1 56 0
 139 006a 70F5E334 		e_lis %r7,0xab34
 140              		.loc 1 58 0
 141 006e 70DFE3F5 		e_lis %r6,0xfbf5
 142              		.loc 1 56 0
 143 0072 70F3C0FE 		e_or2i %r7,39166
 144              		.loc 1 58 0
 145 0076 6506     		se_bseti %r6,16
 146              		.loc 1 56 0
 147 0078 54E50090 		e_stw %r7,144(%r5)
 148              		.loc 1 57 0
 149 007c 2C07     		se_bmaski %r7,0
 150 007e 54E50088 		e_stw %r7,136(%r5)
 151              	.L11:
 152              		.loc 1 58 0
 153 0082 C076     		se_lwz %r7,0(%r6)
 154 0084 74E7D7BF 		e_rlwinm %r7,%r7,26,30,31
 155 0088 2227     		se_cmpli %r7,3
 156 008a 7A02FFF8 		e_bne %cr0,.L11
 157              		.loc 1 62 0
 158 008e 70F5E334 		e_lis %r7,0xab34
 159              		.loc 1 64 0
 160 0092 70BFE3F5 		e_lis %r5,0xfbf5
 161              		.loc 1 62 0
 162 0096 70F3C0FE 		e_or2i %r7,39166
 163              		.loc 1 64 0
 164 009a 6505     		se_bseti %r5,16
 165              		.loc 1 62 0
 166 009c 54E60090 		e_stw %r7,144(%r6)
 167              		.loc 1 63 0
 168 00a0 2C07     		se_bmaski %r7,0
 169 00a2 54E6008C 		e_stw %r7,140(%r6)
 170              	.L12:
 171              		.loc 1 64 0
GAS LISTING C:\Users\bayra\AppData\Local\Temp\ccINehac.s 			page 4


 172 00a6 C075     		se_lwz %r7,0(%r5)
 173 00a8 74E7D7BF 		e_rlwinm %r7,%r7,26,30,31
 174 00ac 2227     		se_cmpli %r7,3
 175 00ae 7A02FFF8 		e_bne %cr0,.L12
 176              		.loc 1 68 0
 177 00b2 2D06     		se_bmaski %r6,16
 178 00b4 70FEE7FA 		e_lis %r7,0xf7fa
 179 00b8 6507     		se_bseti %r7,16
 180 00ba 54C70300 		e_stw %r6,768(%r7)
 181              		.loc 1 69 0
 182 00be D067     		se_stw %r6,0(%r7)
 183              	.LBE27:
 184              	.LBE29:
 185              		.loc 1 181 0
 186 00c0 18E78201 		e_addi %r7,%r7,65536
 187 00c4 C077     		se_lwz %r7,0(%r7)
 188 00c6 69C7     		se_srwi %r7,28
 189 00c8 2227     		se_cmpli %r7,3
 190 00ca 7A120008 		e_beq %cr0,.L13
 191              		.loc 1 182 0
 192 00ce 78000001 		e_bl irqSysHalt
 193              	.LVL2:
 194              	.L13:
 195              		.loc 1 200 0
 196 00d2 70B0E003 		e_lis %r5,0x8003
 197              		.loc 1 224 0
 198 00d6 6273     		se_bgeni %r3,7
 199              		.loc 1 223 0
 200 00d8 6260     		se_bgeni %r0,6
 201              		.loc 1 211 0
 202 00da 71600000 		e_li %r11,0
 203              		.loc 1 213 0
 204 00de 7130E004 		e_lis %r9,0x8004
 205              		.loc 1 209 0
 206 00e2 70D0E009 		e_lis %r6,0x8009
 207              		.loc 1 198 0
 208 00e6 7190E000 		e_lis %r12,0x8000
 209              		.loc 1 206 0
 210 00ea 7110E018 		e_lis %r8,0x8018
 211              		.loc 1 195 0
 212 00ee 709EE7FB 		e_lis %r4,0xf7fb
 213              		.loc 1 198 0
 214 00f2 70FEE7FB 		e_lis %r7,0xf7fb
 215              		.loc 1 195 0
 216 00f6 6564     		se_bseti %r4,22
 217              		.loc 1 198 0
 218 00f8 18E7D106 		e_ori %r7,%r7,1536
 219              		.loc 1 195 0
 220 00fc 51440000 		e_lwz %r10,0(%r4)
 221 0100 483F     		se_li %r31,3
 222 0102 77EA0F7C 		e_rlwimi %r10,%r31,1,29,30
 223 0106 55440000 		e_stw %r10,0(%r4)
 224              		.loc 1 198 0
 225 010a 558701E8 		e_stw %r12,488(%r7)
 226              		.loc 1 199 0
 227 010e 7090E001 		e_lis %r4,0x8001
 228              		.loc 1 226 0
GAS LISTING C:\Users\bayra\AppData\Local\Temp\ccINehac.s 			page 5


 229 0112 715EE7F9 		e_lis %r10,0xf7f9
 230              		.loc 1 199 0
 231 0116 548701EC 		e_stw %r4,492(%r7)
 232              		.loc 1 226 0
 233 011a 194AD140 		e_ori %r10,%r10,16384
 234              		.loc 1 200 0
 235 011e 54A701F0 		e_stw %r5,496(%r7)
 236              		.loc 1 237 0
 237 0122 709EE7FB 		e_lis %r4,0xf7fb
 238              		.loc 1 201 0
 239 0126 558701F4 		e_stw %r12,500(%r7)
 240              		.loc 1 237 0
 241 012a 6504     		se_bseti %r4,16
 242              		.loc 1 202 0
 243 012c 54A701F8 		e_stw %r5,504(%r7)
 244              		.loc 1 205 0
 245 0130 54A70208 		e_stw %r5,520(%r7)
 246              		.loc 1 206 0
 247 0134 5507020C 		e_stw %r8,524(%r7)
 248              		.loc 1 207 0
 249 0138 55070210 		e_stw %r8,528(%r7)
 250              		.loc 1 208 0
 251 013c 54A70214 		e_stw %r5,532(%r7)
 252              		.loc 1 209 0
 253 0140 54C70248 		e_stw %r6,584(%r7)
 254              		.loc 1 210 0
 255 0144 54C7024C 		e_stw %r6,588(%r7)
 256              		.loc 1 211 0
 257 0148 556702C8 		e_stw %r11,712(%r7)
 258              	.LBB30:
 259              	.LBB31:
 260              		.loc 1 338 0
 261 014c 0146     		se_mr %r6,%r4
 262              	.LBE31:
 263              	.LBE30:
 264              		.loc 1 212 0
 265 014e 556702E8 		e_stw %r11,744(%r7)
 266              		.loc 1 213 0
 267 0152 55270308 		e_stw %r9,776(%r7)
 268              		.loc 1 214 0
 269 0156 55270328 		e_stw %r9,808(%r7)
 270              		.loc 1 215 0
 271 015a 55270368 		e_stw %r9,872(%r7)
 272              		.loc 1 216 0
 273 015e 54A70388 		e_stw %r5,904(%r7)
 274              		.loc 1 217 0
 275 0162 54A7038C 		e_stw %r5,908(%r7)
 276              		.loc 1 218 0
 277 0166 54A70390 		e_stw %r5,912(%r7)
 278              		.loc 1 219 0
 279 016a 54A70394 		e_stw %r5,916(%r7)
 280              		.loc 1 220 0
 281 016e 54A70398 		e_stw %r5,920(%r7)
 282              		.loc 1 223 0
 283 0172 54070200 		e_stw %r0,512(%r7)
 284              		.loc 1 224 0
 285 0176 54670260 		e_stw %r3,608(%r7)
GAS LISTING C:\Users\bayra\AppData\Local\Temp\ccINehac.s 			page 6


 286              		.loc 1 225 0
 287 017a 54670280 		e_stw %r3,640(%r7)
 288              		.loc 1 226 0
 289 017e 50AA0004 		e_lwz %r5,4(%r10)
 290 0182 756564A6 		e_rlwimi %r5,%r11,12,18,19
 291 0186 54AA0004 		e_stw %r5,4(%r10)
 292              		.loc 1 227 0
 293 018a 540702C0 		e_stw %r0,704(%r7)
 294              		.loc 1 228 0
 295 018e 540702E0 		e_stw %r0,736(%r7)
 296              		.loc 1 229 0
 297 0192 54670300 		e_stw %r3,768(%r7)
 298              		.loc 1 230 0
 299 0196 54670320 		e_stw %r3,800(%r7)
 300              		.loc 1 231 0
 301 019a 54670360 		e_stw %r3,864(%r7)
 302              		.loc 1 232 0
 303 019e 54070380 		e_stw %r0,896(%r7)
 304              		.loc 1 237 0
 305 01a2 70E0E013 		e_lis %r7,0x13
 306 01a6 18E7D030 		e_ori %r7,%r7,48
 307 01aa DB74     		se_stw %r7,44(%r4)
 308              	.LVL3:
 309              	.LBB33:
 310              	.LBB32:
 311              		.loc 1 331 0
 312 01ac 4BF7     		se_li %r7,63
 313 01ae D374     		se_stw %r7,12(%r4)
 314              		.loc 1 334 0
 315 01b0 70E6E000 		e_lis %r7,0x3000
 316 01b4 70EBC2F0 		e_or2i %r7,23280
 317 01b8 D174     		se_stw %r7,4(%r4)
 318              		.loc 1 335 0
 319 01ba 70E6E000 		e_lis %r7,0x3000
 320 01be 70F4C50F 		e_or2i %r7,42255
 321 01c2 D174     		se_stw %r7,4(%r4)
 322              	.L14:
 323              		.loc 1 338 0
 324 01c4 C376     		se_lwz %r7,12(%r6)
 325 01c6 2A07     		se_cmpi %r7,0
 326 01c8 7A12FFFC 		e_beq %cr0,.L14
 327              		.loc 1 342 0
 328 01cc C376     		se_lwz %r7,12(%r6)
 329 01ce 67F7     		se_btsti %r7,31
 330 01d0 7A020008 		e_bne %cr0,.L19
 331              	.LBE32:
 332              	.LBE33:
 333              		.loc 1 241 0
 334 01d4 78000001 		e_bl irqSysHalt
 335              	.LVL4:
 336              	.L19:
 337              		.loc 1 246 0
 338 01d8 4807     		se_li %r7,0
 339 01da 70DEE7FB 		e_lis %r6,0xf7fb
 340              		.loc 1 247 0
 341 01de 70AAE001 		e_lis %r5,0x5001
 342              		.loc 1 246 0
GAS LISTING C:\Users\bayra\AppData\Local\Temp\ccINehac.s 			page 7


 343 01e2 6576     		se_bseti %r6,23
 344              		.loc 1 247 0
 345 01e4 70AAC032 		e_or2i %r5,20530
 346              		.loc 1 246 0
 347 01e8 D076     		se_stw %r7,0(%r6)
 348              		.loc 1 247 0
 349 01ea D256     		se_stw %r5,8(%r6)
 350              		.loc 1 251 0
 351 01ec D876     		se_stw %r7,32(%r6)
 352              		.loc 1 252 0
 353 01ee 70A01012 		e_li %r5,131090
 354              		.loc 1 258 0
 355 01f2 70FEE7FB 		e_lis %r7,0xf7fb
 356              		.loc 1 252 0
 357 01f6 DA56     		se_stw %r5,40(%r6)
 358              		.loc 1 258 0
 359 01f8 6507     		se_bseti %r7,16
 360 01fa 4886     		se_li %r6,8
 361              		.loc 1 261 0
 362 01fc 70A0E013 		e_lis %r5,0x13
 363              		.loc 1 258 0
 364 0200 D367     		se_stw %r6,12(%r7)
 365              		.loc 1 261 0
 366 0202 18A5D0F4 		e_ori %r5,%r5,244
 367              		.loc 1 259 0
 368 0206 70C405FD 		e_li %r6,9725
 369 020a D267     		se_stw %r6,8(%r7)
 370              		.loc 1 260 0
 371 020c 70C0E093 		e_lis %r6,0x93
 372 0210 65B6     		se_bseti %r6,27
 373 0212 DA67     		se_stw %r6,40(%r7)
 374              		.loc 1 261 0
 375 0214 DB57     		se_stw %r5,44(%r7)
 376              		.loc 1 263 0
 377 0216 70C0E013 		e_lis %r6,0x13
 378              		.loc 1 262 0
 379 021a DC57     		se_stw %r5,48(%r7)
 380              		.loc 1 263 0
 381 021c 65B6     		se_bseti %r6,27
 382 021e DD67     		se_stw %r6,52(%r7)
 383              		.loc 1 264 0
 384 0220 DE67     		se_stw %r6,56(%r7)
 385              		.loc 1 265 0
 386 0222 DF67     		se_stw %r6,60(%r7)
 387              		.loc 1 266 0
 388 0224 70C0E012 		e_lis %r6,0x12
 389 0228 65B6     		se_bseti %r6,27
 390 022a 54C70040 		e_stw %r6,64(%r7)
 391              		.loc 1 267 0
 392 022e 70C0E011 		e_lis %r6,0x11
 393 0232 65B6     		se_bseti %r6,27
 394 0234 54C70048 		e_stw %r6,72(%r7)
 395              		.loc 1 268 0
 396 0238 70C0E081 		e_lis %r6,0x81
 397 023c 18C6D01F 		e_ori %r6,%r6,31
 398 0240 54C70054 		e_stw %r6,84(%r7)
 399              		.loc 1 269 0
GAS LISTING C:\Users\bayra\AppData\Local\Temp\ccINehac.s 			page 8


 400 0244 C377     		se_lwz %r7,12(%r7)
 401 0246 67C7     		se_btsti %r7,28
 402 0248 7A020110 		e_bne %cr0,.L29
 403              	.L16:
 404              		.loc 1 275 0
 405 024c 4806     		se_li %r6,0
 406              	.LBB34:
 407              	.LBB35:
 408              		.loc 1 84 0
 409 024e 4814     		se_li %r4,1
 410              	.LBE35:
 411              	.LBE34:
 412              	.LBB41:
 413              	.LBB42:
 414              		.loc 1 126 0
 415 0250 715EE402 		e_lis %r10,0xf402
 416              	.LBE42:
 417              	.LBE41:
 418              		.loc 1 276 0
 419 0254 70A000FC 		e_li %r5,252
 420              		.loc 1 284 0
 421 0258 70640500 		e_li %r3,9472
 422              		.loc 1 275 0
 423 025c 70FEE7FB 		e_lis %r7,0xf7fb
 424              	.LBB50:
 425              	.LBB43:
 426              		.loc 1 127 0
 427 0260 713EE402 		e_lis %r9,0xf402
 428              	.LBE43:
 429              	.LBE50:
 430              		.loc 1 275 0
 431 0264 6507     		se_bseti %r7,16
 432              	.LBB51:
 433              	.LBB44:
 434              		.loc 1 127 0
 435 0266 1929D140 		e_ori %r9,%r9,16384
 436              	.LBE44:
 437              	.LBE51:
 438              		.loc 1 275 0
 439 026a 54C70080 		e_stw %r6,128(%r7)
 440              	.LBB52:
 441              	.LBB45:
 442              		.loc 1 128 0
 443 026e 717EE40A 		e_lis %r11,0xf40a
 444              	.LBE45:
 445              	.LBE52:
 446              		.loc 1 276 0
 447 0272 54A70084 		e_stw %r5,132(%r7)
 448              	.LBB53:
 449              	.LBB46:
 450              		.loc 1 128 0
 451 0276 196BD180 		e_ori %r11,%r11,32768
 452              	.LBE46:
 453              	.LBE53:
 454              		.loc 1 277 0
 455 027a 70A000F8 		e_li %r5,248
 456              	.LBB54:
GAS LISTING C:\Users\bayra\AppData\Local\Temp\ccINehac.s 			page 9


 457              	.LBB36:
 458              		.loc 1 103 0
 459 027e 71000005 		e_li %r8,5
 460              	.LBE36:
 461              	.LBE54:
 462              		.loc 1 277 0
 463 0282 54A70088 		e_stw %r5,136(%r7)
 464              		.loc 1 278 0
 465 0286 54C7008C 		e_stw %r6,140(%r7)
 466              	.LBB55:
 467              	.LBB37:
 468              		.loc 1 83 0
 469 028a 70BEE403 		e_lis %r5,0xf403
 470              	.LBE37:
 471              	.LBE55:
 472              		.loc 1 279 0
 473 028e 54C70090 		e_stw %r6,144(%r7)
 474              	.LBB56:
 475              	.LBB38:
 476              		.loc 1 83 0
 477 0292 6515     		se_bseti %r5,17
 478              	.LBE38:
 479              	.LBE56:
 480              		.loc 1 280 0
 481 0294 54C70094 		e_stw %r6,148(%r7)
 482              		.loc 1 281 0
 483 0298 54C70098 		e_stw %r6,152(%r7)
 484              		.loc 1 282 0
 485 029c 54C7009C 		e_stw %r6,156(%r7)
 486              		.loc 1 283 0
 487 02a0 54C700A0 		e_stw %r6,160(%r7)
 488              		.loc 1 284 0
 489 02a4 546700A4 		e_stw %r3,164(%r7)
 490              		.loc 1 285 0
 491 02a8 6373     		se_bgeni %r3,23
 492 02aa 546700A8 		e_stw %r3,168(%r7)
 493              		.loc 1 286 0
 494 02ae 6353     		se_bgeni %r3,21
 495 02b0 546700AC 		e_stw %r3,172(%r7)
 496              		.loc 1 287 0
 497 02b4 54C700B0 		e_stw %r6,176(%r7)
 498              	.LBB57:
 499              	.LBB47:
 500              		.loc 1 129 0
 501 02b8 707EE40A 		e_lis %r3,0xf40a
 502              	.LBE47:
 503              	.LBE57:
 504              		.loc 1 288 0
 505 02bc 54C700B4 		e_stw %r6,180(%r7)
 506              	.LBB58:
 507              	.LBB48:
 508              		.loc 1 129 0
 509 02c0 1863D1C0 		e_ori %r3,%r3,49152
 510              	.LBE48:
 511              	.LBE58:
 512              		.loc 1 289 0
 513 02c4 54C700B8 		e_stw %r6,184(%r7)
GAS LISTING C:\Users\bayra\AppData\Local\Temp\ccINehac.s 			page 10


 514              		.loc 1 290 0
 515 02c8 54C700BC 		e_stw %r6,188(%r7)
 516              	.LVL5:
 517              	.LBB59:
 518              	.LBB39:
 519              		.loc 1 83 0
 520 02cc C005     		se_lwz %r0,0(%r5)
 521 02ce 74C06C24 		e_rlwimi %r0,%r6,13,16,18
 522              	.LBE39:
 523              	.LBE59:
 524              	.LBB60:
 525              	.LBB61:
 526              		.loc 1 338 0
 527 02d2 0176     		se_mr %r6,%r7
 528              	.LBE61:
 529              	.LBE60:
 530              	.LBB63:
 531              	.LBB40:
 532              		.loc 1 83 0
 533 02d4 D005     		se_stw %r0,0(%r5)
 534              		.loc 1 84 0
 535 02d6 C005     		se_lwz %r0,0(%r5)
 536 02d8 748007FE 		e_rlwimi %r0,%r4,0,31,31
 537 02dc D005     		se_stw %r0,0(%r5)
 538              		.loc 1 85 0
 539 02de C105     		se_lwz %r0,4(%r5)
 540 02e0 748007FE 		e_rlwimi %r0,%r4,0,31,31
 541 02e4 D105     		se_stw %r0,4(%r5)
 542              		.loc 1 103 0
 543 02e6 C005     		se_lwz %r0,0(%r5)
 544 02e8 750044EE 		e_rlwimi %r0,%r8,8,19,23
 545 02ec D005     		se_stw %r0,0(%r5)
 546              	.LVL6:
 547              	.LBE40:
 548              	.LBE63:
 549              	.LBB64:
 550              	.LBB49:
 551              		.loc 1 126 0
 552 02ee 50AA0000 		e_lwz %r5,0(%r10)
 553 02f2 748507FE 		e_rlwimi %r5,%r4,0,31,31
 554 02f6 54AA0000 		e_stw %r5,0(%r10)
 555              		.loc 1 127 0
 556 02fa 50A90000 		e_lwz %r5,0(%r9)
 557 02fe 748507FE 		e_rlwimi %r5,%r4,0,31,31
 558 0302 54A90000 		e_stw %r5,0(%r9)
 559              		.loc 1 128 0
 560 0306 50AB0000 		e_lwz %r5,0(%r11)
 561 030a 748507FE 		e_rlwimi %r5,%r4,0,31,31
 562 030e 54AB0000 		e_stw %r5,0(%r11)
 563              		.loc 1 129 0
 564 0312 C053     		se_lwz %r5,0(%r3)
 565 0314 748507FE 		e_rlwimi %r5,%r4,0,31,31
 566 0318 D053     		se_stw %r5,0(%r3)
 567              	.LVL7:
 568              	.LBE49:
 569              	.LBE64:
 570              	.LBB65:
GAS LISTING C:\Users\bayra\AppData\Local\Temp\ccINehac.s 			page 11


 571              	.LBB62:
 572              		.loc 1 331 0
 573 031a 4BF5     		se_li %r5,63
 574 031c D357     		se_stw %r5,12(%r7)
 575              		.loc 1 334 0
 576 031e 70A6E000 		e_lis %r5,0x3000
 577 0322 70ABC2F0 		e_or2i %r5,23280
 578 0326 D157     		se_stw %r5,4(%r7)
 579              		.loc 1 335 0
 580 0328 70A6E000 		e_lis %r5,0x3000
 581 032c 70B4C50F 		e_or2i %r5,42255
 582 0330 D157     		se_stw %r5,4(%r7)
 583              	.L17:
 584              		.loc 1 338 0
 585 0332 C376     		se_lwz %r7,12(%r6)
 586 0334 2A07     		se_cmpi %r7,0
 587 0336 7A12FFFC 		e_beq %cr0,.L17
 588              		.loc 1 342 0
 589 033a C376     		se_lwz %r7,12(%r6)
 590 033c 67F7     		se_btsti %r7,31
 591 033e 7A020010 		e_bne %cr0,.L30
 592              	.LBE62:
 593              	.LBE65:
 594              		.loc 1 305 0
 595 0342 C501     		se_lwz %r0,20(%r1)
 596 0344 C3F1     		se_lwz %r31,12(%r1)
 597 0346 0090     		se_mtlr %r0
 598              		.cfi_remember_state
 599              		.cfi_restore 65
 600 0348 20F1     		se_addi %r1,16
 601              	.LCFI1:
 602              		.cfi_restore 31
 603              		.cfi_def_cfa_offset 0
 604              		.loc 1 301 0
 605 034a 78000000 		e_b irqSysHalt
 606              	.LVL8:
 607              	.L30:
 608              	.LCFI2:
 609              		.cfi_restore_state
 610              		.loc 1 305 0
 611 034e C501     		se_lwz %r0,20(%r1)
 612 0350 0090     		se_mtlr %r0
 613              		.cfi_remember_state
 614              		.cfi_restore 65
 615 0352 C3F1     		se_lwz %r31,12(%r1)
 616 0354 20F1     		se_addi %r1,16
 617              	.LCFI3:
 618              		.cfi_restore 31
 619              		.cfi_def_cfa_offset 0
 620 0356 0004     		se_blr
 621              	.LVL9:
 622              	.L29:
 623              	.LCFI4:
 624              		.cfi_restore_state
 625              		.loc 1 271 0
 626 0358 78000001 		e_bl irqSysHalt
 627              	.LVL10:
GAS LISTING C:\Users\bayra\AppData\Local\Temp\ccINehac.s 			page 12


 628 035c 79FFFEF0 		e_b .L16
 629              		.cfi_endproc
 630              	.LFE6:
 631              		.size	spc_clock_init, .-spc_clock_init
 632              		.section	.text.__early_init,"axv",@progbits
 633              		.align 1
 634              		.p2align 4,,15
 635              		.globl __early_init
 636              		.type	__early_init, @function
 637              	__early_init:
 638              	.LFB7:
 639              		.loc 1 314 0
 640              		.cfi_startproc
 641              		.loc 1 317 0
 642              		.loc 1 316 0
 643 0000 78000000 		e_b spc_clock_init
 644              	.LVL11:
 645              		.cfi_endproc
 646              	.LFE7:
 647              		.size	__early_init, .-__early_init
 648              		.section	.text.SPCSetRunMode,"axv",@progbits
 649              		.align 1
 650              		.p2align 4,,15
 651              		.globl SPCSetRunMode
 652              		.type	SPCSetRunMode, @function
 653              	SPCSetRunMode:
 654              	.LFB8:
 655              		.loc 1 328 0
 656              		.cfi_startproc
 657              	.LVL12:
 658              		.loc 1 334 0
 659 0000 6DC3     		se_slwi %r3, 28
 660              	.LVL13:
 661              		.loc 1 331 0
 662 0002 70FEE7FB 		e_lis %r7,0xf7fb
 663              		.loc 1 334 0
 664 0006 0136     		se_mr %r6,%r3
 665              		.loc 1 331 0
 666 0008 6507     		se_bseti %r7,16
 667              		.loc 1 334 0
 668 000a 70CBC2F0 		e_or2i %r6,23280
 669              		.loc 1 331 0
 670 000e 4BF5     		se_li %r5,63
 671              		.loc 1 335 0
 672 0010 7074C50F 		e_or2i %r3,42255
 673              		.loc 1 331 0
 674 0014 D357     		se_stw %r5,12(%r7)
 675              		.loc 1 334 0
 676 0016 D167     		se_stw %r6,4(%r7)
 677              		.loc 1 338 0
 678 0018 0176     		se_mr %r6,%r7
 679              		.loc 1 335 0
 680 001a D137     		se_stw %r3,4(%r7)
 681              	.L33:
 682              		.loc 1 338 0 discriminator 1
 683 001c C376     		se_lwz %r7,12(%r6)
 684 001e 2A07     		se_cmpi %r7,0
GAS LISTING C:\Users\bayra\AppData\Local\Temp\ccINehac.s 			page 13


 685 0020 7A12FFFC 		e_beq %cr0,.L33
 686              		.loc 1 342 0
 687 0024 C336     		se_lwz %r3,12(%r6)
 688 0026 2E13     		se_andi %r3,1
 689              		.loc 1 347 0
 690 0028 1863E001 		e_xori %r3,%r3,1
 691 002c 0004     		se_blr
 692              		.cfi_endproc
 693              	.LFE8:
 694              		.size	SPCSetRunMode, .-SPCSetRunMode
 695              		.section	.text.SPCSetPeripheralClockMode,"axv",@progbits
 696              		.align 1
 697              		.p2align 4,,15
 698              		.globl SPCSetPeripheralClockMode
 699              		.type	SPCSetPeripheralClockMode, @function
 700              	SPCSetPeripheralClockMode:
 701              	.LFB9:
 702              		.loc 1 357 0
 703              		.cfi_startproc
 704              	.LVL14:
 705              		.loc 1 360 0
 706 0000 00C4     		se_extzb %r4
 707              	.LVL15:
 708 0002 70FEE7FB 		e_lis %r7,0xf7fb
 709 0006 6507     		se_bseti %r7,16
 710 0008 7C671A14 		add %r3,%r7,%r3
 711              	.LVL16:
 712              	.LBB66:
 713              	.LBB67:
 714              		.loc 1 338 0
 715 000c 0176     		se_mr %r6,%r7
 716              	.LBE67:
 717              	.LBE66:
 718              		.loc 1 360 0
 719 000e 348300C0 		e_stb %r4,192(%r3)
 720              	.LBB70:
 721              	.LBB68:
 722              		.loc 1 331 0
 723 0012 4BF4     		se_li %r4,63
 724              	.LBE68:
 725              	.LBE70:
 726              		.loc 1 361 0
 727 0014 C157     		se_lwz %r5,4(%r7)
 728              	.LVL17:
 729              	.LBB71:
 730              	.LBB69:
 731              		.loc 1 331 0
 732 0016 D347     		se_stw %r4,12(%r7)
 733              		.loc 1 334 0
 734 0018 18A5C3F0 		e_andi %r5,%r5,-268435456
 735              	.LVL18:
 736 001c 0154     		se_mr %r4,%r5
 737              		.loc 1 335 0
 738 001e 70B4C50F 		e_or2i %r5,42255
 739              		.loc 1 334 0
 740 0022 708BC2F0 		e_or2i %r4,23280
 741 0026 D147     		se_stw %r4,4(%r7)
GAS LISTING C:\Users\bayra\AppData\Local\Temp\ccINehac.s 			page 14


 742              		.loc 1 335 0
 743 0028 D157     		se_stw %r5,4(%r7)
 744              	.L36:
 745              		.loc 1 338 0
 746 002a C376     		se_lwz %r7,12(%r6)
 747 002c 2A07     		se_cmpi %r7,0
 748 002e 7A12FFFC 		e_beq %cr0,.L36
 749              		.loc 1 342 0
 750 0032 C376     		se_lwz %r7,12(%r6)
 751 0034 67F7     		se_btsti %r7,31
 752 0036 7A020008 		e_bne %cr0,.L39
 753              	.LBE69:
 754              	.LBE71:
 755              		.loc 1 365 0
 756              		.loc 1 363 0
 757 003a 78000000 		e_b irqSysHalt
 758              	.LVL19:
 759              	.L39:
 760 003e 0004     		se_blr
 761              		.cfi_endproc
 762              	.LFE9:
 763              		.size	SPCSetPeripheralClockMode, .-SPCSetPeripheralClockMode
 764              		.section	.text.SPCGetSystemClock,"axv",@progbits
 765              		.align 1
 766              		.p2align 4,,15
 767              		.globl SPCGetSystemClock
 768              		.type	SPCGetSystemClock, @function
 769              	SPCGetSystemClock:
 770              	.LFB10:
 771              		.loc 1 373 0
 772              		.cfi_startproc
 773              		.loc 1 377 0
 774 0000 70DEE7FB 		e_lis %r6,0xf7fb
 775              		.loc 1 378 0
 776 0004 4813     		se_li %r3,1
 777              		.loc 1 377 0
 778 0006 18C6D106 		e_ori %r6,%r6,1536
 779 000a 50E601E8 		e_lwz %r7,488(%r6)
 780 000e 2A07     		se_cmpi %r7,0
 781 0010 7A00000E 		e_bge %cr0,.L41
 782              		.loc 1 380 0
 783 0014 506601E8 		e_lwz %r3,488(%r6)
 784 0018 746386BF 		e_rlwinm %r3,%r3,16,26,31
 785 001c 2003     		se_addi %r3,1
 786              	.LVL20:
 787              	.L41:
 788              		.loc 1 383 0
 789 001e 70FEE7FB 		e_lis %r7,0xf7fb
 790 0022 6507     		se_bseti %r7,16
 791 0024 C077     		se_lwz %r7,0(%r7)
 792 0026 2EF7     		se_andi %r7,15
 793              	.LVL21:
 794              		.loc 1 384 0
 795 0028 2237     		se_cmpli %r7,4
 796 002a 7A110052 		e_bgt %cr0,.L49
 797 002e 6C27     		se_slwi %r7, 2
 798              	.LVL22:
GAS LISTING C:\Users\bayra\AppData\Local\Temp\ccINehac.s 			page 15


 799 0030 70C0E000 		e_lis %r6,.L44@ha
 800 0034 1CC60000 		e_la %r6,.L44@l(%r6)
 801 0038 7CE6382E 		lwzx %r7,%r6,%r7
 802 003c 7CC73214 		add %r6,%r7,%r6
 803 0040 00B6     		se_mtctr %r6
 804 0042 0006     		se_bctr
 805              		.section	.rodata.SPCGetSystemClock,"a",@progbits
 806              		.align 2
 807              		.align 2
 808              	.L44:
 809 0000 00000000 		.long .L43-.L44
 810 0004 00000000 		.long .L45-.L44
 811 0008 00000000 		.long .L46-.L44
 812 000c 00000000 		.long .L49-.L44
 813 0010 00000000 		.long .L47-.L44
 814              		.section	.text.SPCGetSystemClock
 815              	.L47:
 816              		.loc 1 392 0
 817 0044 70E1E2BA 		e_lis %r7,0xaba
 818 0048 18E7D195 		e_ori %r7,%r7,38144
 819 004c 7C671B96 		divwu %r3,%r7,%r3
 820              	.LVL23:
 821 0050 0004     		se_blr
 822              	.LVL24:
 823              	.L46:
 824              		.loc 1 390 0
 825 0052 70E2E7D7 		e_lis %r7,0x17d7
 826 0056 18E7D184 		e_ori %r7,%r7,33792
 827 005a 7C671B96 		divwu %r3,%r7,%r3
 828              	.LVL25:
 829 005e 0004     		se_blr
 830              	.LVL26:
 831              	.L45:
 832              		.loc 1 388 0
 833 0060 70E0E262 		e_lis %r7,0x262
 834 0064 18E7D15A 		e_ori %r7,%r7,23040
 835 0068 7C671B96 		divwu %r3,%r7,%r3
 836              	.LVL27:
 837 006c 0004     		se_blr
 838              	.LVL28:
 839              	.L43:
 840              		.loc 1 386 0
 841 006e 70E0E0F4 		e_lis %r7,0xf4
 842 0072 18E7D124 		e_ori %r7,%r7,9216
 843 0076 7C671B96 		divwu %r3,%r7,%r3
 844              	.LVL29:
 845 007a 0004     		se_blr
 846              	.LVL30:
 847              	.L49:
 848              		.loc 1 394 0
 849 007c 4803     		se_li %r3,0
 850              	.LVL31:
 851              		.loc 1 396 0
 852 007e 0004     		se_blr
 853              		.cfi_endproc
 854              	.LFE10:
 855              		.size	SPCGetSystemClock, .-SPCGetSystemClock
GAS LISTING C:\Users\bayra\AppData\Local\Temp\ccINehac.s 			page 16


 856              		.section	".text","axv"
 857              	.Letext0:
 858              		.file 2 "c:\\spc5studio-6.0\\eclipse\\plugins\\com.st.tools.spc5.tools.gnu.gcc.ppcvle.win32_4.9.4.
 859              		.file 3 "c:\\spc5studio-6.0\\eclipse\\plugins\\com.st.tools.spc5.tools.gnu.gcc.ppcvle.win32_4.9.4.
 860              		.file 4 "./components/spc58xgxx_platform_component_rla/lib/include/typedefs.h"
 861              		.file 5 "./components/spc58xgxx_platform_component_rla/lib/include/spc58xgxx.h"
 862              		.file 6 "./components/spc58xgxx_irq_component_rla/lib/include/irq.h"