GAS LISTING C:\Users\bayra\AppData\Local\Temp\ccSBDtea.s 			page 1


   1              		.file	"h302.c"
   2              		.section	".text","axv"
   3              	.Ltext0:
   4              		.cfi_sections	.debug_frame
   5              		.globl __ltsf2
   6              		.globl __extendsfdf2
   7              		.globl __divdf3
   8              		.globl __fixunsdfsi
   9              		.globl __gtsf2
  10              		.section	.text.Steering_assist,"axv",@progbits
  11              		.align 1
  12              		.p2align 4,,15
  13              		.globl Steering_assist
  14              		.type	Steering_assist, @function
  15              	Steering_assist:
  16              	.LFB0:
  17              		.file 1 "./source/h302.c"
  18              		.loc 1 18 0
  19              		.cfi_startproc
  20              	.LVL0:
  21 0000 182106E0 		e_stwu %r1,-32(%r1)
  22              	.LCFI0:
  23              		.cfi_def_cfa_offset 32
  24 0004 0080     		se_mflr %r0
  25 0006 1B61090C 		e_stmw %r27,12(%r1)
  26 000a D901     		se_stw %r0,36(%r1)
  27              		.cfi_offset 65, 4
  28              		.cfi_offset 27, -20
  29              		.cfi_offset 28, -16
  30              		.cfi_offset 29, -12
  31              		.cfi_offset 30, -8
  32              		.cfi_offset 31, -4
  33              		.loc 1 18 0
  34 000c 013F     		se_mr %r31,%r3
  35 000e 014E     		se_mr %r30,%r4
  36              		.loc 1 19 0
  37 0010 2A06     		se_cmpi %r6,0
  38 0012 7A12008E 		e_beq %cr0,.L2
  39              	.LVL1:
  40              	.LBB2:
  41              		.loc 1 22 0
  42 0016 0157     		se_mr %r7,%r5
  43 0018 7005A8FA 		e_cmpl16i %r5,250
  44 001c 7A1100B2 		e_bgt %cr0,.L16
  45              		.loc 1 26 0
  46 0020 7378E3ED 		e_lis %r27,0xc3ed
  47              		.loc 1 22 0
  48 0024 74FC063F 		e_rlwinm %r28,%r7,0,0xff
  49              	.LVL2:
  50              		.loc 1 26 0
  51 0028 650B     		se_bseti %r27,16
  52 002a 01E3     		se_mr %r3,%r30
  53              	.LVL3:
  54 002c 01B4     		se_mr %r4,%r27
  55              	.LVL4:
  56 002e 78000001 		e_bl __ltsf2
  57              	.LVL5:
GAS LISTING C:\Users\bayra\AppData\Local\Temp\ccSBDtea.s 			page 2


  58 0032 2A03     		se_cmpi %r3,0
  59 0034 7A10008E 		e_blt %cr0,.L10
  60              	.LVL6:
  61              	.L17:
  62 0038 1BC3C77F 		e_andi %r3,%r30,2147483647
  63 003c 78000001 		e_bl __extendsfdf2
  64              	.LVL7:
  65 0040 70A7E792 		e_lis %r5,0x3f92
  66 0044 70C3E0FC 		e_lis %r6,0x18fc
  67 0048 70BAC773 		e_or2i %r5,55155
  68 004c 70CAC048 		e_or2i %r6,20552
  69 0050 78000001 		e_bl __divdf3
  70              	.LVL8:
  71 0054 78000001 		e_bl __fixunsdfsi
  72              	.LVL9:
  73 0058 00E3     		se_extzh %r3
  74 005a 7C7D4470 		e_srwi %r29,%r3,8
  75 005e 00C3     		se_extzb %r3
  76              	.LVL10:
  77              	.L4:
  78              	.LBB3:
  79              		.loc 1 32 0 discriminator 4
  80 0060 4985     		se_li %r5,24
  81 0062 18FF84FF 		e_addi %r7,%r31,-1
  82 0066 4806     		se_li %r6,0
  83 0068 00B5     		se_mtctr %r5
  84              	.LVL11:
  85              	.L5:
  86              		.loc 1 32 0 is_stmt 0 discriminator 3
  87 006a 18C70401 		e_stbu %r6,1(%r7)
  88              		.loc 1 30 0 is_stmt 1 discriminator 3
  89 006e 7A20FFFC 		e_bdnz .L5
  90              	.LBE3:
  91              		.loc 1 34 0
  92 0072 4C07     		se_li %r7,64
  93              		.loc 1 38 0
  94 0074 933F     		se_stb %r3,3(%r31)
  95              		.loc 1 34 0
  96 0076 917F     		se_stb %r7,1(%r31)
  97              		.loc 1 35 0
  98 0078 92CF     		se_stb %r28,2(%r31)
  99              		.loc 1 39 0
 100 007a 4847     		se_li %r7,4
 101              		.loc 1 37 0
 102 007c 94DF     		se_stb %r29,4(%r31)
 103              		.loc 1 39 0
 104 007e 987F     		se_stb %r7,8(%r31)
 105              		.loc 1 40 0
 106 0080 01E3     		se_mr %r3,%r30
 107 0082 4804     		se_li %r4,0
 108 0084 78000001 		e_bl __gtsf2
 109              	.LVL12:
 110 0088 2A03     		se_cmpi %r3,0
 111 008a 7A010064 		e_ble %cr0,.L14
 112              		.loc 1 42 0
 113 008e 1BBDD480 		e_ori %r29,%r29,-128
 114 0092 94DF     		se_stb %r29,4(%r31)
GAS LISTING C:\Users\bayra\AppData\Local\Temp\ccSBDtea.s 			page 3


 115              	.LBE2:
 116              		.loc 1 57 0
 117 0094 C901     		se_lwz %r0,36(%r1)
 118 0096 0090     		se_mtlr %r0
 119              		.cfi_remember_state
 120              		.cfi_restore 65
 121 0098 1B61080C 		e_lmw %r27,12(%r1)
 122              	.LVL13:
 123 009c 21F1     		se_addi %r1,32
 124              	.LCFI1:
 125              		.cfi_restore 27
 126              		.cfi_restore 28
 127              		.cfi_restore 29
 128              		.cfi_restore 30
 129              		.cfi_restore 31
 130              		.cfi_def_cfa_offset 0
 131 009e 0004     		se_blr
 132              	.LVL14:
 133              	.L2:
 134              	.LCFI2:
 135              		.cfi_restore_state
 136              	.LBB4:
 137              		.loc 1 53 0
 138 00a0 4985     		se_li %r5,24
 139              	.LVL15:
 140 00a2 18E384FF 		e_addi %r7,%r3,-1
 141 00a6 4806     		se_li %r6,0
 142              	.LVL16:
 143 00a8 00B5     		se_mtctr %r5
 144              	.L9:
 145              		.loc 1 53 0 is_stmt 0 discriminator 3
 146 00aa 18C70401 		e_stbu %r6,1(%r7)
 147              	.LVL17:
 148              		.loc 1 51 0 is_stmt 1 discriminator 3
 149 00ae 7A20FFFC 		e_bdnz .L9
 150              	.LBE4:
 151              		.loc 1 55 0
 152 00b2 4A07     		se_li %r7,32
 153 00b4 917F     		se_stb %r7,1(%r31)
 154              		.loc 1 57 0
 155 00b6 C901     		se_lwz %r0,36(%r1)
 156 00b8 0090     		se_mtlr %r0
 157              		.cfi_remember_state
 158              		.cfi_restore 65
 159 00ba 1B61080C 		e_lmw %r27,12(%r1)
 160 00be 21F1     		se_addi %r1,32
 161              	.LCFI3:
 162              		.cfi_restore 31
 163              		.cfi_restore 30
 164              		.cfi_restore 29
 165              		.cfi_restore 28
 166              		.cfi_restore 27
 167              		.cfi_def_cfa_offset 0
 168 00c0 0004     		se_blr
 169              	.LVL18:
 170              	.L10:
 171              	.LCFI4:
GAS LISTING C:\Users\bayra\AppData\Local\Temp\ccSBDtea.s 			page 4


 172              		.cfi_restore_state
 173              	.LBB5:
 174 00c2 706000D7 		e_li %r3,215
 175 00c6 4E4D     		se_li %r29,100
 176              		.loc 1 26 0
 177 00c8 01BE     		se_mr %r30,%r27
 178              	.LVL19:
 179 00ca 79FFFF96 		e_b .L4
 180              	.LVL20:
 181              	.L16:
 182              		.loc 1 22 0
 183 00ce 70FF7FFA 		e_li %r7,-6
 184              		.loc 1 26 0
 185 00d2 7378E3ED 		e_lis %r27,0xc3ed
 186              		.loc 1 22 0
 187 00d6 74FC063F 		e_rlwinm %r28,%r7,0,0xff
 188              	.LVL21:
 189              		.loc 1 26 0
 190 00da 650B     		se_bseti %r27,16
 191 00dc 01E3     		se_mr %r3,%r30
 192              	.LVL22:
 193 00de 01B4     		se_mr %r4,%r27
 194              	.LVL23:
 195 00e0 78000001 		e_bl __ltsf2
 196              	.LVL24:
 197 00e4 2A03     		se_cmpi %r3,0
 198 00e6 7A10FFDC 		e_blt %cr0,.L10
 199 00ea 79FFFF4E 		e_b .L17
 200              	.LVL25:
 201              	.L14:
 202              		.loc 1 46 0
 203 00ee 1BBDC07F 		e_andi %r29,%r29,127
 204 00f2 94DF     		se_stb %r29,4(%r31)
 205              	.LBE5:
 206              		.loc 1 57 0
 207 00f4 C901     		se_lwz %r0,36(%r1)
 208 00f6 0090     		se_mtlr %r0
 209              		.cfi_restore 65
 210 00f8 1B61080C 		e_lmw %r27,12(%r1)
 211              	.LVL26:
 212 00fc 21F1     		se_addi %r1,32
 213              	.LCFI5:
 214              		.cfi_restore 27
 215              		.cfi_restore 28
 216              		.cfi_restore 29
 217              		.cfi_restore 30
 218              		.cfi_restore 31
 219              		.cfi_def_cfa_offset 0
 220 00fe 0004     		se_blr
 221              		.cfi_endproc
 222              	.LFE0:
 223              		.size	Steering_assist, .-Steering_assist
 224              		.globl __addsf3
 225              		.globl __subsf3
 226              		.section	.text.rateLimitter,"axv",@progbits
 227              		.align 1
 228              		.p2align 4,,15
GAS LISTING C:\Users\bayra\AppData\Local\Temp\ccSBDtea.s 			page 5


 229              		.globl rateLimitter
 230              		.type	rateLimitter, @function
 231              	rateLimitter:
 232              	.LFB1:
 233              		.loc 1 61 0
 234              		.cfi_startproc
 235              	.LVL27:
 236 0000 182106E0 		e_stwu %r1,-32(%r1)
 237              	.LCFI6:
 238              		.cfi_def_cfa_offset 32
 239 0004 0080     		se_mflr %r0
 240 0006 1B61090C 		e_stmw %r27,12(%r1)
 241 000a D901     		se_stw %r0,36(%r1)
 242              		.cfi_offset 65, 4
 243              		.cfi_offset 27, -20
 244              		.cfi_offset 28, -16
 245              		.cfi_offset 29, -12
 246              		.cfi_offset 30, -8
 247              		.cfi_offset 31, -4
 248              		.loc 1 61 0
 249 000c 013E     		se_mr %r30,%r3
 250 000e 015D     		se_mr %r29,%r5
 251              		.loc 1 62 0
 252 0010 53840000 		e_lwz %r28,0(%r4)
 253              		.loc 1 61 0
 254 0014 014F     		se_mr %r31,%r4
 255              		.loc 1 62 0
 256 0016 01C3     		se_mr %r3,%r28
 257              	.LVL28:
 258 0018 0154     		se_mr %r4,%r5
 259              	.LVL29:
 260 001a 78000001 		e_bl __addsf3
 261              	.LVL30:
 262 001e 01E4     		se_mr %r4,%r30
 263 0020 013B     		se_mr %r27,%r3
 264 0022 78000001 		e_bl __ltsf2
 265              	.LVL31:
 266 0026 2A03     		se_cmpi %r3,0
 267 0028 7A10003C 		e_blt %cr0,.L28
 268              		.loc 1 66 0
 269 002c 01D4     		se_mr %r4,%r29
 270 002e 01C3     		se_mr %r3,%r28
 271 0030 78000001 		e_bl __subsf3
 272              	.LVL32:
 273 0034 013D     		se_mr %r29,%r3
 274              	.LVL33:
 275 0036 01E3     		se_mr %r3,%r30
 276 0038 01D4     		se_mr %r4,%r29
 277 003a 78000001 		e_bl __ltsf2
 278              	.LVL34:
 279 003e 2A03     		se_cmpi %r3,0
 280 0040 7A100014 		e_blt %cr0,.L29
 281              		.loc 1 74 0
 282 0044 C901     		se_lwz %r0,36(%r1)
 283 0046 0090     		se_mtlr %r0
 284              		.cfi_remember_state
 285              		.cfi_restore 65
GAS LISTING C:\Users\bayra\AppData\Local\Temp\ccSBDtea.s 			page 6


 286              		.loc 1 72 0
 287 0048 57DF0000 		e_stw %r30,0(%r31)
 288              		.loc 1 74 0
 289 004c 1B61080C 		e_lmw %r27,12(%r1)
 290              	.LVL35:
 291 0050 21F1     		se_addi %r1,32
 292              	.LCFI7:
 293              		.cfi_restore 31
 294              		.cfi_restore 30
 295              		.cfi_restore 29
 296              		.cfi_restore 28
 297              		.cfi_restore 27
 298              		.cfi_def_cfa_offset 0
 299 0052 0004     		se_blr
 300              	.LVL36:
 301              	.L29:
 302              	.LCFI8:
 303              		.cfi_restore_state
 304 0054 C901     		se_lwz %r0,36(%r1)
 305 0056 0090     		se_mtlr %r0
 306              		.cfi_remember_state
 307              		.cfi_restore 65
 308              		.loc 1 68 0
 309 0058 57BF0000 		e_stw %r29,0(%r31)
 310              		.loc 1 74 0
 311 005c 1B61080C 		e_lmw %r27,12(%r1)
 312              	.LVL37:
 313 0060 21F1     		se_addi %r1,32
 314              	.LCFI9:
 315              		.cfi_restore 27
 316              		.cfi_restore 28
 317              		.cfi_restore 29
 318              		.cfi_restore 30
 319              		.cfi_restore 31
 320              		.cfi_def_cfa_offset 0
 321 0062 0004     		se_blr
 322              	.LVL38:
 323              	.L28:
 324              	.LCFI10:
 325              		.cfi_restore_state
 326 0064 C901     		se_lwz %r0,36(%r1)
 327 0066 0090     		se_mtlr %r0
 328              		.cfi_restore 65
 329              		.loc 1 64 0
 330 0068 577F0000 		e_stw %r27,0(%r31)
 331              		.loc 1 74 0
 332 006c 1B61080C 		e_lmw %r27,12(%r1)
 333              	.LVL39:
 334 0070 21F1     		se_addi %r1,32
 335              	.LCFI11:
 336              		.cfi_restore 27
 337              		.cfi_restore 28
 338              		.cfi_restore 29
 339              		.cfi_restore 30
 340              		.cfi_restore 31
 341              		.cfi_def_cfa_offset 0
 342 0072 0004     		se_blr
GAS LISTING C:\Users\bayra\AppData\Local\Temp\ccSBDtea.s 			page 7


 343              		.cfi_endproc
 344              	.LFE1:
 345              		.size	rateLimitter, .-rateLimitter
 346              		.section	".text","axv"
 347              	.Letext0:
 348              		.file 2 "c:\\spc5studio-6.0\\eclipse\\plugins\\com.st.tools.spc5.tools.gnu.gcc.ppcvle.win32_4.9.4.
 349              		.file 3 "c:\\spc5studio-6.0\\eclipse\\plugins\\com.st.tools.spc5.tools.gnu.gcc.ppcvle.win32_4.9.4.