GAS LISTING C:\Users\bayra\AppData\Local\Temp\cchSvTJL.s 			page 1


   1              		.file	"heap_4.c"
   2              		.section	".text","axv"
   3              	.Ltext0:
   4              		.cfi_sections	.debug_frame
   5              		.section	.text.prvInsertBlockIntoFreeList,"axv",@progbits
   6              		.align 1
   7              		.p2align 4,,15
   8              		.type	prvInsertBlockIntoFreeList, @function
   9              	prvInsertBlockIntoFreeList:
  10              	.LFB6:
  11              		.file 1 "./components/spc5_freertos_component_rla/lib/MemMang/heap_4.c"
  12              		.loc 1 378 0
  13              		.cfi_startproc
  14              	.LVL0:
  15              		.loc 1 384 0
  16 0000 70C0E000 		e_lis %r6,.LANCHOR0@ha
  17 0004 1CC60000 		e_la %r6,.LANCHOR0@l(%r6)
  18 0008 78000006 		e_b .L2
  19              	.LVL1:
  20              	.L9:
  21 000c 0176     		se_mr %r6,%r7
  22              	.LVL2:
  23              	.L2:
  24              		.loc 1 384 0 is_stmt 0 discriminator 1
  25 000e C076     		se_lwz %r7,0(%r6)
  26 0010 0D37     		se_cmpl %r7,%r3
  27 0012 7A10FFFA 		e_blt %cr0,.L9
  28              	.LVL3:
  29              		.loc 1 392 0 is_stmt 1
  30 0016 C156     		se_lwz %r5,4(%r6)
  31 0018 7C862A14 		add %r4,%r6,%r5
  32 001c 0D34     		se_cmpl %r4,%r3
  33 001e 7A120038 		e_beq %cr0,.L3
  34 0022 C153     		se_lwz %r5,4(%r3)
  35              	.L4:
  36              	.LVL4:
  37              		.loc 1 405 0
  38 0024 7C832A14 		add %r4,%r3,%r5
  39 0028 0D47     		se_cmpl %r7,%r4
  40 002a 7A120010 		e_beq %cr0,.L11
  41              	.L5:
  42              		.loc 1 420 0
  43 002e D073     		se_stw %r7,0(%r3)
  44              	.L7:
  45              		.loc 1 427 0
  46 0030 0D63     		se_cmpl %r3,%r6
  47 0032 7A120006 		e_beq %cr0,.L1
  48              		.loc 1 429 0
  49 0036 D036     		se_stw %r3,0(%r6)
  50              	.L1:
  51 0038 0004     		se_blr
  52              	.L11:
  53              		.loc 1 407 0
  54 003a 7080E000 		e_lis %r4,.LANCHOR1@ha
  55 003e 50840000 		e_lwz %r4,.LANCHOR1@l(%r4)
  56 0042 0C47     		se_cmp %r7,%r4
  57 0044 7A12FFEA 		e_beq %cr0,.L5
GAS LISTING C:\Users\bayra\AppData\Local\Temp\cchSvTJL.s 			page 2


  58              		.loc 1 410 0
  59 0048 C147     		se_lwz %r4,4(%r7)
  60              		.loc 1 411 0
  61 004a C077     		se_lwz %r7,0(%r7)
  62              		.loc 1 410 0
  63 004c 0445     		se_add %r5,%r4
  64              		.loc 1 411 0
  65 004e D073     		se_stw %r7,0(%r3)
  66              		.loc 1 410 0
  67 0050 D153     		se_stw %r5,4(%r3)
  68 0052 79FFFFDE 		e_b .L7
  69              	.LVL5:
  70              	.L3:
  71              		.loc 1 394 0
  72 0056 C143     		se_lwz %r4,4(%r3)
  73 0058 0163     		se_mr %r3,%r6
  74              	.LVL6:
  75 005a 0445     		se_add %r5,%r4
  76 005c D156     		se_stw %r5,4(%r6)
  77              	.LVL7:
  78 005e 79FFFFC6 		e_b .L4
  79              		.cfi_endproc
  80              	.LFE6:
  81              		.size	prvInsertBlockIntoFreeList, .-prvInsertBlockIntoFreeList
  82              		.section	.text.pvPortMalloc,"axv",@progbits
  83              		.align 1
  84              		.p2align 4,,15
  85              		.globl pvPortMalloc
  86              		.type	pvPortMalloc, @function
  87              	pvPortMalloc:
  88              	.LFB0:
  89              		.loc 1 114 0
  90              		.cfi_startproc
  91              	.LVL8:
  92 0000 182106E8 		e_stwu %r1,-24(%r1)
  93              	.LCFI0:
  94              		.cfi_def_cfa_offset 24
  95 0004 0080     		se_mflr %r0
  96 0006 1B810908 		e_stmw %r28,8(%r1)
  97 000a D701     		se_stw %r0,28(%r1)
  98              		.cfi_offset 65, 4
  99              		.cfi_offset 28, -16
 100              		.cfi_offset 29, -12
 101              		.cfi_offset 30, -8
 102              		.cfi_offset 31, -4
 103              		.loc 1 114 0
 104 000c 013F     		se_mr %r31,%r3
 105              		.loc 1 118 0
 106 000e 78000001 		e_bl vTaskSuspendAll
 107              	.LVL9:
 108              		.loc 1 122 0
 109 0012 70C0E000 		e_lis %r6,.LANCHOR1@ha
 110 0016 50E60000 		e_lwz %r7,.LANCHOR1@l(%r6)
 111 001a 2A07     		se_cmpi %r7,0
 112 001c 7A1200D6 		e_beq %cr0,.L13
 113 0020 70E0E000 		e_lis %r7,.LANCHOR2@ha
 114 0024 53870000 		e_lwz %r28,.LANCHOR2@l(%r7)
GAS LISTING C:\Users\bayra\AppData\Local\Temp\cchSvTJL.s 			page 3


 115              	.L14:
 116              		.loc 1 116 0
 117 0028 480D     		se_li %r29,0
 118              		.loc 1 135 0
 119 002a 7F87F839 		and. %r7,%r28,%r31
 120 002e 7A0200A0 		e_bne %cr0,.L15
 121              		.loc 1 139 0
 122 0032 2A0F     		se_cmpi %r31,0
 123 0034 7A12009A 		e_beq %cr0,.L15
 124              		.loc 1 141 0
 125 0038 18BF8008 		e_addi %r5,%r31,8
 126              	.LVL10:
 127              		.loc 1 145 0
 128 003c 18A7C003 		e_andi %r7,%r5,3
 129 0040 2A07     		se_cmpi %r7,0
 130 0042 7A12000A 		e_beq %cr0,.L16
 131              		.loc 1 148 0
 132 0046 18A5C4FC 		e_andi %r5,%r5,-4
 133              	.LVL11:
 134 004a 2035     		se_addi %r5,4
 135              	.LVL12:
 136              	.L16:
 137              		.loc 1 116 0
 138 004c 480D     		se_li %r29,0
 139              		.loc 1 161 0
 140 004e 2A05     		se_cmpi %r5,0
 141 0050 7A12007E 		e_beq %cr0,.L15
 142              		.loc 1 161 0 is_stmt 0 discriminator 1
 143 0054 70E0E000 		e_lis %r7,.LANCHOR5@ha
 144 0058 53C70000 		e_lwz %r30,.LANCHOR5@l(%r7)
 145 005c 0DE5     		se_cmpl %r5,%r30
 146 005e 7A110070 		e_bgt %cr0,.L15
 147              	.LVL13:
 148              		.loc 1 166 0 is_stmt 1
 149 0062 7080E000 		e_lis %r4,.LANCHOR0@ha
 150 0066 53E40000 		e_lwz %r31,.LANCHOR0@l(%r4)
 151              	.LVL14:
 152              		.loc 1 165 0
 153 006a 1C840000 		e_la %r4,.LANCHOR0@l(%r4)
 154              		.loc 1 167 0
 155 006e 78000010 		e_b .L19
 156              	.LVL15:
 157              	.L17:
 158              		.loc 1 167 0 is_stmt 0 discriminator 1
 159 0072 C07F     		se_lwz %r7,0(%r31)
 160 0074 2A07     		se_cmpi %r7,0
 161 0076 7A120010 		e_beq %cr0,.L28
 162 007a 01F4     		se_mr %r4,%r31
 163 007c 017F     		se_mr %r31,%r7
 164              	.LVL16:
 165              	.L19:
 166              		.loc 1 167 0
 167 007e C16F     		se_lwz %r6,4(%r31)
 168 0080 0D65     		se_cmpl %r5,%r6
 169 0082 7A11FFF0 		e_bgt %cr0,.L17
 170              	.L28:
 171              		.loc 1 175 0 is_stmt 1
GAS LISTING C:\Users\bayra\AppData\Local\Temp\cchSvTJL.s 			page 4


 172 0086 70E0E000 		e_lis %r7,.LANCHOR1@ha
 173 008a 0163     		se_mr %r3,%r6
 174 008c 50E70000 		e_lwz %r7,.LANCHOR1@l(%r7)
 175              		.loc 1 116 0
 176 0090 480D     		se_li %r29,0
 177              		.loc 1 175 0
 178 0092 0CF7     		se_cmp %r7,%r31
 179 0094 7A12003A 		e_beq %cr0,.L15
 180              		.loc 1 179 0
 181 0098 C0D4     		se_lwz %r29,0(%r4)
 182              		.loc 1 183 0
 183 009a C07F     		se_lwz %r7,0(%r31)
 184              		.loc 1 187 0
 185 009c 0656     		se_sub %r6, %r5
 186              		.loc 1 179 0
 187 009e 207D     		se_addi %r29,8
 188              	.LVL17:
 189              		.loc 1 183 0
 190 00a0 D074     		se_stw %r7,0(%r4)
 191              		.loc 1 187 0
 192 00a2 22F6     		se_cmpli %r6,16
 193 00a4 7A11003C 		e_bgt %cr0,.L30
 194              	.LVL18:
 195              	.L21:
 196              		.loc 1 209 0
 197 00a8 7CE3F050 		subf %r7, %r3, %r30
 198 00ac 70C0E000 		e_lis %r6,.LANCHOR5@ha
 199              		.loc 1 211 0
 200 00b0 70A0E000 		e_lis %r5,.LANCHOR4@ha
 201              		.loc 1 209 0
 202 00b4 54E60000 		e_stw %r7,.LANCHOR5@l(%r6)
 203              		.loc 1 211 0
 204 00b8 50C50000 		e_lwz %r6,.LANCHOR4@l(%r5)
 205 00bc 0D67     		se_cmpl %r7,%r6
 206 00be 7A000008 		e_bge %cr0,.L22
 207              		.loc 1 213 0
 208 00c2 54E50000 		e_stw %r7,.LANCHOR4@l(%r5)
 209              	.L22:
 210              		.loc 1 222 0
 211 00c6 443C     		se_or %r28,%r3
 212              		.loc 1 223 0
 213 00c8 4807     		se_li %r7,0
 214              		.loc 1 222 0
 215 00ca D1CF     		se_stw %r28,4(%r31)
 216              		.loc 1 223 0
 217 00cc D07F     		se_stw %r7,0(%r31)
 218              	.LVL19:
 219              	.L15:
 220              		.loc 1 242 0
 221 00ce 78000001 		e_bl xTaskResumeAll
 222              	.LVL20:
 223              		.loc 1 260 0
 224 00d2 C701     		se_lwz %r0,28(%r1)
 225 00d4 0090     		se_mtlr %r0
 226              		.cfi_remember_state
 227              		.cfi_restore 65
 228 00d6 01D3     		se_mr %r3,%r29
GAS LISTING C:\Users\bayra\AppData\Local\Temp\cchSvTJL.s 			page 5


 229 00d8 1B810808 		e_lmw %r28,8(%r1)
 230              	.LVL21:
 231 00dc 2171     		se_addi %r1,24
 232              	.LCFI1:
 233              		.cfi_restore 31
 234              		.cfi_restore 30
 235              		.cfi_restore 29
 236              		.cfi_restore 28
 237              		.cfi_def_cfa_offset 0
 238 00de 0004     		se_blr
 239              	.LVL22:
 240              	.L30:
 241              	.LCFI2:
 242              		.cfi_restore_state
 243              		.loc 1 193 0
 244 00e0 7C7F2A14 		add %r3,%r31,%r5
 245              	.LVL23:
 246              		.loc 1 198 0
 247 00e4 D163     		se_stw %r6,4(%r3)
 248              		.loc 1 199 0
 249 00e6 D15F     		se_stw %r5,4(%r31)
 250              		.loc 1 202 0
 251 00e8 78000001 		e_bl prvInsertBlockIntoFreeList
 252              	.LVL24:
 253 00ec C13F     		se_lwz %r3,4(%r31)
 254 00ee 79FFFFBA 		e_b .L21
 255              	.LVL25:
 256              	.L13:
 257              	.LBB4:
 258              	.LBB5:
 259              		.loc 1 350 0
 260 00f2 73A0E000 		e_lis %r29,.LANCHOR0@ha
 261 00f6 73C0E000 		e_lis %r30,.LANCHOR3@ha
 262 00fa 1F9D0000 		e_la %r28,.LANCHOR0@l(%r29)
 263 00fe 1C9E0000 		e_la %r4,.LANCHOR3@l(%r30)
 264              		.loc 1 356 0
 265 0102 70BF0FF8 		e_li %r5,131064
 266 0106 7CA42A14 		add %r5,%r4,%r5
 267              		.loc 1 357 0
 268 010a 18A5C4FC 		e_andi %r5,%r5,-4
 269              		.loc 1 360 0
 270 010e D075     		se_stw %r7,0(%r5)
 271              		.loc 1 365 0
 272 0110 7C642850 		subf %r3, %r4, %r5
 273              		.loc 1 359 0
 274 0114 D175     		se_stw %r7,4(%r5)
 275              		.loc 1 358 0
 276 0116 54A60000 		e_stw %r5,.LANCHOR1@l(%r6)
 277              		.loc 1 351 0
 278 011a D17C     		se_stw %r7,4(%r28)
 279              	.LVL26:
 280              		.loc 1 373 0
 281 011c 6206     		se_bgeni %r6,0
 282              		.loc 1 369 0
 283 011e 70E0E000 		e_lis %r7,.LANCHOR4@ha
 284              		.loc 1 350 0
 285 0122 549D0000 		e_stw %r4,.LANCHOR0@l(%r29)
GAS LISTING C:\Users\bayra\AppData\Local\Temp\cchSvTJL.s 			page 6


 286              		.loc 1 369 0
 287 0126 54670000 		e_stw %r3,.LANCHOR4@l(%r7)
 288              		.loc 1 365 0
 289 012a D134     		se_stw %r3,4(%r4)
 290              		.loc 1 370 0
 291 012c 70E0E000 		e_lis %r7,.LANCHOR5@ha
 292              		.loc 1 366 0
 293 0130 54BE0000 		e_stw %r5,.LANCHOR3@l(%r30)
 294              		.loc 1 370 0
 295 0134 54670000 		e_stw %r3,.LANCHOR5@l(%r7)
 296              		.loc 1 373 0
 297 0138 620C     		se_bgeni %r28,0
 298 013a 70E0E000 		e_lis %r7,.LANCHOR2@ha
 299 013e 54C70000 		e_stw %r6,.LANCHOR2@l(%r7)
 300 0142 79FFFEE6 		e_b .L14
 301              	.LBE5:
 302              	.LBE4:
 303              		.cfi_endproc
 304              	.LFE0:
 305              		.size	pvPortMalloc, .-pvPortMalloc
 306              		.section	.text.vPortFree,"axv",@progbits
 307              		.align 1
 308              		.p2align 4,,15
 309              		.globl vPortFree
 310              		.type	vPortFree, @function
 311              	vPortFree:
 312              	.LFB1:
 313              		.loc 1 264 0
 314              		.cfi_startproc
 315              	.LVL27:
 316 0000 182106F0 		e_stwu %r1,-16(%r1)
 317              	.LCFI3:
 318              		.cfi_def_cfa_offset 16
 319 0004 0080     		se_mflr %r0
 320 0006 D3F1     		se_stw %r31,12(%r1)
 321 0008 D501     		se_stw %r0,20(%r1)
 322              		.cfi_offset 65, 4
 323              		.cfi_offset 31, -4
 324              		.loc 1 268 0
 325 000a 2A03     		se_cmpi %r3,0
 326 000c 7A120022 		e_beq %cr0,.L31
 327              	.LVL28:
 328              		.loc 1 281 0
 329 0010 70E0E000 		e_lis %r7,.LANCHOR2@ha
 330 0014 50A3FFFC 		e_lwz %r5,-4(%r3)
 331 0018 50C70000 		e_lwz %r6,.LANCHOR2@l(%r7)
 332 001c 7CC72839 		and. %r7,%r6,%r5
 333 0020 7A12000E 		e_beq %cr0,.L31
 334              		.loc 1 283 0
 335 0024 50E3FFF8 		e_lwz %r7,-8(%r3)
 336 0028 2A07     		se_cmpi %r7,0
 337 002a 7A12000E 		e_beq %cr0,.L33
 338              	.LVL29:
 339              	.L31:
 340              		.loc 1 308 0
 341 002e C501     		se_lwz %r0,20(%r1)
 342 0030 0090     		se_mtlr %r0
GAS LISTING C:\Users\bayra\AppData\Local\Temp\cchSvTJL.s 			page 7


 343              		.cfi_remember_state
 344              		.cfi_restore 65
 345 0032 C3F1     		se_lwz %r31,12(%r1)
 346 0034 20F1     		se_addi %r1,16
 347              	.LCFI4:
 348              		.cfi_restore 31
 349              		.cfi_def_cfa_offset 0
 350 0036 0004     		se_blr
 351              	.LVL30:
 352              	.L33:
 353              	.LCFI5:
 354              		.cfi_restore_state
 355 0038 013F     		se_mr %r31,%r3
 356              		.loc 1 287 0
 357 003a 7CA63078 		andc %r6,%r5,%r6
 358 003e 54C3FFFC 		e_stw %r6,-4(%r3)
 359              		.loc 1 289 0
 360 0042 78000001 		e_bl vTaskSuspendAll
 361              	.LVL31:
 362              		.loc 1 292 0
 363 0046 70C0E000 		e_lis %r6,.LANCHOR5@ha
 364 004a 50BFFFFC 		e_lwz %r5,-4(%r31)
 365 004e 50E60000 		e_lwz %r7,.LANCHOR5@l(%r6)
 366              		.loc 1 294 0
 367 0052 187F84F8 		e_addi %r3,%r31,-8
 368              		.loc 1 292 0
 369 0056 0457     		se_add %r7,%r5
 370 0058 54E60000 		e_stw %r7,.LANCHOR5@l(%r6)
 371              		.loc 1 294 0
 372 005c 78000001 		e_bl prvInsertBlockIntoFreeList
 373              	.LVL32:
 374              		.loc 1 308 0
 375 0060 C501     		se_lwz %r0,20(%r1)
 376 0062 C3F1     		se_lwz %r31,12(%r1)
 377              	.LVL33:
 378 0064 0090     		se_mtlr %r0
 379              		.cfi_restore 65
 380 0066 20F1     		se_addi %r1,16
 381              	.LCFI6:
 382              		.cfi_restore 31
 383              		.cfi_def_cfa_offset 0
 384              		.loc 1 296 0
 385 0068 78000000 		e_b xTaskResumeAll
 386              	.LVL34:
 387              		.cfi_endproc
 388              	.LFE1:
 389              		.size	vPortFree, .-vPortFree
 390              		.section	.text.xPortGetFreeHeapSize,"axv",@progbits
 391              		.align 1
 392              		.p2align 4,,15
 393              		.globl xPortGetFreeHeapSize
 394              		.type	xPortGetFreeHeapSize, @function
 395              	xPortGetFreeHeapSize:
 396              	.LFB2:
 397              		.loc 1 312 0
 398              		.cfi_startproc
 399              		.loc 1 313 0
GAS LISTING C:\Users\bayra\AppData\Local\Temp\cchSvTJL.s 			page 8


 400 0000 70E0E000 		e_lis %r7,.LANCHOR5@ha
 401              		.loc 1 314 0
 402 0004 50670000 		e_lwz %r3,.LANCHOR5@l(%r7)
 403 0008 0004     		se_blr
 404              		.cfi_endproc
 405              	.LFE2:
 406              		.size	xPortGetFreeHeapSize, .-xPortGetFreeHeapSize
 407              		.section	.text.xPortGetMinimumEverFreeHeapSize,"axv",@progbits
 408              		.align 1
 409              		.p2align 4,,15
 410              		.globl xPortGetMinimumEverFreeHeapSize
 411              		.type	xPortGetMinimumEverFreeHeapSize, @function
 412              	xPortGetMinimumEverFreeHeapSize:
 413              	.LFB3:
 414              		.loc 1 318 0
 415              		.cfi_startproc
 416              		.loc 1 319 0
 417 0000 70E0E000 		e_lis %r7,.LANCHOR4@ha
 418              		.loc 1 320 0
 419 0004 50670000 		e_lwz %r3,.LANCHOR4@l(%r7)
 420 0008 0004     		se_blr
 421              		.cfi_endproc
 422              	.LFE3:
 423              		.size	xPortGetMinimumEverFreeHeapSize, .-xPortGetMinimumEverFreeHeapSize
 424              		.section	.text.vPortInitialiseBlocks,"axv",@progbits
 425              		.align 1
 426              		.p2align 4,,15
 427              		.globl vPortInitialiseBlocks
 428              		.type	vPortInitialiseBlocks, @function
 429              	vPortInitialiseBlocks:
 430              	.LFB4:
 431              		.loc 1 324 0
 432              		.cfi_startproc
 433 0000 0004     		se_blr
 434              		.cfi_endproc
 435              	.LFE4:
 436              		.size	vPortInitialiseBlocks, .-vPortInitialiseBlocks
 437              		.section	.bss.xFreeBytesRemaining,"aw",@nobits
 438              		.align 2
 439              		.set	.LANCHOR5,. + 0
 440              		.type	xFreeBytesRemaining, @object
 441              		.size	xFreeBytesRemaining, 4
 442              	xFreeBytesRemaining:
 443 0000 00000000 		.zero	4
 444              		.section	.bss.pxEnd,"aw",@nobits
 445              		.align 2
 446              		.set	.LANCHOR1,. + 0
 447              		.type	pxEnd, @object
 448              		.size	pxEnd, 4
 449              	pxEnd:
 450 0000 00000000 		.zero	4
 451              		.section	.bss.xStart,"aw",@nobits
 452              		.align 2
 453              		.set	.LANCHOR0,. + 0
 454              		.type	xStart, @object
 455              		.size	xStart, 8
 456              	xStart:
GAS LISTING C:\Users\bayra\AppData\Local\Temp\cchSvTJL.s 			page 9


 457 0000 00000000 		.zero	8
 457      00000000 
 458              		.section	.bss.ucHeap,"aw",@nobits
 459              		.align 2
 460              		.set	.LANCHOR3,. + 0
 461              		.type	ucHeap, @object
 462              		.size	ucHeap, 131072
 463              	ucHeap:
 464 0000 00000000 		.zero	131072
 464      00000000 
 464      00000000 
 464      00000000 
 464      00000000 
 465              		.section	.bss.xBlockAllocatedBit,"aw",@nobits
 466              		.align 2
 467              		.set	.LANCHOR2,. + 0
 468              		.type	xBlockAllocatedBit, @object
 469              		.size	xBlockAllocatedBit, 4
 470              	xBlockAllocatedBit:
 471 0000 00000000 		.zero	4
 472              		.section	.bss.xMinimumEverFreeBytesRemaining,"aw",@nobits
 473              		.align 2
 474              		.set	.LANCHOR4,. + 0
 475              		.type	xMinimumEverFreeBytesRemaining, @object
 476              		.size	xMinimumEverFreeBytesRemaining, 4
 477              	xMinimumEverFreeBytesRemaining:
 478 0000 00000000 		.zero	4
 479              		.section	".text","axv"
 480              	.Letext0:
 481              		.file 2 "c:\\spc5studio-6.0\\eclipse\\plugins\\com.st.tools.spc5.tools.gnu.gcc.ppcvle.win32_4.9.4.
 482              		.file 3 "c:\\spc5studio-6.0\\eclipse\\plugins\\com.st.tools.spc5.tools.gnu.gcc.ppcvle.win32_4.9.4.
 483              		.file 4 "c:\\spc5studio-6.0\\eclipse\\plugins\\com.st.tools.spc5.tools.gnu.gcc.ppcvle.win32_4.9.4.
 484              		.file 5 "./components/spc5_freertos_component_rla/lib/portable/portmacro.h"
 485              		.file 6 "./components/spc5_freertos_component_rla/lib/include/task.h"