GAS LISTING C:\Users\bayra\AppData\Local\Temp\ccShJIAs.s 			page 1


   1              		.file	"main.c"
   2              		.section	".text","axv"
   3              	.Ltext0:
   4              		.cfi_sections	.debug_frame
   5              		.globl __floatsisf
   6              		.globl __mulsf3
   7              		.section	.text.vTaskCAN5,"axv",@progbits
   8              		.align 1
   9              		.p2align 4,,15
  10              		.globl vTaskCAN5
  11              		.type	vTaskCAN5, @function
  12              	vTaskCAN5:
  13              	.LFB3:
  14              		.file 1 "main.c"
  15              		.loc 1 31 0
  16              		.cfi_startproc
  17              	.LVL0:
  18 0000 701F7F38 		e_li %r0,-200
  19 0004 7C21016E 		stwux %r1,%r1,%r0
  20              	.LCFI0:
  21              		.cfi_def_cfa_offset 200
  22 0008 0080     		se_mflr %r0
  23 000a 572100AC 		e_stw %r25,172(%r1)
  24 000e 574100B0 		e_stw %r26,176(%r1)
  25 0012 576100B4 		e_stw %r27,180(%r1)
  26 0016 578100B8 		e_stw %r28,184(%r1)
  27 001a 57A100BC 		e_stw %r29,188(%r1)
  28 001e 57C100C0 		e_stw %r30,192(%r1)
  29 0022 57E100C4 		e_stw %r31,196(%r1)
  30              		.cfi_register 65, 0
  31              		.cfi_offset 25, -28
  32              		.cfi_offset 26, -24
  33              		.cfi_offset 27, -20
  34              		.cfi_offset 28, -16
  35              		.cfi_offset 29, -12
  36              		.cfi_offset 30, -8
  37              		.cfi_offset 31, -4
  38              	.LBB6:
  39              		.loc 1 40 0
  40 0026 73C0E00B 		e_lis %r30,0xb
  41              		.loc 1 37 0
  42 002a 73E0E000 		e_lis %r31,.LANCHOR0@ha
  43              	.LBB7:
  44              	.LBB8:
  45              		.loc 1 143 0
  46 002e 7360E000 		e_lis %r27,.LANCHOR2@ha
  47              		.loc 1 144 0
  48 0032 7380E000 		e_lis %r28,.LANCHOR3@ha
  49              		.loc 1 145 0
  50 0036 73A0E000 		e_lis %r29,.LANCHOR4@ha
  51              	.LBE8:
  52              	.LBE7:
  53              	.LBB11:
  54              		.loc 1 48 0
  55 003a 7340E000 		e_lis %r26,.LANCHOR1@ha
  56              		.loc 1 50 0
  57 003e 7320E000 		e_lis %r25,CAND8@ha
GAS LISTING C:\Users\bayra\AppData\Local\Temp\ccShJIAs.s 			page 2


  58              	.LBE11:
  59              	.LBE6:
  60              		.loc 1 31 0
  61 0042 540100CC 		e_stw %r0,204(%r1)
  62              		.cfi_offset 65, 4
  63              	.LBB16:
  64              		.loc 1 37 0
  65 0046 1FFF0000 		e_la %r31,.LANCHOR0@l(%r31)
  66              		.loc 1 40 0
  67 004a 73C8C227 		e_or2i %r30,16935
  68              	.LBB12:
  69              	.LBB9:
  70              		.loc 1 143 0
  71 004e 1F7B0000 		e_la %r27,.LANCHOR2@l(%r27)
  72              		.loc 1 144 0
  73 0052 1F9C0000 		e_la %r28,.LANCHOR3@l(%r28)
  74              		.loc 1 145 0
  75 0056 1FBD0000 		e_la %r29,.LANCHOR4@l(%r29)
  76              	.LBE9:
  77              	.LBE12:
  78              	.LBB13:
  79              		.loc 1 48 0
  80 005a 1F5A0000 		e_la %r26,.LANCHOR1@l(%r26)
  81              		.loc 1 50 0
  82 005e 1F390000 		e_la %r25,CAND8@l(%r25)
  83              	.LVL1:
  84              	.L6:
  85              	.LBE13:
  86              		.loc 1 37 0
  87 0062 18818008 		e_addi %r4,%r1,8
  88 0066 2C05     		se_bmaski %r5,0
  89 0068 C03F     		se_lwz %r3,0(%r31)
  90 006a 78000001 		e_bl xQueueReceive
  91              	.LVL2:
  92              		.loc 1 39 0
  93 006e 2A13     		se_cmpi %r3,1
  94 0070 7A02FFF2 		e_bne %cr0,.L6
  95              		.loc 1 40 0
  96 0074 C471     		se_lwz %r7,16(%r1)
  97 0076 0CE7     		se_cmp %r7,%r30
  98 0078 7A12003E 		e_beq %cr0,.L8
  99              	.LVL3:
 100              	.L4:
 101              		.loc 1 52 0
 102 007c 7007AB50 		e_cmpl16i %r7,848
 103 0080 7A02FFE2 		e_bne %cr0,.L6
 104              	.LVL4:
 105              	.LBB14:
 106              	.LBB10:
 107              		.loc 1 142 0
 108 0084 30E10019 		e_lbz %r7,25(%r1)
 109 0088 30610018 		e_lbz %r3,24(%r1)
 110 008c 6C87     		se_slwi %r7, 8
 111 008e 4473     		se_or %r3,%r7
 112              		.loc 1 143 0
 113 0090 00F3     		se_extsh %r3
 114 0092 78000001 		e_bl __floatsisf
GAS LISTING C:\Users\bayra\AppData\Local\Temp\ccShJIAs.s 			page 3


 115              	.LVL5:
 116 0096 7087E4A3 		e_lis %r4,0x3ca3
 117 009a 709AC70A 		e_or2i %r4,55050
 118 009e 78000001 		e_bl __mulsf3
 119              	.LVL6:
 120              		.loc 1 144 0
 121 00a2 30E1001A 		e_lbz %r7,26(%r1)
 122              		.loc 1 143 0
 123 00a6 547B0000 		e_stw %r3,0(%r27)
 124              		.loc 1 144 0
 125 00aa 907C     		se_stb %r7,0(%r28)
 126              		.loc 1 145 0
 127 00ac 30E1001B 		e_lbz %r7,27(%r1)
 128 00b0 907D     		se_stb %r7,0(%r29)
 129              	.LBE10:
 130              	.LBE14:
 131              	.LBE16:
 132              		.loc 1 58 0
 133 00b2 79FFFFB0 		e_b .L6
 134              	.LVL7:
 135              	.L8:
 136              	.LBB17:
 137              	.LBB15:
 138              		.loc 1 48 0
 139 00b6 807A     		se_lbz %r7,0(%r26)
 140              		.loc 1 44 0
 141 00b8 4826     		se_li %r6,2
 142              		.loc 1 47 0
 143 00ba 3461005A 		e_stb %r3,90(%r1)
 144              		.loc 1 44 0
 145 00be 34C10060 		e_stb %r6,96(%r1)
 146              		.loc 1 48 0
 147 00c2 34E10064 		e_stb %r7,100(%r1)
 148              		.loc 1 46 0
 149 00c6 4806     		se_li %r6,0
 150              		.loc 1 48 0
 151 00c8 2007     		se_addi %r7,1
 152              		.loc 1 46 0
 153 00ca 34C10058 		e_stb %r6,88(%r1)
 154              		.loc 1 48 0
 155 00ce 907A     		se_stb %r7,0(%r26)
 156              		.loc 1 49 0
 157 00d0 4866     		se_li %r6,6
 158              		.loc 1 50 0
 159 00d2 0193     		se_mr %r3,%r25
 160              	.LVL8:
 161              		.loc 1 49 0
 162 00d4 34C10065 		e_stb %r6,101(%r1)
 163              		.loc 1 50 0
 164 00d8 18A18058 		e_addi %r5,%r1,88
 165              		.loc 1 45 0
 166 00dc 70C0E00B 		e_lis %r6,0xb
 167              		.loc 1 50 0
 168 00e0 708000FC 		e_li %r4,252
 169              		.loc 1 45 0
 170 00e4 70C8C226 		e_or2i %r6,16934
 171 00e8 54C1005C 		e_stw %r6,92(%r1)
GAS LISTING C:\Users\bayra\AppData\Local\Temp\ccShJIAs.s 			page 4


 172              		.loc 1 50 0
 173 00ec 78000001 		e_bl can_lld_transmit
 174              	.LVL9:
 175 00f0 C471     		se_lwz %r7,16(%r1)
 176 00f2 79FFFF8A 		e_b .L4
 177              	.LBE15:
 178              	.LBE17:
 179              		.cfi_endproc
 180              	.LFE3:
 181              		.size	vTaskCAN5, .-vTaskCAN5
 182              		.section	.text.vTaskParkAssist,"axv",@progbits
 183              		.align 1
 184              		.p2align 4,,15
 185              		.globl vTaskParkAssist
 186              		.type	vTaskParkAssist, @function
 187              	vTaskParkAssist:
 188              	.LFB4:
 189              		.loc 1 61 0
 190              		.cfi_startproc
 191              	.LVL10:
 192 0000 18210688 		e_stwu %r1,-120(%r1)
 193              	.LCFI1:
 194              		.cfi_def_cfa_offset 120
 195              		.loc 1 67 0
 196 0004 4807     		se_li %r7,0
 197              		.loc 1 61 0
 198 0006 1B21095C 		e_stmw %r25,92(%r1)
 199 000a 0080     		se_mflr %r0
 200              		.loc 1 65 0
 201 000c 4986     		se_li %r6,24
 202              		.loc 1 61 0
 203 000e 5401007C 		e_stw %r0,124(%r1)
 204              		.cfi_offset 25, -28
 205              		.cfi_offset 26, -24
 206              		.cfi_offset 27, -20
 207              		.cfi_offset 28, -16
 208              		.cfi_offset 29, -12
 209              		.cfi_offset 30, -8
 210              		.cfi_offset 31, -4
 211              		.cfi_offset 65, 4
 212              		.loc 1 65 0
 213 0012 34C10010 		e_stb %r6,16(%r1)
 214              		.loc 1 67 0
 215 0016 9971     		se_stb %r7,9(%r1)
 216              		.loc 1 66 0
 217 0018 70C00302 		e_li %r6,770
 218              		.loc 1 69 0
 219 001c 9A71     		se_stb %r7,10(%r1)
 220              		.loc 1 66 0
 221 001e D361     		se_stw %r6,12(%r1)
 222              		.loc 1 72 0
 223 0020 73C0E000 		e_lis %r30,.LANCHOR5@ha
 224              		.loc 1 68 0
 225 0024 4816     		se_li %r6,1
 226              		.loc 1 73 0
 227 0026 73E0E000 		e_lis %r31,.LANCHOR4@ha
 228              		.loc 1 68 0
GAS LISTING C:\Users\bayra\AppData\Local\Temp\ccShJIAs.s 			page 5


 229 002a 9861     		se_stb %r6,8(%r1)
 230              		.loc 1 89 0
 231 002c 7380E000 		e_lis %r28,.LANCHOR6@ha
 232              		.loc 1 70 0
 233 0030 78000001 		e_bl xTaskGetTickCount
 234              	.LVL11:
 235              		.loc 1 86 0
 236 0034 7320E000 		e_lis %r25,.LANCHOR2@ha
 237 0038 7340E000 		e_lis %r26,.LANCHOR3@ha
 238              		.loc 1 87 0
 239 003c 7360E000 		e_lis %r27,CAND7@ha
 240              		.loc 1 92 0
 241 0040 1BA18054 		e_addi %r29,%r1,84
 242              		.loc 1 70 0
 243 0044 54610054 		e_stw %r3,84(%r1)
 244              		.loc 1 72 0
 245 0048 1FDE0000 		e_la %r30,.LANCHOR5@l(%r30)
 246              		.loc 1 73 0
 247 004c 1FFF0000 		e_la %r31,.LANCHOR4@l(%r31)
 248              		.loc 1 89 0
 249 0050 1F9C0000 		e_la %r28,.LANCHOR6@l(%r28)
 250              		.loc 1 86 0
 251 0054 1F390000 		e_la %r25,.LANCHOR2@l(%r25)
 252 0058 1F5A0000 		e_la %r26,.LANCHOR3@l(%r26)
 253              		.loc 1 87 0
 254 005c 1F7B0000 		e_la %r27,CAND7@l(%r27)
 255              	.L14:
 256              		.loc 1 72 0
 257 0060 807E     		se_lbz %r7,0(%r30)
 258 0062 2A07     		se_cmpi %r7,0
 259 0064 7A12003E 		e_beq %cr0,.L10
 260              		.loc 1 73 0
 261 0068 807F     		se_lbz %r7,0(%r31)
 262 006a 2A07     		se_cmpi %r7,0
 263 006c 7A120066 		e_beq %cr0,.L11
 264              		.loc 1 75 0
 265 0070 805A     		se_lbz %r5,0(%r26)
 266 0072 50990000 		e_lwz %r4,0(%r25)
 267 0076 6815     		se_srwi %r5,1
 268 0078 18618014 		e_addi %r3,%r1,20
 269 007c 4816     		se_li %r6,1
 270 007e 78000001 		e_bl Steering_assist
 271              	.LVL12:
 272              		.loc 1 76 0
 273 0082 01B3     		se_mr %r3,%r27
 274 0084 708000FC 		e_li %r4,252
 275 0088 18A18008 		e_addi %r5,%r1,8
 276 008c 78000001 		e_bl can_lld_transmit
 277              	.LVL13:
 278              	.L12:
 279              		.loc 1 84 0
 280 0090 807F     		se_lbz %r7,0(%r31)
 281 0092 2A07     		se_cmpi %r7,0
 282 0094 7A02000C 		e_bne %cr0,.L13
 283              		.loc 1 84 0 is_stmt 0 discriminator 1
 284 0098 806C     		se_lbz %r6,0(%r28)
 285 009a 2A16     		se_cmpi %r6,1
GAS LISTING C:\Users\bayra\AppData\Local\Temp\ccShJIAs.s 			page 6


 286 009c 7A120012 		e_beq %cr0,.L15
 287              	.L13:
 288              		.loc 1 89 0 is_stmt 1
 289 00a0 907C     		se_stb %r7,0(%r28)
 290              	.L10:
 291              		.loc 1 92 0
 292 00a2 01D3     		se_mr %r3,%r29
 293 00a4 4944     		se_li %r4,20
 294 00a6 78000001 		e_bl vTaskDelayUntil
 295              	.LVL14:
 296              		.loc 1 93 0
 297 00aa 79FFFFB6 		e_b .L14
 298              	.L15:
 299              		.loc 1 86 0
 300 00ae 4806     		se_li %r6,0
 301 00b0 50990000 		e_lwz %r4,0(%r25)
 302 00b4 805A     		se_lbz %r5,0(%r26)
 303 00b6 18618014 		e_addi %r3,%r1,20
 304 00ba 78000001 		e_bl Steering_assist
 305              	.LVL15:
 306              		.loc 1 87 0
 307 00be 01B3     		se_mr %r3,%r27
 308 00c0 18A18008 		e_addi %r5,%r1,8
 309 00c4 708000FC 		e_li %r4,252
 310 00c8 78000001 		e_bl can_lld_transmit
 311              	.LVL16:
 312 00cc 807F     		se_lbz %r7,0(%r31)
 313 00ce 79FFFFD2 		e_b .L13
 314              	.L11:
 315              		.loc 1 80 0
 316 00d2 50990000 		e_lwz %r4,0(%r25)
 317 00d6 805A     		se_lbz %r5,0(%r26)
 318 00d8 18618014 		e_addi %r3,%r1,20
 319 00dc 4806     		se_li %r6,0
 320 00de 78000001 		e_bl Steering_assist
 321              	.LVL17:
 322              		.loc 1 81 0
 323 00e2 01B3     		se_mr %r3,%r27
 324 00e4 18A18008 		e_addi %r5,%r1,8
 325 00e8 708000FC 		e_li %r4,252
 326 00ec 78000001 		e_bl can_lld_transmit
 327              	.LVL18:
 328 00f0 79FFFFA0 		e_b .L12
 329              		.cfi_endproc
 330              	.LFE4:
 331              		.size	vTaskParkAssist, .-vTaskParkAssist
 332              		.section	.text.vTaskmain,"axv",@progbits
 333              		.align 1
 334              		.p2align 4,,15
 335              		.globl vTaskmain
 336              		.type	vTaskmain, @function
 337              	vTaskmain:
 338              	.LFB5:
 339              		.loc 1 95 0
 340              		.cfi_startproc
 341              	.LVL19:
 342 0000 182106D8 		e_stwu %r1,-40(%r1)
GAS LISTING C:\Users\bayra\AppData\Local\Temp\ccShJIAs.s 			page 7


 343              	.LCFI2:
 344              		.cfi_def_cfa_offset 40
 345 0004 0080     		se_mflr %r0
 346 0006 1B810918 		e_stmw %r28,24(%r1)
 347 000a DB01     		se_stw %r0,44(%r1)
 348              		.cfi_offset 65, 4
 349              		.cfi_offset 28, -16
 350              		.cfi_offset 29, -12
 351              		.cfi_offset 30, -8
 352              		.cfi_offset 31, -4
 353              		.loc 1 98 0
 354 000c 4817     		se_li %r7,1
 355 000e 73DEE7FC 		e_lis %r30,0xf7fc
 356              		.loc 1 101 0
 357 0012 7060E000 		e_lis %r3,CAND4@ha
 358              	.LVL20:
 359              		.loc 1 98 0
 360 0016 34FE1350 		e_stb %r7,4944(%r30)
 361              		.loc 1 101 0
 362 001a 1C630000 		e_la %r3,CAND4@l(%r3)
 363              		.loc 1 99 0
 364 001e 34FE1351 		e_stb %r7,4945(%r30)
 365              		.loc 1 101 0
 366 0022 7080E000 		e_lis %r4,can_config_can3@ha
 367              		.loc 1 104 0
 368 0026 73E0E000 		e_lis %r31,.LC0@ha
 369              		.loc 1 101 0
 370 002a 1C840000 		e_la %r4,can_config_can3@l(%r4)
 371              		.loc 1 104 0
 372 002e 1FFF0000 		e_la %r31,.LC0@l(%r31)
 373              		.loc 1 101 0
 374 0032 78000001 		e_bl can_lld_start
 375              	.LVL21:
 376              		.loc 1 114 0
 377 0036 011C     		se_mr %r28,%r1
 378              		.loc 1 102 0
 379 0038 7060E000 		e_lis %r3,CAND7@ha
 380 003c 7080E000 		e_lis %r4,can_config_can4@ha
 381 0040 1C630000 		e_la %r3,CAND7@l(%r3)
 382 0044 1C840000 		e_la %r4,can_config_can4@l(%r4)
 383              		.loc 1 116 0
 384 0048 73A0E000 		e_lis %r29,.LANCHOR5@ha
 385              		.loc 1 102 0
 386 004c 78000001 		e_bl can_lld_start
 387              	.LVL22:
 388              		.loc 1 116 0
 389 0050 1FBD0000 		e_la %r29,.LANCHOR5@l(%r29)
 390              		.loc 1 103 0
 391 0054 7060E000 		e_lis %r3,CAND8@ha
 392 0058 7080E000 		e_lis %r4,can_config_can5@ha
 393 005c 1C630000 		e_la %r3,CAND8@l(%r3)
 394 0060 1C840000 		e_la %r4,can_config_can5@l(%r4)
 395 0064 78000001 		e_bl can_lld_start
 396              	.LVL23:
 397              		.loc 1 104 0
 398 0068 01F4     		se_mr %r4,%r31
 399 006a 6365     		se_bgeni %r5,22
GAS LISTING C:\Users\bayra\AppData\Local\Temp\ccShJIAs.s 			page 8


 400 006c 4806     		se_li %r6,0
 401 006e 4827     		se_li %r7,2
 402 0070 71000000 		e_li %r8,0
 403 0074 7060E000 		e_lis %r3,vTaskCAN5@ha
 404 0078 1C630000 		e_la %r3,vTaskCAN5@l(%r3)
 405 007c 78000001 		e_bl xTaskCreate
 406              	.LVL24:
 407              		.loc 1 107 0
 408 0080 01F4     		se_mr %r4,%r31
 409 0082 4806     		se_li %r6,0
 410 0084 4827     		se_li %r7,2
 411 0086 71000000 		e_li %r8,0
 412 008a 6365     		se_bgeni %r5,22
 413 008c 7060E000 		e_lis %r3,vTaskParkAssist@ha
 414              		.loc 1 116 0
 415 0090 481F     		se_li %r31,1
 416              		.loc 1 107 0
 417 0092 1C630000 		e_la %r3,vTaskParkAssist@l(%r3)
 418 0096 78000001 		e_bl xTaskCreate
 419              	.LVL25:
 420              		.loc 1 110 0
 421 009a 4D04     		se_li %r4,80
 422 009c 4805     		se_li %r5,0
 423 009e 48A3     		se_li %r3,10
 424 00a0 78000001 		e_bl xQueueGenericCreate
 425              	.LVL26:
 426 00a4 70E0E000 		e_lis %r7,.LANCHOR0@ha
 427 00a8 54670000 		e_stw %r3,.LANCHOR0@l(%r7)
 428              		.loc 1 114 0
 429 00ac 78000001 		e_bl xTaskGetTickCount
 430              	.LVL27:
 431 00b0 187C0608 		e_stwu %r3,8(%r28)
 432              	.L17:
 433              		.loc 1 116 0 discriminator 1
 434 00b4 90FD     		se_stb %r31,0(%r29)
 435              		.loc 1 118 0 discriminator 1
 436 00b6 01C3     		se_mr %r3,%r28
 437              		.loc 1 117 0 discriminator 1
 438 00b8 37FE1319 		e_stb %r31,4889(%r30)
 439              		.loc 1 118 0 discriminator 1
 440 00bc 48A4     		se_li %r4,10
 441 00be 78000001 		e_bl vTaskDelayUntil
 442              	.LVL28:
 443              		.loc 1 119 0 discriminator 1
 444 00c2 79FFFFF2 		e_b .L17
 445              		.cfi_endproc
 446              	.LFE5:
 447              		.size	vTaskmain, .-vTaskmain
 448              		.globl __eabi
 449              		.section	.text.startup.main,"axv",@progbits
 450              		.align 1
 451              		.p2align 4,,15
 452              		.globl main
 453              		.type	main, @function
 454              	main:
 455              	.LFB6:
 456              		.loc 1 121 0
GAS LISTING C:\Users\bayra\AppData\Local\Temp\ccShJIAs.s 			page 9


 457              		.cfi_startproc
 458 0000 182106F8 		e_stwu %r1,-8(%r1)
 459              	.LCFI3:
 460              		.cfi_def_cfa_offset 8
 461 0004 0080     		se_mflr %r0
 462 0006 D301     		se_stw %r0,12(%r1)
 463              		.cfi_offset 65, 4
 464              		.loc 1 121 0
 465 0008 78000001 		e_bl __eabi
 466              	.LVL29:
 467              		.loc 1 125 0
 468 000c 78000001 		e_bl componentsInit
 469              	.LVL30:
 470              		.loc 1 128 0
 471 0010 6365     		se_bgeni %r5,22
 472 0012 4806     		se_li %r6,0
 473 0014 4827     		se_li %r7,2
 474 0016 71000000 		e_li %r8,0
 475 001a 7060E000 		e_lis %r3,vTaskmain@ha
 476 001e 7080E000 		e_lis %r4,.LC0@ha
 477 0022 1C630000 		e_la %r3,vTaskmain@l(%r3)
 478 0026 1C840000 		e_la %r4,.LC0@l(%r4)
 479 002a 78000001 		e_bl xTaskCreate
 480              	.LVL31:
 481              		.loc 1 132 0
 482              	 # 132 "main.c" 1
 483 002e 7C008146 		wrteei  1
 484              	 # 0 "" 2
 485              		.loc 1 133 0
 486 0032 78000001 		e_bl vTaskStartScheduler
 487              	.LVL32:
 488              	.L19:
 489              		.loc 1 137 0 discriminator 1
 490 0036 78000000 		e_b .L19
 491              		.cfi_endproc
 492              	.LFE6:
 493              		.size	main, .-main
 494              		.section	.text.parseinterface,"axv",@progbits
 495              		.align 1
 496              		.p2align 4,,15
 497              		.globl parseinterface
 498              		.type	parseinterface, @function
 499              	parseinterface:
 500              	.LFB7:
 501              		.loc 1 140 0
 502              		.cfi_startproc
 503              	.LVL33:
 504 0000 182106E8 		e_stwu %r1,-24(%r1)
 505              	.LCFI4:
 506              		.cfi_def_cfa_offset 24
 507              		.loc 1 142 0
 508 0004 8176     		se_lbz %r7,1(%r6)
 509              		.loc 1 140 0
 510 0006 1B810908 		e_stmw %r28,8(%r1)
 511 000a 0080     		se_mflr %r0
 512              		.cfi_offset 28, -16
 513              		.cfi_offset 29, -12
GAS LISTING C:\Users\bayra\AppData\Local\Temp\ccShJIAs.s 			page 10


 514              		.cfi_offset 30, -8
 515              		.cfi_offset 31, -4
 516              		.cfi_register 65, 0
 517 000c 016F     		se_mr %r31,%r6
 518              	.LVL34:
 519 000e D701     		se_stw %r0,28(%r1)
 520              	.LVL35:
 521              		.cfi_offset 65, 4
 522              		.loc 1 140 0
 523 0010 014D     		se_mr %r29,%r4
 524 0012 015E     		se_mr %r30,%r5
 525              		.loc 1 142 0
 526 0014 6C87     		se_slwi %r7, 8
 527              		.loc 1 140 0
 528 0016 013C     		se_mr %r28,%r3
 529              		.loc 1 142 0
 530 0018 8036     		se_lbz %r3,0(%r6)
 531              	.LVL36:
 532 001a 4473     		se_or %r3,%r7
 533              		.loc 1 143 0
 534 001c 00F3     		se_extsh %r3
 535 001e 78000001 		e_bl __floatsisf
 536              	.LVL37:
 537 0022 7087E4A3 		e_lis %r4,0x3ca3
 538 0026 709AC70A 		e_or2i %r4,55050
 539 002a 78000001 		e_bl __mulsf3
 540              	.LVL38:
 541 002e 547C0000 		e_stw %r3,0(%r28)
 542              		.loc 1 144 0
 543 0032 827F     		se_lbz %r7,2(%r31)
 544 0034 907D     		se_stb %r7,0(%r29)
 545              		.loc 1 145 0
 546 0036 837F     		se_lbz %r7,3(%r31)
 547 0038 907E     		se_stb %r7,0(%r30)
 548              		.loc 1 147 0
 549 003a C701     		se_lwz %r0,28(%r1)
 550 003c 0090     		se_mtlr %r0
 551              		.cfi_restore 65
 552 003e 1B810808 		e_lmw %r28,8(%r1)
 553              	.LVL39:
 554 0042 2171     		se_addi %r1,24
 555              	.LCFI5:
 556              		.cfi_restore 31
 557              		.cfi_restore 30
 558              		.cfi_restore 29
 559              		.cfi_restore 28
 560              		.cfi_def_cfa_offset 0
 561 0044 0004     		se_blr
 562              		.cfi_endproc
 563              	.LFE7:
 564              		.size	parseinterface, .-parseinterface
 565              		.globl setTorque
 566              		.globl Setsteer
 567              		.globl autonom
 568              		.globl Relay
 569              		.globl xQueue_CAN5
 570              		.section	.bss.Relay,"aw",@nobits
GAS LISTING C:\Users\bayra\AppData\Local\Temp\ccShJIAs.s 			page 11


 571              		.set	.LANCHOR5,. + 0
 572              		.type	Relay, @object
 573              		.size	Relay, 1
 574              	Relay:
 575 0000 00       		.zero	1
 576              		.section	.bss.autonom,"aw",@nobits
 577              		.set	.LANCHOR4,. + 0
 578              		.type	autonom, @object
 579              		.size	autonom, 1
 580              	autonom:
 581 0000 00       		.zero	1
 582              		.section	.bss.life_signal.26548,"aw",@nobits
 583              		.set	.LANCHOR1,. + 0
 584              		.type	life_signal.26548, @object
 585              		.size	life_signal.26548, 1
 586              	life_signal.26548:
 587 0000 00       		.zero	1
 588              		.section	.bss.xQueue_CAN5,"aw",@nobits
 589              		.align 2
 590              		.set	.LANCHOR0,. + 0
 591              		.type	xQueue_CAN5, @object
 592              		.size	xQueue_CAN5, 4
 593              	xQueue_CAN5:
 594 0000 00000000 		.zero	4
 595              		.section	.rodata.str1.4,"aMS",@progbits,1
 596              		.align 2
 597              	.LC0:
 598 0000 7461736B 		.string	"task #1"
 598      20233100 
 599              		.section	.bss.setTorque,"aw",@nobits
 600              		.set	.LANCHOR3,. + 0
 601              		.type	setTorque, @object
 602              		.size	setTorque, 1
 603              	setTorque:
 604 0000 00       		.zero	1
 605              		.section	.bss.preautonom.26554,"aw",@nobits
 606              		.set	.LANCHOR6,. + 0
 607              		.type	preautonom.26554, @object
 608              		.size	preautonom.26554, 1
 609              	preautonom.26554:
 610 0000 00       		.zero	1
 611              		.section	.bss.Setsteer,"aw",@nobits
 612              		.align 2
 613              		.set	.LANCHOR2,. + 0
 614              		.type	Setsteer, @object
 615              		.size	Setsteer, 4
 616              	Setsteer:
 617 0000 00000000 		.zero	4
 618              		.section	".text","axv"
 619              	.Letext0:
 620              		.file 2 "c:\\spc5studio-6.0\\eclipse\\plugins\\com.st.tools.spc5.tools.gnu.gcc.ppcvle.win32_4.9.4.
 621              		.file 3 "c:\\spc5studio-6.0\\eclipse\\plugins\\com.st.tools.spc5.tools.gnu.gcc.ppcvle.win32_4.9.4.
 622              		.file 4 "./components/spc58xgxx_platform_component_rla/lib/include/typedefs.h"
 623              		.file 5 "./components/spc58xgxx_platform_component_rla/lib/include/spc58xgxx.h"
 624              		.file 6 "./components/spc58xgxx_low_level_drivers_component_rla/lib/include/can_lld.h"
 625              		.file 7 "./components/spc5_freertos_component_rla/lib/include/projdefs.h"
 626              		.file 8 "./components/spc5_freertos_component_rla/lib/portable/portmacro.h"
GAS LISTING C:\Users\bayra\AppData\Local\Temp\ccShJIAs.s 			page 12


 627              		.file 9 "./components/spc5_freertos_component_rla/lib/include/task.h"
 628              		.file 10 "./components/spc5_freertos_component_rla/lib/include/queue.h"
 629              		.file 11 "./components/spc58xgxx_low_level_drivers_component_rla/cfg/can_lld_cfg.h"
 630              		.file 12 "./source/h302.h"
 631              		.file 13 "./components/components.h"