GAS LISTING C:\Users\bayra\AppData\Local\Temp\ccxOyyf6.s 			page 1


   1              		.file	"spc5_edma.c"
   2              		.section	".text","axv"
   3              	.Ltext0:
   4              		.cfi_sections	.debug_frame
   5              		.section	.text.vector52,"axv",@progbits
   6              		.align 1
   7              		.p2align 4,,15
   8              		.globl vector52
   9              		.type	vector52, @function
  10              	vector52:
  11              	.LFB3:
  12              		.file 1 "./components/spc58xgxx_low_level_drivers_component_rla/lib/src/spc5_edma.c"
  13              		.loc 1 72 0
  14              		.cfi_startproc
  15              	.LVL0:
  16 0000 182106E8 		e_stwu %r1,-24(%r1)
  17              	.LCFI0:
  18              		.cfi_def_cfa_offset 24
  19 0004 0080     		se_mflr %r0
  20 0006 1B810908 		e_stmw %r28,8(%r1)
  21 000a D701     		se_stw %r0,28(%r1)
  22              		.cfi_offset 65, 4
  23              		.cfi_offset 28, -16
  24              		.cfi_offset 29, -12
  25              		.cfi_offset 30, -8
  26              		.cfi_offset 31, -4
  27              		.loc 1 106 0
  28 000c 739FE40A 		e_lis %r28,0xfc0a
  29              		.loc 1 104 0
  30 0010 73DEE40A 		e_lis %r30,0xf40a
  31 0014 651E     		se_bseti %r30,17
  32 0016 CB7E     		se_lwz %r7,44(%r30)
  33              	.LVL1:
  34              		.loc 1 105 0
  35 0018 CA4E     		se_lwz %r4,40(%r30)
  36              	.LVL2:
  37              		.loc 1 106 0
  38 001a CB5C     		se_lwz %r5,44(%r28)
  39              	.LVL3:
  40              		.loc 1 107 0
  41 001c 7C863B78 		or %r6,%r4,%r7
  42 0020 7CC32B79 		or. %r3,%r6,%r5
  43 0024 7A120088 		e_beq %cr0,.L1
  44 0028 73A0E000 		e_lis %r29,.LANCHOR0@ha
  45 002c 480F     		se_li %r31,0
  46 002e 1FBD0000 		e_la %r29,.LANCHOR0@l(%r29)
  47 0032 7800004C 		e_b .L9
  48              	.LVL4:
  49              	.L19:
  50              		.loc 1 114 0
  51 0036 40F7     		se_srw %r7,%r31
  52              	.LVL5:
  53 0038 67F7     		se_btsti %r7,31
  54 003a 7A120026 		e_beq %cr0,.L5
  55              	.L16:
  56              		.loc 1 134 0
  57 003e 77E7063F 		e_rlwinm %r7,%r31,0,0xff
GAS LISTING C:\Users\bayra\AppData\Local\Temp\ccxOyyf6.s 			page 2


  58 0042 34FE001D 		e_stb %r7,29(%r30)
  59              		.loc 1 139 0
  60 0046 C07D     		se_lwz %r7,0(%r29)
  61              		.loc 1 135 0
  62 0048 C15E     		se_lwz %r5,4(%r30)
  63              	.LVL6:
  64              		.loc 1 139 0
  65 004a 2A07     		se_cmpi %r7,0
  66 004c 7A120014 		e_beq %cr0,.L5
  67              	.L13:
  68              		.loc 1 156 0 discriminator 1
  69 0050 C367     		se_lwz %r6,12(%r7)
  70              		.loc 1 155 0 discriminator 1
  71 0052 2A06     		se_cmpi %r6,0
  72 0054 7A12000C 		e_beq %cr0,.L5
  73              		.loc 1 157 0
  74 0058 01F3     		se_mr %r3,%r31
  75 005a C447     		se_lwz %r4,16(%r7)
  76 005c 00B6     		se_mtctr %r6
  77 005e 0007     		se_bctrl
  78              	.LVL7:
  79              	.L5:
  80              		.loc 1 180 0
  81 0060 CB7E     		se_lwz %r7,44(%r30)
  82              		.loc 1 166 0
  83 0062 200F     		se_addi %r31,1
  84              	.LVL8:
  85              		.loc 1 181 0
  86 0064 CA4E     		se_lwz %r4,40(%r30)
  87              		.loc 1 182 0
  88 0066 CB5C     		se_lwz %r5,44(%r28)
  89              		.loc 1 107 0
  90 0068 7C863B78 		or %r6,%r4,%r7
  91 006c 7CC32B79 		or. %r3,%r6,%r5
  92 0070 7A12003C 		e_beq %cr0,.L1
  93              	.L20:
  94 0074 203D     		se_addi %r29,4
  95              		.loc 1 107 0 is_stmt 0 discriminator 1
  96 0076 701FA860 		e_cmpl16i %r31,96
  97 007a 7A120032 		e_beq %cr0,.L1
  98              	.LVL9:
  99              	.L9:
 100              		.loc 1 113 0 is_stmt 1
 101 007e 23EF     		se_cmpli %r31,31
 102 0080 7A01FFB6 		e_ble %cr0,.L19
 103              		.loc 1 131 0
 104 0084 701FA83F 		e_cmpl16i %r31,63
 105 0088 7A110030 		e_bgt %cr0,.L7
 106 008c 18FF84E0 		e_addi %r7,%r31,-32
 107              	.LVL10:
 108              		.loc 1 132 0
 109 0090 4074     		se_srw %r4,%r7
 110 0092 67F4     		se_btsti %r4,31
 111 0094 7A02FFAA 		e_bne %cr0,.L16
 112              		.loc 1 180 0
 113 0098 CB7E     		se_lwz %r7,44(%r30)
 114              		.loc 1 166 0
GAS LISTING C:\Users\bayra\AppData\Local\Temp\ccxOyyf6.s 			page 3


 115 009a 200F     		se_addi %r31,1
 116              	.LVL11:
 117              		.loc 1 181 0
 118 009c CA4E     		se_lwz %r4,40(%r30)
 119              		.loc 1 182 0
 120 009e CB5C     		se_lwz %r5,44(%r28)
 121              		.loc 1 107 0
 122 00a0 7C863B78 		or %r6,%r4,%r7
 123 00a4 7CC32B79 		or. %r3,%r6,%r5
 124 00a8 7A02FFCC 		e_bne %cr0,.L20
 125              	.LVL12:
 126              	.L1:
 127              		.loc 1 188 0
 128 00ac C701     		se_lwz %r0,28(%r1)
 129 00ae 0090     		se_mtlr %r0
 130              		.cfi_remember_state
 131              		.cfi_restore 65
 132 00b0 1B810808 		e_lmw %r28,8(%r1)
 133 00b4 2171     		se_addi %r1,24
 134              	.LCFI1:
 135              		.cfi_restore 31
 136              		.cfi_restore 30
 137              		.cfi_restore 29
 138              		.cfi_restore 28
 139              		.cfi_def_cfa_offset 0
 140 00b6 0004     		se_blr
 141              	.LVL13:
 142              	.L7:
 143              	.LCFI2:
 144              		.cfi_restore_state
 145 00b8 18FF84A0 		e_addi %r7,%r31,-96
 146              	.LVL14:
 147              		.loc 1 148 0
 148 00bc 4075     		se_srw %r5,%r7
 149 00be 67F5     		se_btsti %r5,31
 150 00c0 7A12FFA0 		e_beq %cr0,.L5
 151              		.loc 1 150 0
 152 00c4 77E7063F 		e_rlwinm %r7,%r31,0,0xff
 153 00c8 34FC001D 		e_stb %r7,29(%r28)
 154              		.loc 1 155 0
 155 00cc C07D     		se_lwz %r7,0(%r29)
 156              		.loc 1 151 0
 157 00ce C15C     		se_lwz %r5,4(%r28)
 158              	.LVL15:
 159              		.loc 1 155 0
 160 00d0 2A07     		se_cmpi %r7,0
 161 00d2 7A02FF7E 		e_bne %cr0,.L13
 162 00d6 79FFFF8A 		e_b .L5
 163              		.cfi_endproc
 164              	.LFE3:
 165              		.size	vector52, .-vector52
 166              		.section	.text.vector53,"axv",@progbits
 167              		.align 1
 168              		.p2align 4,,15
 169              		.globl vector53
 170              		.type	vector53, @function
 171              	vector53:
GAS LISTING C:\Users\bayra\AppData\Local\Temp\ccxOyyf6.s 			page 4


 172              	.LFB4:
 173              		.loc 1 198 0
 174              		.cfi_startproc
 175 0000 182106F0 		e_stwu %r1,-16(%r1)
 176              	.LCFI3:
 177              		.cfi_def_cfa_offset 16
 178 0004 0080     		se_mflr %r0
 179 0006 D3F1     		se_stw %r31,12(%r1)
 180 0008 D501     		se_stw %r0,20(%r1)
 181              		.cfi_offset 65, 4
 182              		.cfi_offset 31, -4
 183              		.loc 1 202 0
 184 000a 73E0E000 		e_lis %r31,.LANCHOR0@ha
 185 000e 50FF0000 		e_lwz %r7,.LANCHOR0@l(%r31)
 186 0012 2A07     		se_cmpi %r7,0
 187 0014 7A120022 		e_beq %cr0,.L23
 188              		.loc 1 205 0
 189 0018 4805     		se_li %r5,0
 190 001a 70DEE40A 		e_lis %r6,0xf40a
 191              		.loc 1 206 0
 192 001e 4803     		se_li %r3,0
 193              		.loc 1 205 0
 194 0020 6516     		se_bseti %r6,17
 195 0022 34A6001C 		e_stb %r5,28(%r6)
 196              		.loc 1 209 0
 197 0026 C501     		se_lwz %r0,20(%r1)
 198              		.loc 1 206 0
 199 0028 C267     		se_lwz %r6,8(%r7)
 200              		.loc 1 209 0
 201 002a C3F1     		se_lwz %r31,12(%r1)
 202              		.loc 1 206 0
 203 002c C447     		se_lwz %r4,16(%r7)
 204 002e 00B6     		se_mtctr %r6
 205              		.loc 1 209 0
 206 0030 0090     		se_mtlr %r0
 207              		.cfi_remember_state
 208              		.cfi_restore 65
 209 0032 20F1     		se_addi %r1,16
 210              	.LCFI4:
 211              		.cfi_restore 31
 212              		.cfi_def_cfa_offset 0
 213              		.loc 1 206 0
 214 0034 0006     		se_bctr
 215              	.LVL16:
 216              	.L23:
 217              	.LCFI5:
 218              		.cfi_restore_state
 219              		.loc 1 203 0
 220 0036 78000001 		e_bl irqSysHalt
 221              	.LVL17:
 222 003a 50FF0000 		e_lwz %r7,.LANCHOR0@l(%r31)
 223              		.loc 1 205 0
 224 003e 4805     		se_li %r5,0
 225 0040 70DEE40A 		e_lis %r6,0xf40a
 226              		.loc 1 206 0
 227 0044 4803     		se_li %r3,0
 228              		.loc 1 205 0
GAS LISTING C:\Users\bayra\AppData\Local\Temp\ccxOyyf6.s 			page 5


 229 0046 6516     		se_bseti %r6,17
 230 0048 34A6001C 		e_stb %r5,28(%r6)
 231              		.loc 1 209 0
 232 004c C501     		se_lwz %r0,20(%r1)
 233              		.loc 1 206 0
 234 004e C267     		se_lwz %r6,8(%r7)
 235              		.loc 1 209 0
 236 0050 C3F1     		se_lwz %r31,12(%r1)
 237              		.loc 1 206 0
 238 0052 C447     		se_lwz %r4,16(%r7)
 239 0054 00B6     		se_mtctr %r6
 240              		.loc 1 209 0
 241 0056 0090     		se_mtlr %r0
 242              		.cfi_restore 65
 243 0058 20F1     		se_addi %r1,16
 244              	.LCFI6:
 245              		.cfi_restore 31
 246              		.cfi_def_cfa_offset 0
 247              		.loc 1 206 0
 248 005a 0006     		se_bctr
 249              	.LVL18:
 250              		.cfi_endproc
 251              	.LFE4:
 252              		.size	vector53, .-vector53
 253              		.section	.text.vector54,"axv",@progbits
 254              		.align 1
 255              		.p2align 4,,15
 256              		.globl vector54
 257              		.type	vector54, @function
 258              	vector54:
 259              	.LFB5:
 260              		.loc 1 219 0
 261              		.cfi_startproc
 262 0000 182106F0 		e_stwu %r1,-16(%r1)
 263              	.LCFI7:
 264              		.cfi_def_cfa_offset 16
 265 0004 0080     		se_mflr %r0
 266 0006 D3F1     		se_stw %r31,12(%r1)
 267 0008 D501     		se_stw %r0,20(%r1)
 268              		.cfi_offset 65, 4
 269              		.cfi_offset 31, -4
 270              		.loc 1 223 0
 271 000a 73E0E000 		e_lis %r31,.LANCHOR0@ha
 272 000e 1FFF0000 		e_la %r31,.LANCHOR0@l(%r31)
 273 0012 C17F     		se_lwz %r7,4(%r31)
 274 0014 2A07     		se_cmpi %r7,0
 275 0016 7A120022 		e_beq %cr0,.L26
 276              		.loc 1 226 0
 277 001a 4815     		se_li %r5,1
 278 001c 70DEE40A 		e_lis %r6,0xf40a
 279              		.loc 1 227 0
 280 0020 4813     		se_li %r3,1
 281              		.loc 1 226 0
 282 0022 6516     		se_bseti %r6,17
 283 0024 34A6001C 		e_stb %r5,28(%r6)
 284              		.loc 1 230 0
 285 0028 C501     		se_lwz %r0,20(%r1)
GAS LISTING C:\Users\bayra\AppData\Local\Temp\ccxOyyf6.s 			page 6


 286              		.loc 1 227 0
 287 002a C267     		se_lwz %r6,8(%r7)
 288              		.loc 1 230 0
 289 002c C3F1     		se_lwz %r31,12(%r1)
 290              		.loc 1 227 0
 291 002e C447     		se_lwz %r4,16(%r7)
 292 0030 00B6     		se_mtctr %r6
 293              		.loc 1 230 0
 294 0032 0090     		se_mtlr %r0
 295              		.cfi_remember_state
 296              		.cfi_restore 65
 297 0034 20F1     		se_addi %r1,16
 298              	.LCFI8:
 299              		.cfi_restore 31
 300              		.cfi_def_cfa_offset 0
 301              		.loc 1 227 0
 302 0036 0006     		se_bctr
 303              	.LVL19:
 304              	.L26:
 305              	.LCFI9:
 306              		.cfi_restore_state
 307              		.loc 1 224 0
 308 0038 78000001 		e_bl irqSysHalt
 309              	.LVL20:
 310 003c C17F     		se_lwz %r7,4(%r31)
 311              		.loc 1 226 0
 312 003e 4815     		se_li %r5,1
 313 0040 70DEE40A 		e_lis %r6,0xf40a
 314              		.loc 1 227 0
 315 0044 4813     		se_li %r3,1
 316              		.loc 1 226 0
 317 0046 6516     		se_bseti %r6,17
 318 0048 34A6001C 		e_stb %r5,28(%r6)
 319              		.loc 1 230 0
 320 004c C501     		se_lwz %r0,20(%r1)
 321              		.loc 1 227 0
 322 004e C267     		se_lwz %r6,8(%r7)
 323              		.loc 1 230 0
 324 0050 C3F1     		se_lwz %r31,12(%r1)
 325              		.loc 1 227 0
 326 0052 C447     		se_lwz %r4,16(%r7)
 327 0054 00B6     		se_mtctr %r6
 328              		.loc 1 230 0
 329 0056 0090     		se_mtlr %r0
 330              		.cfi_restore 65
 331 0058 20F1     		se_addi %r1,16
 332              	.LCFI10:
 333              		.cfi_restore 31
 334              		.cfi_def_cfa_offset 0
 335              		.loc 1 227 0
 336 005a 0006     		se_bctr
 337              	.LVL21:
 338              		.cfi_endproc
 339              	.LFE5:
 340              		.size	vector54, .-vector54
 341              		.section	.text.vector55,"axv",@progbits
 342              		.align 1
GAS LISTING C:\Users\bayra\AppData\Local\Temp\ccxOyyf6.s 			page 7


 343              		.p2align 4,,15
 344              		.globl vector55
 345              		.type	vector55, @function
 346              	vector55:
 347              	.LFB6:
 348              		.loc 1 240 0
 349              		.cfi_startproc
 350 0000 182106F0 		e_stwu %r1,-16(%r1)
 351              	.LCFI11:
 352              		.cfi_def_cfa_offset 16
 353 0004 0080     		se_mflr %r0
 354 0006 D3F1     		se_stw %r31,12(%r1)
 355 0008 D501     		se_stw %r0,20(%r1)
 356              		.cfi_offset 65, 4
 357              		.cfi_offset 31, -4
 358              		.loc 1 244 0
 359 000a 73E0E000 		e_lis %r31,.LANCHOR0@ha
 360 000e 1FFF0000 		e_la %r31,.LANCHOR0@l(%r31)
 361 0012 C27F     		se_lwz %r7,8(%r31)
 362 0014 2A07     		se_cmpi %r7,0
 363 0016 7A120022 		e_beq %cr0,.L29
 364              		.loc 1 247 0
 365 001a 4825     		se_li %r5,2
 366 001c 70DEE40A 		e_lis %r6,0xf40a
 367              		.loc 1 248 0
 368 0020 4823     		se_li %r3,2
 369              		.loc 1 247 0
 370 0022 6516     		se_bseti %r6,17
 371 0024 34A6001C 		e_stb %r5,28(%r6)
 372              		.loc 1 251 0
 373 0028 C501     		se_lwz %r0,20(%r1)
 374              		.loc 1 248 0
 375 002a C267     		se_lwz %r6,8(%r7)
 376              		.loc 1 251 0
 377 002c C3F1     		se_lwz %r31,12(%r1)
 378              		.loc 1 248 0
 379 002e C447     		se_lwz %r4,16(%r7)
 380 0030 00B6     		se_mtctr %r6
 381              		.loc 1 251 0
 382 0032 0090     		se_mtlr %r0
 383              		.cfi_remember_state
 384              		.cfi_restore 65
 385 0034 20F1     		se_addi %r1,16
 386              	.LCFI12:
 387              		.cfi_restore 31
 388              		.cfi_def_cfa_offset 0
 389              		.loc 1 248 0
 390 0036 0006     		se_bctr
 391              	.LVL22:
 392              	.L29:
 393              	.LCFI13:
 394              		.cfi_restore_state
 395              		.loc 1 245 0
 396 0038 78000001 		e_bl irqSysHalt
 397              	.LVL23:
 398 003c C27F     		se_lwz %r7,8(%r31)
 399              		.loc 1 247 0
GAS LISTING C:\Users\bayra\AppData\Local\Temp\ccxOyyf6.s 			page 8


 400 003e 4825     		se_li %r5,2
 401 0040 70DEE40A 		e_lis %r6,0xf40a
 402              		.loc 1 248 0
 403 0044 4823     		se_li %r3,2
 404              		.loc 1 247 0
 405 0046 6516     		se_bseti %r6,17
 406 0048 34A6001C 		e_stb %r5,28(%r6)
 407              		.loc 1 251 0
 408 004c C501     		se_lwz %r0,20(%r1)
 409              		.loc 1 248 0
 410 004e C267     		se_lwz %r6,8(%r7)
 411              		.loc 1 251 0
 412 0050 C3F1     		se_lwz %r31,12(%r1)
 413              		.loc 1 248 0
 414 0052 C447     		se_lwz %r4,16(%r7)
 415 0054 00B6     		se_mtctr %r6
 416              		.loc 1 251 0
 417 0056 0090     		se_mtlr %r0
 418              		.cfi_restore 65
 419 0058 20F1     		se_addi %r1,16
 420              	.LCFI14:
 421              		.cfi_restore 31
 422              		.cfi_def_cfa_offset 0
 423              		.loc 1 248 0
 424 005a 0006     		se_bctr
 425              	.LVL24:
 426              		.cfi_endproc
 427              	.LFE6:
 428              		.size	vector55, .-vector55
 429              		.section	.text.vector56,"axv",@progbits
 430              		.align 1
 431              		.p2align 4,,15
 432              		.globl vector56
 433              		.type	vector56, @function
 434              	vector56:
 435              	.LFB7:
 436              		.loc 1 261 0
 437              		.cfi_startproc
 438 0000 182106F0 		e_stwu %r1,-16(%r1)
 439              	.LCFI15:
 440              		.cfi_def_cfa_offset 16
 441 0004 0080     		se_mflr %r0
 442 0006 D3F1     		se_stw %r31,12(%r1)
 443 0008 D501     		se_stw %r0,20(%r1)
 444              		.cfi_offset 65, 4
 445              		.cfi_offset 31, -4
 446              		.loc 1 265 0
 447 000a 73E0E000 		e_lis %r31,.LANCHOR0@ha
 448 000e 1FFF0000 		e_la %r31,.LANCHOR0@l(%r31)
 449 0012 C37F     		se_lwz %r7,12(%r31)
 450 0014 2A07     		se_cmpi %r7,0
 451 0016 7A120022 		e_beq %cr0,.L32
 452              		.loc 1 268 0
 453 001a 4835     		se_li %r5,3
 454 001c 70DEE40A 		e_lis %r6,0xf40a
 455              		.loc 1 269 0
 456 0020 4833     		se_li %r3,3
GAS LISTING C:\Users\bayra\AppData\Local\Temp\ccxOyyf6.s 			page 9


 457              		.loc 1 268 0
 458 0022 6516     		se_bseti %r6,17
 459 0024 34A6001C 		e_stb %r5,28(%r6)
 460              		.loc 1 272 0
 461 0028 C501     		se_lwz %r0,20(%r1)
 462              		.loc 1 269 0
 463 002a C267     		se_lwz %r6,8(%r7)
 464              		.loc 1 272 0
 465 002c C3F1     		se_lwz %r31,12(%r1)
 466              		.loc 1 269 0
 467 002e C447     		se_lwz %r4,16(%r7)
 468 0030 00B6     		se_mtctr %r6
 469              		.loc 1 272 0
 470 0032 0090     		se_mtlr %r0
 471              		.cfi_remember_state
 472              		.cfi_restore 65
 473 0034 20F1     		se_addi %r1,16
 474              	.LCFI16:
 475              		.cfi_restore 31
 476              		.cfi_def_cfa_offset 0
 477              		.loc 1 269 0
 478 0036 0006     		se_bctr
 479              	.LVL25:
 480              	.L32:
 481              	.LCFI17:
 482              		.cfi_restore_state
 483              		.loc 1 266 0
 484 0038 78000001 		e_bl irqSysHalt
 485              	.LVL26:
 486 003c C37F     		se_lwz %r7,12(%r31)
 487              		.loc 1 268 0
 488 003e 4835     		se_li %r5,3
 489 0040 70DEE40A 		e_lis %r6,0xf40a
 490              		.loc 1 269 0
 491 0044 4833     		se_li %r3,3
 492              		.loc 1 268 0
 493 0046 6516     		se_bseti %r6,17
 494 0048 34A6001C 		e_stb %r5,28(%r6)
 495              		.loc 1 272 0
 496 004c C501     		se_lwz %r0,20(%r1)
 497              		.loc 1 269 0
 498 004e C267     		se_lwz %r6,8(%r7)
 499              		.loc 1 272 0
 500 0050 C3F1     		se_lwz %r31,12(%r1)
 501              		.loc 1 269 0
 502 0052 C447     		se_lwz %r4,16(%r7)
 503 0054 00B6     		se_mtctr %r6
 504              		.loc 1 272 0
 505 0056 0090     		se_mtlr %r0
 506              		.cfi_restore 65
 507 0058 20F1     		se_addi %r1,16
 508              	.LCFI18:
 509              		.cfi_restore 31
 510              		.cfi_def_cfa_offset 0
 511              		.loc 1 269 0
 512 005a 0006     		se_bctr
 513              	.LVL27:
GAS LISTING C:\Users\bayra\AppData\Local\Temp\ccxOyyf6.s 			page 10


 514              		.cfi_endproc
 515              	.LFE7:
 516              		.size	vector56, .-vector56
 517              		.section	.text.vector57,"axv",@progbits
 518              		.align 1
 519              		.p2align 4,,15
 520              		.globl vector57
 521              		.type	vector57, @function
 522              	vector57:
 523              	.LFB8:
 524              		.loc 1 282 0
 525              		.cfi_startproc
 526 0000 182106F0 		e_stwu %r1,-16(%r1)
 527              	.LCFI19:
 528              		.cfi_def_cfa_offset 16
 529 0004 0080     		se_mflr %r0
 530 0006 D3F1     		se_stw %r31,12(%r1)
 531 0008 D501     		se_stw %r0,20(%r1)
 532              		.cfi_offset 65, 4
 533              		.cfi_offset 31, -4
 534              		.loc 1 286 0
 535 000a 73E0E000 		e_lis %r31,.LANCHOR0@ha
 536 000e 1FFF0000 		e_la %r31,.LANCHOR0@l(%r31)
 537 0012 C47F     		se_lwz %r7,16(%r31)
 538 0014 2A07     		se_cmpi %r7,0
 539 0016 7A120022 		e_beq %cr0,.L35
 540              		.loc 1 289 0
 541 001a 4845     		se_li %r5,4
 542 001c 70DEE40A 		e_lis %r6,0xf40a
 543              		.loc 1 290 0
 544 0020 4843     		se_li %r3,4
 545              		.loc 1 289 0
 546 0022 6516     		se_bseti %r6,17
 547 0024 34A6001C 		e_stb %r5,28(%r6)
 548              		.loc 1 293 0
 549 0028 C501     		se_lwz %r0,20(%r1)
 550              		.loc 1 290 0
 551 002a C267     		se_lwz %r6,8(%r7)
 552              		.loc 1 293 0
 553 002c C3F1     		se_lwz %r31,12(%r1)
 554              		.loc 1 290 0
 555 002e C447     		se_lwz %r4,16(%r7)
 556 0030 00B6     		se_mtctr %r6
 557              		.loc 1 293 0
 558 0032 0090     		se_mtlr %r0
 559              		.cfi_remember_state
 560              		.cfi_restore 65
 561 0034 20F1     		se_addi %r1,16
 562              	.LCFI20:
 563              		.cfi_restore 31
 564              		.cfi_def_cfa_offset 0
 565              		.loc 1 290 0
 566 0036 0006     		se_bctr
 567              	.LVL28:
 568              	.L35:
 569              	.LCFI21:
 570              		.cfi_restore_state
GAS LISTING C:\Users\bayra\AppData\Local\Temp\ccxOyyf6.s 			page 11


 571              		.loc 1 287 0
 572 0038 78000001 		e_bl irqSysHalt
 573              	.LVL29:
 574 003c C47F     		se_lwz %r7,16(%r31)
 575              		.loc 1 289 0
 576 003e 4845     		se_li %r5,4
 577 0040 70DEE40A 		e_lis %r6,0xf40a
 578              		.loc 1 290 0
 579 0044 4843     		se_li %r3,4
 580              		.loc 1 289 0
 581 0046 6516     		se_bseti %r6,17
 582 0048 34A6001C 		e_stb %r5,28(%r6)
 583              		.loc 1 293 0
 584 004c C501     		se_lwz %r0,20(%r1)
 585              		.loc 1 290 0
 586 004e C267     		se_lwz %r6,8(%r7)
 587              		.loc 1 293 0
 588 0050 C3F1     		se_lwz %r31,12(%r1)
 589              		.loc 1 290 0
 590 0052 C447     		se_lwz %r4,16(%r7)
 591 0054 00B6     		se_mtctr %r6
 592              		.loc 1 293 0
 593 0056 0090     		se_mtlr %r0
 594              		.cfi_restore 65
 595 0058 20F1     		se_addi %r1,16
 596              	.LCFI22:
 597              		.cfi_restore 31
 598              		.cfi_def_cfa_offset 0
 599              		.loc 1 290 0
 600 005a 0006     		se_bctr
 601              	.LVL30:
 602              		.cfi_endproc
 603              	.LFE8:
 604              		.size	vector57, .-vector57
 605              		.section	.text.vector58,"axv",@progbits
 606              		.align 1
 607              		.p2align 4,,15
 608              		.globl vector58
 609              		.type	vector58, @function
 610              	vector58:
 611              	.LFB9:
 612              		.loc 1 303 0
 613              		.cfi_startproc
 614 0000 182106F0 		e_stwu %r1,-16(%r1)
 615              	.LCFI23:
 616              		.cfi_def_cfa_offset 16
 617 0004 0080     		se_mflr %r0
 618 0006 D3F1     		se_stw %r31,12(%r1)
 619 0008 D501     		se_stw %r0,20(%r1)
 620              		.cfi_offset 65, 4
 621              		.cfi_offset 31, -4
 622              		.loc 1 307 0
 623 000a 73E0E000 		e_lis %r31,.LANCHOR0@ha
 624 000e 1FFF0000 		e_la %r31,.LANCHOR0@l(%r31)
 625 0012 C57F     		se_lwz %r7,20(%r31)
 626 0014 2A07     		se_cmpi %r7,0
 627 0016 7A120022 		e_beq %cr0,.L38
GAS LISTING C:\Users\bayra\AppData\Local\Temp\ccxOyyf6.s 			page 12


 628              		.loc 1 310 0
 629 001a 4855     		se_li %r5,5
 630 001c 70DEE40A 		e_lis %r6,0xf40a
 631              		.loc 1 311 0
 632 0020 4853     		se_li %r3,5
 633              		.loc 1 310 0
 634 0022 6516     		se_bseti %r6,17
 635 0024 34A6001C 		e_stb %r5,28(%r6)
 636              		.loc 1 314 0
 637 0028 C501     		se_lwz %r0,20(%r1)
 638              		.loc 1 311 0
 639 002a C267     		se_lwz %r6,8(%r7)
 640              		.loc 1 314 0
 641 002c C3F1     		se_lwz %r31,12(%r1)
 642              		.loc 1 311 0
 643 002e C447     		se_lwz %r4,16(%r7)
 644 0030 00B6     		se_mtctr %r6
 645              		.loc 1 314 0
 646 0032 0090     		se_mtlr %r0
 647              		.cfi_remember_state
 648              		.cfi_restore 65
 649 0034 20F1     		se_addi %r1,16
 650              	.LCFI24:
 651              		.cfi_restore 31
 652              		.cfi_def_cfa_offset 0
 653              		.loc 1 311 0
 654 0036 0006     		se_bctr
 655              	.LVL31:
 656              	.L38:
 657              	.LCFI25:
 658              		.cfi_restore_state
 659              		.loc 1 308 0
 660 0038 78000001 		e_bl irqSysHalt
 661              	.LVL32:
 662 003c C57F     		se_lwz %r7,20(%r31)
 663              		.loc 1 310 0
 664 003e 4855     		se_li %r5,5
 665 0040 70DEE40A 		e_lis %r6,0xf40a
 666              		.loc 1 311 0
 667 0044 4853     		se_li %r3,5
 668              		.loc 1 310 0
 669 0046 6516     		se_bseti %r6,17
 670 0048 34A6001C 		e_stb %r5,28(%r6)
 671              		.loc 1 314 0
 672 004c C501     		se_lwz %r0,20(%r1)
 673              		.loc 1 311 0
 674 004e C267     		se_lwz %r6,8(%r7)
 675              		.loc 1 314 0
 676 0050 C3F1     		se_lwz %r31,12(%r1)
 677              		.loc 1 311 0
 678 0052 C447     		se_lwz %r4,16(%r7)
 679 0054 00B6     		se_mtctr %r6
 680              		.loc 1 314 0
 681 0056 0090     		se_mtlr %r0
 682              		.cfi_restore 65
 683 0058 20F1     		se_addi %r1,16
 684              	.LCFI26:
GAS LISTING C:\Users\bayra\AppData\Local\Temp\ccxOyyf6.s 			page 13


 685              		.cfi_restore 31
 686              		.cfi_def_cfa_offset 0
 687              		.loc 1 311 0
 688 005a 0006     		se_bctr
 689              	.LVL33:
 690              		.cfi_endproc
 691              	.LFE9:
 692              		.size	vector58, .-vector58
 693              		.section	.text.vector59,"axv",@progbits
 694              		.align 1
 695              		.p2align 4,,15
 696              		.globl vector59
 697              		.type	vector59, @function
 698              	vector59:
 699              	.LFB10:
 700              		.loc 1 324 0
 701              		.cfi_startproc
 702 0000 182106F0 		e_stwu %r1,-16(%r1)
 703              	.LCFI27:
 704              		.cfi_def_cfa_offset 16
 705 0004 0080     		se_mflr %r0
 706 0006 D3F1     		se_stw %r31,12(%r1)
 707 0008 D501     		se_stw %r0,20(%r1)
 708              		.cfi_offset 65, 4
 709              		.cfi_offset 31, -4
 710              		.loc 1 328 0
 711 000a 73E0E000 		e_lis %r31,.LANCHOR0@ha
 712 000e 1FFF0000 		e_la %r31,.LANCHOR0@l(%r31)
 713 0012 C67F     		se_lwz %r7,24(%r31)
 714 0014 2A07     		se_cmpi %r7,0
 715 0016 7A120022 		e_beq %cr0,.L41
 716              		.loc 1 331 0
 717 001a 4865     		se_li %r5,6
 718 001c 70DEE40A 		e_lis %r6,0xf40a
 719              		.loc 1 332 0
 720 0020 4863     		se_li %r3,6
 721              		.loc 1 331 0
 722 0022 6516     		se_bseti %r6,17
 723 0024 34A6001C 		e_stb %r5,28(%r6)
 724              		.loc 1 335 0
 725 0028 C501     		se_lwz %r0,20(%r1)
 726              		.loc 1 332 0
 727 002a C267     		se_lwz %r6,8(%r7)
 728              		.loc 1 335 0
 729 002c C3F1     		se_lwz %r31,12(%r1)
 730              		.loc 1 332 0
 731 002e C447     		se_lwz %r4,16(%r7)
 732 0030 00B6     		se_mtctr %r6
 733              		.loc 1 335 0
 734 0032 0090     		se_mtlr %r0
 735              		.cfi_remember_state
 736              		.cfi_restore 65
 737 0034 20F1     		se_addi %r1,16
 738              	.LCFI28:
 739              		.cfi_restore 31
 740              		.cfi_def_cfa_offset 0
 741              		.loc 1 332 0
GAS LISTING C:\Users\bayra\AppData\Local\Temp\ccxOyyf6.s 			page 14


 742 0036 0006     		se_bctr
 743              	.LVL34:
 744              	.L41:
 745              	.LCFI29:
 746              		.cfi_restore_state
 747              		.loc 1 329 0
 748 0038 78000001 		e_bl irqSysHalt
 749              	.LVL35:
 750 003c C67F     		se_lwz %r7,24(%r31)
 751              		.loc 1 331 0
 752 003e 4865     		se_li %r5,6
 753 0040 70DEE40A 		e_lis %r6,0xf40a
 754              		.loc 1 332 0
 755 0044 4863     		se_li %r3,6
 756              		.loc 1 331 0
 757 0046 6516     		se_bseti %r6,17
 758 0048 34A6001C 		e_stb %r5,28(%r6)
 759              		.loc 1 335 0
 760 004c C501     		se_lwz %r0,20(%r1)
 761              		.loc 1 332 0
 762 004e C267     		se_lwz %r6,8(%r7)
 763              		.loc 1 335 0
 764 0050 C3F1     		se_lwz %r31,12(%r1)
 765              		.loc 1 332 0
 766 0052 C447     		se_lwz %r4,16(%r7)
 767 0054 00B6     		se_mtctr %r6
 768              		.loc 1 335 0
 769 0056 0090     		se_mtlr %r0
 770              		.cfi_restore 65
 771 0058 20F1     		se_addi %r1,16
 772              	.LCFI30:
 773              		.cfi_restore 31
 774              		.cfi_def_cfa_offset 0
 775              		.loc 1 332 0
 776 005a 0006     		se_bctr
 777              	.LVL36:
 778              		.cfi_endproc
 779              	.LFE10:
 780              		.size	vector59, .-vector59
 781              		.section	.text.vector60,"axv",@progbits
 782              		.align 1
 783              		.p2align 4,,15
 784              		.globl vector60
 785              		.type	vector60, @function
 786              	vector60:
 787              	.LFB11:
 788              		.loc 1 345 0
 789              		.cfi_startproc
 790 0000 182106F0 		e_stwu %r1,-16(%r1)
 791              	.LCFI31:
 792              		.cfi_def_cfa_offset 16
 793 0004 0080     		se_mflr %r0
 794 0006 D3F1     		se_stw %r31,12(%r1)
 795 0008 D501     		se_stw %r0,20(%r1)
 796              		.cfi_offset 65, 4
 797              		.cfi_offset 31, -4
 798              		.loc 1 349 0
GAS LISTING C:\Users\bayra\AppData\Local\Temp\ccxOyyf6.s 			page 15


 799 000a 73E0E000 		e_lis %r31,.LANCHOR0@ha
 800 000e 1FFF0000 		e_la %r31,.LANCHOR0@l(%r31)
 801 0012 C77F     		se_lwz %r7,28(%r31)
 802 0014 2A07     		se_cmpi %r7,0
 803 0016 7A120022 		e_beq %cr0,.L44
 804              		.loc 1 352 0
 805 001a 4875     		se_li %r5,7
 806 001c 70DEE40A 		e_lis %r6,0xf40a
 807              		.loc 1 353 0
 808 0020 4873     		se_li %r3,7
 809              		.loc 1 352 0
 810 0022 6516     		se_bseti %r6,17
 811 0024 34A6001C 		e_stb %r5,28(%r6)
 812              		.loc 1 356 0
 813 0028 C501     		se_lwz %r0,20(%r1)
 814              		.loc 1 353 0
 815 002a C267     		se_lwz %r6,8(%r7)
 816              		.loc 1 356 0
 817 002c C3F1     		se_lwz %r31,12(%r1)
 818              		.loc 1 353 0
 819 002e C447     		se_lwz %r4,16(%r7)
 820 0030 00B6     		se_mtctr %r6
 821              		.loc 1 356 0
 822 0032 0090     		se_mtlr %r0
 823              		.cfi_remember_state
 824              		.cfi_restore 65
 825 0034 20F1     		se_addi %r1,16
 826              	.LCFI32:
 827              		.cfi_restore 31
 828              		.cfi_def_cfa_offset 0
 829              		.loc 1 353 0
 830 0036 0006     		se_bctr
 831              	.LVL37:
 832              	.L44:
 833              	.LCFI33:
 834              		.cfi_restore_state
 835              		.loc 1 350 0
 836 0038 78000001 		e_bl irqSysHalt
 837              	.LVL38:
 838 003c C77F     		se_lwz %r7,28(%r31)
 839              		.loc 1 352 0
 840 003e 4875     		se_li %r5,7
 841 0040 70DEE40A 		e_lis %r6,0xf40a
 842              		.loc 1 353 0
 843 0044 4873     		se_li %r3,7
 844              		.loc 1 352 0
 845 0046 6516     		se_bseti %r6,17
 846 0048 34A6001C 		e_stb %r5,28(%r6)
 847              		.loc 1 356 0
 848 004c C501     		se_lwz %r0,20(%r1)
 849              		.loc 1 353 0
 850 004e C267     		se_lwz %r6,8(%r7)
 851              		.loc 1 356 0
 852 0050 C3F1     		se_lwz %r31,12(%r1)
 853              		.loc 1 353 0
 854 0052 C447     		se_lwz %r4,16(%r7)
 855 0054 00B6     		se_mtctr %r6
GAS LISTING C:\Users\bayra\AppData\Local\Temp\ccxOyyf6.s 			page 16


 856              		.loc 1 356 0
 857 0056 0090     		se_mtlr %r0
 858              		.cfi_restore 65
 859 0058 20F1     		se_addi %r1,16
 860              	.LCFI34:
 861              		.cfi_restore 31
 862              		.cfi_def_cfa_offset 0
 863              		.loc 1 353 0
 864 005a 0006     		se_bctr
 865              	.LVL39:
 866              		.cfi_endproc
 867              	.LFE11:
 868              		.size	vector60, .-vector60
 869              		.section	.text.vector61,"axv",@progbits
 870              		.align 1
 871              		.p2align 4,,15
 872              		.globl vector61
 873              		.type	vector61, @function
 874              	vector61:
 875              	.LFB12:
 876              		.loc 1 366 0
 877              		.cfi_startproc
 878 0000 182106F0 		e_stwu %r1,-16(%r1)
 879              	.LCFI35:
 880              		.cfi_def_cfa_offset 16
 881 0004 0080     		se_mflr %r0
 882 0006 D3F1     		se_stw %r31,12(%r1)
 883 0008 D501     		se_stw %r0,20(%r1)
 884              		.cfi_offset 65, 4
 885              		.cfi_offset 31, -4
 886              		.loc 1 370 0
 887 000a 73E0E000 		e_lis %r31,.LANCHOR0@ha
 888 000e 1FFF0000 		e_la %r31,.LANCHOR0@l(%r31)
 889 0012 C87F     		se_lwz %r7,32(%r31)
 890 0014 2A07     		se_cmpi %r7,0
 891 0016 7A120022 		e_beq %cr0,.L47
 892              		.loc 1 373 0
 893 001a 4885     		se_li %r5,8
 894 001c 70DEE40A 		e_lis %r6,0xf40a
 895              		.loc 1 374 0
 896 0020 4883     		se_li %r3,8
 897              		.loc 1 373 0
 898 0022 6516     		se_bseti %r6,17
 899 0024 34A6001C 		e_stb %r5,28(%r6)
 900              		.loc 1 377 0
 901 0028 C501     		se_lwz %r0,20(%r1)
 902              		.loc 1 374 0
 903 002a C267     		se_lwz %r6,8(%r7)
 904              		.loc 1 377 0
 905 002c C3F1     		se_lwz %r31,12(%r1)
 906              		.loc 1 374 0
 907 002e C447     		se_lwz %r4,16(%r7)
 908 0030 00B6     		se_mtctr %r6
 909              		.loc 1 377 0
 910 0032 0090     		se_mtlr %r0
 911              		.cfi_remember_state
 912              		.cfi_restore 65
GAS LISTING C:\Users\bayra\AppData\Local\Temp\ccxOyyf6.s 			page 17


 913 0034 20F1     		se_addi %r1,16
 914              	.LCFI36:
 915              		.cfi_restore 31
 916              		.cfi_def_cfa_offset 0
 917              		.loc 1 374 0
 918 0036 0006     		se_bctr
 919              	.LVL40:
 920              	.L47:
 921              	.LCFI37:
 922              		.cfi_restore_state
 923              		.loc 1 371 0
 924 0038 78000001 		e_bl irqSysHalt
 925              	.LVL41:
 926 003c C87F     		se_lwz %r7,32(%r31)
 927              		.loc 1 373 0
 928 003e 4885     		se_li %r5,8
 929 0040 70DEE40A 		e_lis %r6,0xf40a
 930              		.loc 1 374 0
 931 0044 4883     		se_li %r3,8
 932              		.loc 1 373 0
 933 0046 6516     		se_bseti %r6,17
 934 0048 34A6001C 		e_stb %r5,28(%r6)
 935              		.loc 1 377 0
 936 004c C501     		se_lwz %r0,20(%r1)
 937              		.loc 1 374 0
 938 004e C267     		se_lwz %r6,8(%r7)
 939              		.loc 1 377 0
 940 0050 C3F1     		se_lwz %r31,12(%r1)
 941              		.loc 1 374 0
 942 0052 C447     		se_lwz %r4,16(%r7)
 943 0054 00B6     		se_mtctr %r6
 944              		.loc 1 377 0
 945 0056 0090     		se_mtlr %r0
 946              		.cfi_restore 65
 947 0058 20F1     		se_addi %r1,16
 948              	.LCFI38:
 949              		.cfi_restore 31
 950              		.cfi_def_cfa_offset 0
 951              		.loc 1 374 0
 952 005a 0006     		se_bctr
 953              	.LVL42:
 954              		.cfi_endproc
 955              	.LFE12:
 956              		.size	vector61, .-vector61
 957              		.section	.text.vector62,"axv",@progbits
 958              		.align 1
 959              		.p2align 4,,15
 960              		.globl vector62
 961              		.type	vector62, @function
 962              	vector62:
 963              	.LFB13:
 964              		.loc 1 387 0
 965              		.cfi_startproc
 966 0000 182106F0 		e_stwu %r1,-16(%r1)
 967              	.LCFI39:
 968              		.cfi_def_cfa_offset 16
 969 0004 0080     		se_mflr %r0
GAS LISTING C:\Users\bayra\AppData\Local\Temp\ccxOyyf6.s 			page 18


 970 0006 D3F1     		se_stw %r31,12(%r1)
 971 0008 D501     		se_stw %r0,20(%r1)
 972              		.cfi_offset 65, 4
 973              		.cfi_offset 31, -4
 974              		.loc 1 391 0
 975 000a 73E0E000 		e_lis %r31,.LANCHOR0@ha
 976 000e 1FFF0000 		e_la %r31,.LANCHOR0@l(%r31)
 977 0012 C97F     		se_lwz %r7,36(%r31)
 978 0014 2A07     		se_cmpi %r7,0
 979 0016 7A120022 		e_beq %cr0,.L50
 980              		.loc 1 394 0
 981 001a 4895     		se_li %r5,9
 982 001c 70DEE40A 		e_lis %r6,0xf40a
 983              		.loc 1 395 0
 984 0020 4893     		se_li %r3,9
 985              		.loc 1 394 0
 986 0022 6516     		se_bseti %r6,17
 987 0024 34A6001C 		e_stb %r5,28(%r6)
 988              		.loc 1 398 0
 989 0028 C501     		se_lwz %r0,20(%r1)
 990              		.loc 1 395 0
 991 002a C267     		se_lwz %r6,8(%r7)
 992              		.loc 1 398 0
 993 002c C3F1     		se_lwz %r31,12(%r1)
 994              		.loc 1 395 0
 995 002e C447     		se_lwz %r4,16(%r7)
 996 0030 00B6     		se_mtctr %r6
 997              		.loc 1 398 0
 998 0032 0090     		se_mtlr %r0
 999              		.cfi_remember_state
 1000              		.cfi_restore 65
 1001 0034 20F1     		se_addi %r1,16
 1002              	.LCFI40:
 1003              		.cfi_restore 31
 1004              		.cfi_def_cfa_offset 0
 1005              		.loc 1 395 0
 1006 0036 0006     		se_bctr
 1007              	.LVL43:
 1008              	.L50:
 1009              	.LCFI41:
 1010              		.cfi_restore_state
 1011              		.loc 1 392 0
 1012 0038 78000001 		e_bl irqSysHalt
 1013              	.LVL44:
 1014 003c C97F     		se_lwz %r7,36(%r31)
 1015              		.loc 1 394 0
 1016 003e 4895     		se_li %r5,9
 1017 0040 70DEE40A 		e_lis %r6,0xf40a
 1018              		.loc 1 395 0
 1019 0044 4893     		se_li %r3,9
 1020              		.loc 1 394 0
 1021 0046 6516     		se_bseti %r6,17
 1022 0048 34A6001C 		e_stb %r5,28(%r6)
 1023              		.loc 1 398 0
 1024 004c C501     		se_lwz %r0,20(%r1)
 1025              		.loc 1 395 0
 1026 004e C267     		se_lwz %r6,8(%r7)
GAS LISTING C:\Users\bayra\AppData\Local\Temp\ccxOyyf6.s 			page 19


 1027              		.loc 1 398 0
 1028 0050 C3F1     		se_lwz %r31,12(%r1)
 1029              		.loc 1 395 0
 1030 0052 C447     		se_lwz %r4,16(%r7)
 1031 0054 00B6     		se_mtctr %r6
 1032              		.loc 1 398 0
 1033 0056 0090     		se_mtlr %r0
 1034              		.cfi_restore 65
 1035 0058 20F1     		se_addi %r1,16
 1036              	.LCFI42:
 1037              		.cfi_restore 31
 1038              		.cfi_def_cfa_offset 0
 1039              		.loc 1 395 0
 1040 005a 0006     		se_bctr
 1041              	.LVL45:
 1042              		.cfi_endproc
 1043              	.LFE13:
 1044              		.size	vector62, .-vector62
 1045              		.section	.text.vector63,"axv",@progbits
 1046              		.align 1
 1047              		.p2align 4,,15
 1048              		.globl vector63
 1049              		.type	vector63, @function
 1050              	vector63:
 1051              	.LFB14:
 1052              		.loc 1 408 0
 1053              		.cfi_startproc
 1054 0000 182106F0 		e_stwu %r1,-16(%r1)
 1055              	.LCFI43:
 1056              		.cfi_def_cfa_offset 16
 1057 0004 0080     		se_mflr %r0
 1058 0006 D3F1     		se_stw %r31,12(%r1)
 1059 0008 D501     		se_stw %r0,20(%r1)
 1060              		.cfi_offset 65, 4
 1061              		.cfi_offset 31, -4
 1062              		.loc 1 412 0
 1063 000a 73E0E000 		e_lis %r31,.LANCHOR0@ha
 1064 000e 1FFF0000 		e_la %r31,.LANCHOR0@l(%r31)
 1065 0012 CA7F     		se_lwz %r7,40(%r31)
 1066 0014 2A07     		se_cmpi %r7,0
 1067 0016 7A120022 		e_beq %cr0,.L53
 1068              		.loc 1 415 0
 1069 001a 48A5     		se_li %r5,10
 1070 001c 70DEE40A 		e_lis %r6,0xf40a
 1071              		.loc 1 416 0
 1072 0020 48A3     		se_li %r3,10
 1073              		.loc 1 415 0
 1074 0022 6516     		se_bseti %r6,17
 1075 0024 34A6001C 		e_stb %r5,28(%r6)
 1076              		.loc 1 419 0
 1077 0028 C501     		se_lwz %r0,20(%r1)
 1078              		.loc 1 416 0
 1079 002a C267     		se_lwz %r6,8(%r7)
 1080              		.loc 1 419 0
 1081 002c C3F1     		se_lwz %r31,12(%r1)
 1082              		.loc 1 416 0
 1083 002e C447     		se_lwz %r4,16(%r7)
GAS LISTING C:\Users\bayra\AppData\Local\Temp\ccxOyyf6.s 			page 20


 1084 0030 00B6     		se_mtctr %r6
 1085              		.loc 1 419 0
 1086 0032 0090     		se_mtlr %r0
 1087              		.cfi_remember_state
 1088              		.cfi_restore 65
 1089 0034 20F1     		se_addi %r1,16
 1090              	.LCFI44:
 1091              		.cfi_restore 31
 1092              		.cfi_def_cfa_offset 0
 1093              		.loc 1 416 0
 1094 0036 0006     		se_bctr
 1095              	.LVL46:
 1096              	.L53:
 1097              	.LCFI45:
 1098              		.cfi_restore_state
 1099              		.loc 1 413 0
 1100 0038 78000001 		e_bl irqSysHalt
 1101              	.LVL47:
 1102 003c CA7F     		se_lwz %r7,40(%r31)
 1103              		.loc 1 415 0
 1104 003e 48A5     		se_li %r5,10
 1105 0040 70DEE40A 		e_lis %r6,0xf40a
 1106              		.loc 1 416 0
 1107 0044 48A3     		se_li %r3,10
 1108              		.loc 1 415 0
 1109 0046 6516     		se_bseti %r6,17
 1110 0048 34A6001C 		e_stb %r5,28(%r6)
 1111              		.loc 1 419 0
 1112 004c C501     		se_lwz %r0,20(%r1)
 1113              		.loc 1 416 0
 1114 004e C267     		se_lwz %r6,8(%r7)
 1115              		.loc 1 419 0
 1116 0050 C3F1     		se_lwz %r31,12(%r1)
 1117              		.loc 1 416 0
 1118 0052 C447     		se_lwz %r4,16(%r7)
 1119 0054 00B6     		se_mtctr %r6
 1120              		.loc 1 419 0
 1121 0056 0090     		se_mtlr %r0
 1122              		.cfi_restore 65
 1123 0058 20F1     		se_addi %r1,16
 1124              	.LCFI46:
 1125              		.cfi_restore 31
 1126              		.cfi_def_cfa_offset 0
 1127              		.loc 1 416 0
 1128 005a 0006     		se_bctr
 1129              	.LVL48:
 1130              		.cfi_endproc
 1131              	.LFE14:
 1132              		.size	vector63, .-vector63
 1133              		.section	.text.vector64,"axv",@progbits
 1134              		.align 1
 1135              		.p2align 4,,15
 1136              		.globl vector64
 1137              		.type	vector64, @function
 1138              	vector64:
 1139              	.LFB15:
 1140              		.loc 1 429 0
GAS LISTING C:\Users\bayra\AppData\Local\Temp\ccxOyyf6.s 			page 21


 1141              		.cfi_startproc
 1142 0000 182106F0 		e_stwu %r1,-16(%r1)
 1143              	.LCFI47:
 1144              		.cfi_def_cfa_offset 16
 1145 0004 0080     		se_mflr %r0
 1146 0006 D3F1     		se_stw %r31,12(%r1)
 1147 0008 D501     		se_stw %r0,20(%r1)
 1148              		.cfi_offset 65, 4
 1149              		.cfi_offset 31, -4
 1150              		.loc 1 433 0
 1151 000a 73E0E000 		e_lis %r31,.LANCHOR0@ha
 1152 000e 1FFF0000 		e_la %r31,.LANCHOR0@l(%r31)
 1153 0012 CB7F     		se_lwz %r7,44(%r31)
 1154 0014 2A07     		se_cmpi %r7,0
 1155 0016 7A120022 		e_beq %cr0,.L56
 1156              		.loc 1 436 0
 1157 001a 48B5     		se_li %r5,11
 1158 001c 70DEE40A 		e_lis %r6,0xf40a
 1159              		.loc 1 437 0
 1160 0020 48B3     		se_li %r3,11
 1161              		.loc 1 436 0
 1162 0022 6516     		se_bseti %r6,17
 1163 0024 34A6001C 		e_stb %r5,28(%r6)
 1164              		.loc 1 440 0
 1165 0028 C501     		se_lwz %r0,20(%r1)
 1166              		.loc 1 437 0
 1167 002a C267     		se_lwz %r6,8(%r7)
 1168              		.loc 1 440 0
 1169 002c C3F1     		se_lwz %r31,12(%r1)
 1170              		.loc 1 437 0
 1171 002e C447     		se_lwz %r4,16(%r7)
 1172 0030 00B6     		se_mtctr %r6
 1173              		.loc 1 440 0
 1174 0032 0090     		se_mtlr %r0
 1175              		.cfi_remember_state
 1176              		.cfi_restore 65
 1177 0034 20F1     		se_addi %r1,16
 1178              	.LCFI48:
 1179              		.cfi_restore 31
 1180              		.cfi_def_cfa_offset 0
 1181              		.loc 1 437 0
 1182 0036 0006     		se_bctr
 1183              	.LVL49:
 1184              	.L56:
 1185              	.LCFI49:
 1186              		.cfi_restore_state
 1187              		.loc 1 434 0
 1188 0038 78000001 		e_bl irqSysHalt
 1189              	.LVL50:
 1190 003c CB7F     		se_lwz %r7,44(%r31)
 1191              		.loc 1 436 0
 1192 003e 48B5     		se_li %r5,11
 1193 0040 70DEE40A 		e_lis %r6,0xf40a
 1194              		.loc 1 437 0
 1195 0044 48B3     		se_li %r3,11
 1196              		.loc 1 436 0
 1197 0046 6516     		se_bseti %r6,17
GAS LISTING C:\Users\bayra\AppData\Local\Temp\ccxOyyf6.s 			page 22


 1198 0048 34A6001C 		e_stb %r5,28(%r6)
 1199              		.loc 1 440 0
 1200 004c C501     		se_lwz %r0,20(%r1)
 1201              		.loc 1 437 0
 1202 004e C267     		se_lwz %r6,8(%r7)
 1203              		.loc 1 440 0
 1204 0050 C3F1     		se_lwz %r31,12(%r1)
 1205              		.loc 1 437 0
 1206 0052 C447     		se_lwz %r4,16(%r7)
 1207 0054 00B6     		se_mtctr %r6
 1208              		.loc 1 440 0
 1209 0056 0090     		se_mtlr %r0
 1210              		.cfi_restore 65
 1211 0058 20F1     		se_addi %r1,16
 1212              	.LCFI50:
 1213              		.cfi_restore 31
 1214              		.cfi_def_cfa_offset 0
 1215              		.loc 1 437 0
 1216 005a 0006     		se_bctr
 1217              	.LVL51:
 1218              		.cfi_endproc
 1219              	.LFE15:
 1220              		.size	vector64, .-vector64
 1221              		.section	.text.vector65,"axv",@progbits
 1222              		.align 1
 1223              		.p2align 4,,15
 1224              		.globl vector65
 1225              		.type	vector65, @function
 1226              	vector65:
 1227              	.LFB16:
 1228              		.loc 1 450 0
 1229              		.cfi_startproc
 1230 0000 182106F0 		e_stwu %r1,-16(%r1)
 1231              	.LCFI51:
 1232              		.cfi_def_cfa_offset 16
 1233 0004 0080     		se_mflr %r0
 1234 0006 D3F1     		se_stw %r31,12(%r1)
 1235 0008 D501     		se_stw %r0,20(%r1)
 1236              		.cfi_offset 65, 4
 1237              		.cfi_offset 31, -4
 1238              		.loc 1 454 0
 1239 000a 73E0E000 		e_lis %r31,.LANCHOR0@ha
 1240 000e 1FFF0000 		e_la %r31,.LANCHOR0@l(%r31)
 1241 0012 CC7F     		se_lwz %r7,48(%r31)
 1242 0014 2A07     		se_cmpi %r7,0
 1243 0016 7A120022 		e_beq %cr0,.L59
 1244              		.loc 1 457 0
 1245 001a 48C5     		se_li %r5,12
 1246 001c 70DEE40A 		e_lis %r6,0xf40a
 1247              		.loc 1 458 0
 1248 0020 48C3     		se_li %r3,12
 1249              		.loc 1 457 0
 1250 0022 6516     		se_bseti %r6,17
 1251 0024 34A6001C 		e_stb %r5,28(%r6)
 1252              		.loc 1 461 0
 1253 0028 C501     		se_lwz %r0,20(%r1)
 1254              		.loc 1 458 0
GAS LISTING C:\Users\bayra\AppData\Local\Temp\ccxOyyf6.s 			page 23


 1255 002a C267     		se_lwz %r6,8(%r7)
 1256              		.loc 1 461 0
 1257 002c C3F1     		se_lwz %r31,12(%r1)
 1258              		.loc 1 458 0
 1259 002e C447     		se_lwz %r4,16(%r7)
 1260 0030 00B6     		se_mtctr %r6
 1261              		.loc 1 461 0
 1262 0032 0090     		se_mtlr %r0
 1263              		.cfi_remember_state
 1264              		.cfi_restore 65
 1265 0034 20F1     		se_addi %r1,16
 1266              	.LCFI52:
 1267              		.cfi_restore 31
 1268              		.cfi_def_cfa_offset 0
 1269              		.loc 1 458 0
 1270 0036 0006     		se_bctr
 1271              	.LVL52:
 1272              	.L59:
 1273              	.LCFI53:
 1274              		.cfi_restore_state
 1275              		.loc 1 455 0
 1276 0038 78000001 		e_bl irqSysHalt
 1277              	.LVL53:
 1278 003c CC7F     		se_lwz %r7,48(%r31)
 1279              		.loc 1 457 0
 1280 003e 48C5     		se_li %r5,12
 1281 0040 70DEE40A 		e_lis %r6,0xf40a
 1282              		.loc 1 458 0
 1283 0044 48C3     		se_li %r3,12
 1284              		.loc 1 457 0
 1285 0046 6516     		se_bseti %r6,17
 1286 0048 34A6001C 		e_stb %r5,28(%r6)
 1287              		.loc 1 461 0
 1288 004c C501     		se_lwz %r0,20(%r1)
 1289              		.loc 1 458 0
 1290 004e C267     		se_lwz %r6,8(%r7)
 1291              		.loc 1 461 0
 1292 0050 C3F1     		se_lwz %r31,12(%r1)
 1293              		.loc 1 458 0
 1294 0052 C447     		se_lwz %r4,16(%r7)
 1295 0054 00B6     		se_mtctr %r6
 1296              		.loc 1 461 0
 1297 0056 0090     		se_mtlr %r0
 1298              		.cfi_restore 65
 1299 0058 20F1     		se_addi %r1,16
 1300              	.LCFI54:
 1301              		.cfi_restore 31
 1302              		.cfi_def_cfa_offset 0
 1303              		.loc 1 458 0
 1304 005a 0006     		se_bctr
 1305              	.LVL54:
 1306              		.cfi_endproc
 1307              	.LFE16:
 1308              		.size	vector65, .-vector65
 1309              		.section	.text.vector66,"axv",@progbits
 1310              		.align 1
 1311              		.p2align 4,,15
GAS LISTING C:\Users\bayra\AppData\Local\Temp\ccxOyyf6.s 			page 24


 1312              		.globl vector66
 1313              		.type	vector66, @function
 1314              	vector66:
 1315              	.LFB17:
 1316              		.loc 1 471 0
 1317              		.cfi_startproc
 1318 0000 182106F0 		e_stwu %r1,-16(%r1)
 1319              	.LCFI55:
 1320              		.cfi_def_cfa_offset 16
 1321 0004 0080     		se_mflr %r0
 1322 0006 D3F1     		se_stw %r31,12(%r1)
 1323 0008 D501     		se_stw %r0,20(%r1)
 1324              		.cfi_offset 65, 4
 1325              		.cfi_offset 31, -4
 1326              		.loc 1 475 0
 1327 000a 73E0E000 		e_lis %r31,.LANCHOR0@ha
 1328 000e 1FFF0000 		e_la %r31,.LANCHOR0@l(%r31)
 1329 0012 CD7F     		se_lwz %r7,52(%r31)
 1330 0014 2A07     		se_cmpi %r7,0
 1331 0016 7A120022 		e_beq %cr0,.L62
 1332              		.loc 1 478 0
 1333 001a 48D5     		se_li %r5,13
 1334 001c 70DEE40A 		e_lis %r6,0xf40a
 1335              		.loc 1 479 0
 1336 0020 48D3     		se_li %r3,13
 1337              		.loc 1 478 0
 1338 0022 6516     		se_bseti %r6,17
 1339 0024 34A6001C 		e_stb %r5,28(%r6)
 1340              		.loc 1 482 0
 1341 0028 C501     		se_lwz %r0,20(%r1)
 1342              		.loc 1 479 0
 1343 002a C267     		se_lwz %r6,8(%r7)
 1344              		.loc 1 482 0
 1345 002c C3F1     		se_lwz %r31,12(%r1)
 1346              		.loc 1 479 0
 1347 002e C447     		se_lwz %r4,16(%r7)
 1348 0030 00B6     		se_mtctr %r6
 1349              		.loc 1 482 0
 1350 0032 0090     		se_mtlr %r0
 1351              		.cfi_remember_state
 1352              		.cfi_restore 65
 1353 0034 20F1     		se_addi %r1,16
 1354              	.LCFI56:
 1355              		.cfi_restore 31
 1356              		.cfi_def_cfa_offset 0
 1357              		.loc 1 479 0
 1358 0036 0006     		se_bctr
 1359              	.LVL55:
 1360              	.L62:
 1361              	.LCFI57:
 1362              		.cfi_restore_state
 1363              		.loc 1 476 0
 1364 0038 78000001 		e_bl irqSysHalt
 1365              	.LVL56:
 1366 003c CD7F     		se_lwz %r7,52(%r31)
 1367              		.loc 1 478 0
 1368 003e 48D5     		se_li %r5,13
GAS LISTING C:\Users\bayra\AppData\Local\Temp\ccxOyyf6.s 			page 25


 1369 0040 70DEE40A 		e_lis %r6,0xf40a
 1370              		.loc 1 479 0
 1371 0044 48D3     		se_li %r3,13
 1372              		.loc 1 478 0
 1373 0046 6516     		se_bseti %r6,17
 1374 0048 34A6001C 		e_stb %r5,28(%r6)
 1375              		.loc 1 482 0
 1376 004c C501     		se_lwz %r0,20(%r1)
 1377              		.loc 1 479 0
 1378 004e C267     		se_lwz %r6,8(%r7)
 1379              		.loc 1 482 0
 1380 0050 C3F1     		se_lwz %r31,12(%r1)
 1381              		.loc 1 479 0
 1382 0052 C447     		se_lwz %r4,16(%r7)
 1383 0054 00B6     		se_mtctr %r6
 1384              		.loc 1 482 0
 1385 0056 0090     		se_mtlr %r0
 1386              		.cfi_restore 65
 1387 0058 20F1     		se_addi %r1,16
 1388              	.LCFI58:
 1389              		.cfi_restore 31
 1390              		.cfi_def_cfa_offset 0
 1391              		.loc 1 479 0
 1392 005a 0006     		se_bctr
 1393              	.LVL57:
 1394              		.cfi_endproc
 1395              	.LFE17:
 1396              		.size	vector66, .-vector66
 1397              		.section	.text.vector67,"axv",@progbits
 1398              		.align 1
 1399              		.p2align 4,,15
 1400              		.globl vector67
 1401              		.type	vector67, @function
 1402              	vector67:
 1403              	.LFB18:
 1404              		.loc 1 492 0
 1405              		.cfi_startproc
 1406 0000 182106F0 		e_stwu %r1,-16(%r1)
 1407              	.LCFI59:
 1408              		.cfi_def_cfa_offset 16
 1409 0004 0080     		se_mflr %r0
 1410 0006 D3F1     		se_stw %r31,12(%r1)
 1411 0008 D501     		se_stw %r0,20(%r1)
 1412              		.cfi_offset 65, 4
 1413              		.cfi_offset 31, -4
 1414              		.loc 1 496 0
 1415 000a 73E0E000 		e_lis %r31,.LANCHOR0@ha
 1416 000e 1FFF0000 		e_la %r31,.LANCHOR0@l(%r31)
 1417 0012 CE7F     		se_lwz %r7,56(%r31)
 1418 0014 2A07     		se_cmpi %r7,0
 1419 0016 7A120022 		e_beq %cr0,.L65
 1420              		.loc 1 499 0
 1421 001a 48E5     		se_li %r5,14
 1422 001c 70DEE40A 		e_lis %r6,0xf40a
 1423              		.loc 1 500 0
 1424 0020 48E3     		se_li %r3,14
 1425              		.loc 1 499 0
GAS LISTING C:\Users\bayra\AppData\Local\Temp\ccxOyyf6.s 			page 26


 1426 0022 6516     		se_bseti %r6,17
 1427 0024 34A6001C 		e_stb %r5,28(%r6)
 1428              		.loc 1 503 0
 1429 0028 C501     		se_lwz %r0,20(%r1)
 1430              		.loc 1 500 0
 1431 002a C267     		se_lwz %r6,8(%r7)
 1432              		.loc 1 503 0
 1433 002c C3F1     		se_lwz %r31,12(%r1)
 1434              		.loc 1 500 0
 1435 002e C447     		se_lwz %r4,16(%r7)
 1436 0030 00B6     		se_mtctr %r6
 1437              		.loc 1 503 0
 1438 0032 0090     		se_mtlr %r0
 1439              		.cfi_remember_state
 1440              		.cfi_restore 65
 1441 0034 20F1     		se_addi %r1,16
 1442              	.LCFI60:
 1443              		.cfi_restore 31
 1444              		.cfi_def_cfa_offset 0
 1445              		.loc 1 500 0
 1446 0036 0006     		se_bctr
 1447              	.LVL58:
 1448              	.L65:
 1449              	.LCFI61:
 1450              		.cfi_restore_state
 1451              		.loc 1 497 0
 1452 0038 78000001 		e_bl irqSysHalt
 1453              	.LVL59:
 1454 003c CE7F     		se_lwz %r7,56(%r31)
 1455              		.loc 1 499 0
 1456 003e 48E5     		se_li %r5,14
 1457 0040 70DEE40A 		e_lis %r6,0xf40a
 1458              		.loc 1 500 0
 1459 0044 48E3     		se_li %r3,14
 1460              		.loc 1 499 0
 1461 0046 6516     		se_bseti %r6,17
 1462 0048 34A6001C 		e_stb %r5,28(%r6)
 1463              		.loc 1 503 0
 1464 004c C501     		se_lwz %r0,20(%r1)
 1465              		.loc 1 500 0
 1466 004e C267     		se_lwz %r6,8(%r7)
 1467              		.loc 1 503 0
 1468 0050 C3F1     		se_lwz %r31,12(%r1)
 1469              		.loc 1 500 0
 1470 0052 C447     		se_lwz %r4,16(%r7)
 1471 0054 00B6     		se_mtctr %r6
 1472              		.loc 1 503 0
 1473 0056 0090     		se_mtlr %r0
 1474              		.cfi_restore 65
 1475 0058 20F1     		se_addi %r1,16
 1476              	.LCFI62:
 1477              		.cfi_restore 31
 1478              		.cfi_def_cfa_offset 0
 1479              		.loc 1 500 0
 1480 005a 0006     		se_bctr
 1481              	.LVL60:
 1482              		.cfi_endproc
GAS LISTING C:\Users\bayra\AppData\Local\Temp\ccxOyyf6.s 			page 27


 1483              	.LFE18:
 1484              		.size	vector67, .-vector67
 1485              		.section	.text.vector68,"axv",@progbits
 1486              		.align 1
 1487              		.p2align 4,,15
 1488              		.globl vector68
 1489              		.type	vector68, @function
 1490              	vector68:
 1491              	.LFB19:
 1492              		.loc 1 513 0
 1493              		.cfi_startproc
 1494 0000 182106F0 		e_stwu %r1,-16(%r1)
 1495              	.LCFI63:
 1496              		.cfi_def_cfa_offset 16
 1497 0004 0080     		se_mflr %r0
 1498 0006 D3F1     		se_stw %r31,12(%r1)
 1499 0008 D501     		se_stw %r0,20(%r1)
 1500              		.cfi_offset 65, 4
 1501              		.cfi_offset 31, -4
 1502              		.loc 1 517 0
 1503 000a 73E0E000 		e_lis %r31,.LANCHOR0@ha
 1504 000e 1FFF0000 		e_la %r31,.LANCHOR0@l(%r31)
 1505 0012 CF7F     		se_lwz %r7,60(%r31)
 1506 0014 2A07     		se_cmpi %r7,0
 1507 0016 7A120022 		e_beq %cr0,.L68
 1508              		.loc 1 520 0
 1509 001a 48F5     		se_li %r5,15
 1510 001c 70DEE40A 		e_lis %r6,0xf40a
 1511              		.loc 1 521 0
 1512 0020 48F3     		se_li %r3,15
 1513              		.loc 1 520 0
 1514 0022 6516     		se_bseti %r6,17
 1515 0024 34A6001C 		e_stb %r5,28(%r6)
 1516              		.loc 1 524 0
 1517 0028 C501     		se_lwz %r0,20(%r1)
 1518              		.loc 1 521 0
 1519 002a C267     		se_lwz %r6,8(%r7)
 1520              		.loc 1 524 0
 1521 002c C3F1     		se_lwz %r31,12(%r1)
 1522              		.loc 1 521 0
 1523 002e C447     		se_lwz %r4,16(%r7)
 1524 0030 00B6     		se_mtctr %r6
 1525              		.loc 1 524 0
 1526 0032 0090     		se_mtlr %r0
 1527              		.cfi_remember_state
 1528              		.cfi_restore 65
 1529 0034 20F1     		se_addi %r1,16
 1530              	.LCFI64:
 1531              		.cfi_restore 31
 1532              		.cfi_def_cfa_offset 0
 1533              		.loc 1 521 0
 1534 0036 0006     		se_bctr
 1535              	.LVL61:
 1536              	.L68:
 1537              	.LCFI65:
 1538              		.cfi_restore_state
 1539              		.loc 1 518 0
GAS LISTING C:\Users\bayra\AppData\Local\Temp\ccxOyyf6.s 			page 28


 1540 0038 78000001 		e_bl irqSysHalt
 1541              	.LVL62:
 1542 003c CF7F     		se_lwz %r7,60(%r31)
 1543              		.loc 1 520 0
 1544 003e 48F5     		se_li %r5,15
 1545 0040 70DEE40A 		e_lis %r6,0xf40a
 1546              		.loc 1 521 0
 1547 0044 48F3     		se_li %r3,15
 1548              		.loc 1 520 0
 1549 0046 6516     		se_bseti %r6,17
 1550 0048 34A6001C 		e_stb %r5,28(%r6)
 1551              		.loc 1 524 0
 1552 004c C501     		se_lwz %r0,20(%r1)
 1553              		.loc 1 521 0
 1554 004e C267     		se_lwz %r6,8(%r7)
 1555              		.loc 1 524 0
 1556 0050 C3F1     		se_lwz %r31,12(%r1)
 1557              		.loc 1 521 0
 1558 0052 C447     		se_lwz %r4,16(%r7)
 1559 0054 00B6     		se_mtctr %r6
 1560              		.loc 1 524 0
 1561 0056 0090     		se_mtlr %r0
 1562              		.cfi_restore 65
 1563 0058 20F1     		se_addi %r1,16
 1564              	.LCFI66:
 1565              		.cfi_restore 31
 1566              		.cfi_def_cfa_offset 0
 1567              		.loc 1 521 0
 1568 005a 0006     		se_bctr
 1569              	.LVL63:
 1570              		.cfi_endproc
 1571              	.LFE19:
 1572              		.size	vector68, .-vector68
 1573              		.section	.text.vector69,"axv",@progbits
 1574              		.align 1
 1575              		.p2align 4,,15
 1576              		.globl vector69
 1577              		.type	vector69, @function
 1578              	vector69:
 1579              	.LFB20:
 1580              		.loc 1 535 0
 1581              		.cfi_startproc
 1582 0000 182106F0 		e_stwu %r1,-16(%r1)
 1583              	.LCFI67:
 1584              		.cfi_def_cfa_offset 16
 1585 0004 0080     		se_mflr %r0
 1586 0006 D3F1     		se_stw %r31,12(%r1)
 1587 0008 D501     		se_stw %r0,20(%r1)
 1588              		.cfi_offset 65, 4
 1589              		.cfi_offset 31, -4
 1590              		.loc 1 539 0
 1591 000a 73E0E000 		e_lis %r31,.LANCHOR0@ha
 1592 000e 1FFF0000 		e_la %r31,.LANCHOR0@l(%r31)
 1593 0012 50FF0040 		e_lwz %r7,64(%r31)
 1594 0016 2A07     		se_cmpi %r7,0
 1595 0018 7A120022 		e_beq %cr0,.L71
 1596              		.loc 1 542 0
GAS LISTING C:\Users\bayra\AppData\Local\Temp\ccxOyyf6.s 			page 29


 1597 001c 4905     		se_li %r5,16
 1598 001e 70DEE40A 		e_lis %r6,0xf40a
 1599              		.loc 1 543 0
 1600 0022 4903     		se_li %r3,16
 1601              		.loc 1 542 0
 1602 0024 6516     		se_bseti %r6,17
 1603 0026 34A6001C 		e_stb %r5,28(%r6)
 1604              		.loc 1 546 0
 1605 002a C501     		se_lwz %r0,20(%r1)
 1606              		.loc 1 543 0
 1607 002c C267     		se_lwz %r6,8(%r7)
 1608              		.loc 1 546 0
 1609 002e C3F1     		se_lwz %r31,12(%r1)
 1610              		.loc 1 543 0
 1611 0030 C447     		se_lwz %r4,16(%r7)
 1612 0032 00B6     		se_mtctr %r6
 1613              		.loc 1 546 0
 1614 0034 0090     		se_mtlr %r0
 1615              		.cfi_remember_state
 1616              		.cfi_restore 65
 1617 0036 20F1     		se_addi %r1,16
 1618              	.LCFI68:
 1619              		.cfi_restore 31
 1620              		.cfi_def_cfa_offset 0
 1621              		.loc 1 543 0
 1622 0038 0006     		se_bctr
 1623              	.LVL64:
 1624              	.L71:
 1625              	.LCFI69:
 1626              		.cfi_restore_state
 1627              		.loc 1 540 0
 1628 003a 78000001 		e_bl irqSysHalt
 1629              	.LVL65:
 1630 003e 50FF0040 		e_lwz %r7,64(%r31)
 1631              		.loc 1 542 0
 1632 0042 4905     		se_li %r5,16
 1633 0044 70DEE40A 		e_lis %r6,0xf40a
 1634              		.loc 1 543 0
 1635 0048 4903     		se_li %r3,16
 1636              		.loc 1 542 0
 1637 004a 6516     		se_bseti %r6,17
 1638 004c 34A6001C 		e_stb %r5,28(%r6)
 1639              		.loc 1 546 0
 1640 0050 C501     		se_lwz %r0,20(%r1)
 1641              		.loc 1 543 0
 1642 0052 C267     		se_lwz %r6,8(%r7)
 1643              		.loc 1 546 0
 1644 0054 C3F1     		se_lwz %r31,12(%r1)
 1645              		.loc 1 543 0
 1646 0056 C447     		se_lwz %r4,16(%r7)
 1647 0058 00B6     		se_mtctr %r6
 1648              		.loc 1 546 0
 1649 005a 0090     		se_mtlr %r0
 1650              		.cfi_restore 65
 1651 005c 20F1     		se_addi %r1,16
 1652              	.LCFI70:
 1653              		.cfi_restore 31
GAS LISTING C:\Users\bayra\AppData\Local\Temp\ccxOyyf6.s 			page 30


 1654              		.cfi_def_cfa_offset 0
 1655              		.loc 1 543 0
 1656 005e 0006     		se_bctr
 1657              	.LVL66:
 1658              		.cfi_endproc
 1659              	.LFE20:
 1660              		.size	vector69, .-vector69
 1661              		.section	.text.vector70,"axv",@progbits
 1662              		.align 1
 1663              		.p2align 4,,15
 1664              		.globl vector70
 1665              		.type	vector70, @function
 1666              	vector70:
 1667              	.LFB21:
 1668              		.loc 1 556 0
 1669              		.cfi_startproc
 1670 0000 182106F0 		e_stwu %r1,-16(%r1)
 1671              	.LCFI71:
 1672              		.cfi_def_cfa_offset 16
 1673 0004 0080     		se_mflr %r0
 1674 0006 D3F1     		se_stw %r31,12(%r1)
 1675 0008 D501     		se_stw %r0,20(%r1)
 1676              		.cfi_offset 65, 4
 1677              		.cfi_offset 31, -4
 1678              		.loc 1 560 0
 1679 000a 73E0E000 		e_lis %r31,.LANCHOR0@ha
 1680 000e 1FFF0000 		e_la %r31,.LANCHOR0@l(%r31)
 1681 0012 50FF0044 		e_lwz %r7,68(%r31)
 1682 0016 2A07     		se_cmpi %r7,0
 1683 0018 7A120022 		e_beq %cr0,.L74
 1684              		.loc 1 563 0
 1685 001c 4915     		se_li %r5,17
 1686 001e 70DEE40A 		e_lis %r6,0xf40a
 1687              		.loc 1 564 0
 1688 0022 4913     		se_li %r3,17
 1689              		.loc 1 563 0
 1690 0024 6516     		se_bseti %r6,17
 1691 0026 34A6001C 		e_stb %r5,28(%r6)
 1692              		.loc 1 567 0
 1693 002a C501     		se_lwz %r0,20(%r1)
 1694              		.loc 1 564 0
 1695 002c C267     		se_lwz %r6,8(%r7)
 1696              		.loc 1 567 0
 1697 002e C3F1     		se_lwz %r31,12(%r1)
 1698              		.loc 1 564 0
 1699 0030 C447     		se_lwz %r4,16(%r7)
 1700 0032 00B6     		se_mtctr %r6
 1701              		.loc 1 567 0
 1702 0034 0090     		se_mtlr %r0
 1703              		.cfi_remember_state
 1704              		.cfi_restore 65
 1705 0036 20F1     		se_addi %r1,16
 1706              	.LCFI72:
 1707              		.cfi_restore 31
 1708              		.cfi_def_cfa_offset 0
 1709              		.loc 1 564 0
 1710 0038 0006     		se_bctr
GAS LISTING C:\Users\bayra\AppData\Local\Temp\ccxOyyf6.s 			page 31


 1711              	.LVL67:
 1712              	.L74:
 1713              	.LCFI73:
 1714              		.cfi_restore_state
 1715              		.loc 1 561 0
 1716 003a 78000001 		e_bl irqSysHalt
 1717              	.LVL68:
 1718 003e 50FF0044 		e_lwz %r7,68(%r31)
 1719              		.loc 1 563 0
 1720 0042 4915     		se_li %r5,17
 1721 0044 70DEE40A 		e_lis %r6,0xf40a
 1722              		.loc 1 564 0
 1723 0048 4913     		se_li %r3,17
 1724              		.loc 1 563 0
 1725 004a 6516     		se_bseti %r6,17
 1726 004c 34A6001C 		e_stb %r5,28(%r6)
 1727              		.loc 1 567 0
 1728 0050 C501     		se_lwz %r0,20(%r1)
 1729              		.loc 1 564 0
 1730 0052 C267     		se_lwz %r6,8(%r7)
 1731              		.loc 1 567 0
 1732 0054 C3F1     		se_lwz %r31,12(%r1)
 1733              		.loc 1 564 0
 1734 0056 C447     		se_lwz %r4,16(%r7)
 1735 0058 00B6     		se_mtctr %r6
 1736              		.loc 1 567 0
 1737 005a 0090     		se_mtlr %r0
 1738              		.cfi_restore 65
 1739 005c 20F1     		se_addi %r1,16
 1740              	.LCFI74:
 1741              		.cfi_restore 31
 1742              		.cfi_def_cfa_offset 0
 1743              		.loc 1 564 0
 1744 005e 0006     		se_bctr
 1745              	.LVL69:
 1746              		.cfi_endproc
 1747              	.LFE21:
 1748              		.size	vector70, .-vector70
 1749              		.section	.text.vector71,"axv",@progbits
 1750              		.align 1
 1751              		.p2align 4,,15
 1752              		.globl vector71
 1753              		.type	vector71, @function
 1754              	vector71:
 1755              	.LFB22:
 1756              		.loc 1 577 0
 1757              		.cfi_startproc
 1758 0000 182106F0 		e_stwu %r1,-16(%r1)
 1759              	.LCFI75:
 1760              		.cfi_def_cfa_offset 16
 1761 0004 0080     		se_mflr %r0
 1762 0006 D3F1     		se_stw %r31,12(%r1)
 1763 0008 D501     		se_stw %r0,20(%r1)
 1764              		.cfi_offset 65, 4
 1765              		.cfi_offset 31, -4
 1766              		.loc 1 581 0
 1767 000a 73E0E000 		e_lis %r31,.LANCHOR0@ha
GAS LISTING C:\Users\bayra\AppData\Local\Temp\ccxOyyf6.s 			page 32


 1768 000e 1FFF0000 		e_la %r31,.LANCHOR0@l(%r31)
 1769 0012 50FF0048 		e_lwz %r7,72(%r31)
 1770 0016 2A07     		se_cmpi %r7,0
 1771 0018 7A120022 		e_beq %cr0,.L77
 1772              		.loc 1 584 0
 1773 001c 4925     		se_li %r5,18
 1774 001e 70DEE40A 		e_lis %r6,0xf40a
 1775              		.loc 1 585 0
 1776 0022 4923     		se_li %r3,18
 1777              		.loc 1 584 0
 1778 0024 6516     		se_bseti %r6,17
 1779 0026 34A6001C 		e_stb %r5,28(%r6)
 1780              		.loc 1 588 0
 1781 002a C501     		se_lwz %r0,20(%r1)
 1782              		.loc 1 585 0
 1783 002c C267     		se_lwz %r6,8(%r7)
 1784              		.loc 1 588 0
 1785 002e C3F1     		se_lwz %r31,12(%r1)
 1786              		.loc 1 585 0
 1787 0030 C447     		se_lwz %r4,16(%r7)
 1788 0032 00B6     		se_mtctr %r6
 1789              		.loc 1 588 0
 1790 0034 0090     		se_mtlr %r0
 1791              		.cfi_remember_state
 1792              		.cfi_restore 65
 1793 0036 20F1     		se_addi %r1,16
 1794              	.LCFI76:
 1795              		.cfi_restore 31
 1796              		.cfi_def_cfa_offset 0
 1797              		.loc 1 585 0
 1798 0038 0006     		se_bctr
 1799              	.LVL70:
 1800              	.L77:
 1801              	.LCFI77:
 1802              		.cfi_restore_state
 1803              		.loc 1 582 0
 1804 003a 78000001 		e_bl irqSysHalt
 1805              	.LVL71:
 1806 003e 50FF0048 		e_lwz %r7,72(%r31)
 1807              		.loc 1 584 0
 1808 0042 4925     		se_li %r5,18
 1809 0044 70DEE40A 		e_lis %r6,0xf40a
 1810              		.loc 1 585 0
 1811 0048 4923     		se_li %r3,18
 1812              		.loc 1 584 0
 1813 004a 6516     		se_bseti %r6,17
 1814 004c 34A6001C 		e_stb %r5,28(%r6)
 1815              		.loc 1 588 0
 1816 0050 C501     		se_lwz %r0,20(%r1)
 1817              		.loc 1 585 0
 1818 0052 C267     		se_lwz %r6,8(%r7)
 1819              		.loc 1 588 0
 1820 0054 C3F1     		se_lwz %r31,12(%r1)
 1821              		.loc 1 585 0
 1822 0056 C447     		se_lwz %r4,16(%r7)
 1823 0058 00B6     		se_mtctr %r6
 1824              		.loc 1 588 0
GAS LISTING C:\Users\bayra\AppData\Local\Temp\ccxOyyf6.s 			page 33


 1825 005a 0090     		se_mtlr %r0
 1826              		.cfi_restore 65
 1827 005c 20F1     		se_addi %r1,16
 1828              	.LCFI78:
 1829              		.cfi_restore 31
 1830              		.cfi_def_cfa_offset 0
 1831              		.loc 1 585 0
 1832 005e 0006     		se_bctr
 1833              	.LVL72:
 1834              		.cfi_endproc
 1835              	.LFE22:
 1836              		.size	vector71, .-vector71
 1837              		.section	.text.vector72,"axv",@progbits
 1838              		.align 1
 1839              		.p2align 4,,15
 1840              		.globl vector72
 1841              		.type	vector72, @function
 1842              	vector72:
 1843              	.LFB23:
 1844              		.loc 1 598 0
 1845              		.cfi_startproc
 1846 0000 182106F0 		e_stwu %r1,-16(%r1)
 1847              	.LCFI79:
 1848              		.cfi_def_cfa_offset 16
 1849 0004 0080     		se_mflr %r0
 1850 0006 D3F1     		se_stw %r31,12(%r1)
 1851 0008 D501     		se_stw %r0,20(%r1)
 1852              		.cfi_offset 65, 4
 1853              		.cfi_offset 31, -4
 1854              		.loc 1 602 0
 1855 000a 73E0E000 		e_lis %r31,.LANCHOR0@ha
 1856 000e 1FFF0000 		e_la %r31,.LANCHOR0@l(%r31)
 1857 0012 50FF004C 		e_lwz %r7,76(%r31)
 1858 0016 2A07     		se_cmpi %r7,0
 1859 0018 7A120022 		e_beq %cr0,.L80
 1860              		.loc 1 605 0
 1861 001c 4935     		se_li %r5,19
 1862 001e 70DEE40A 		e_lis %r6,0xf40a
 1863              		.loc 1 606 0
 1864 0022 4933     		se_li %r3,19
 1865              		.loc 1 605 0
 1866 0024 6516     		se_bseti %r6,17
 1867 0026 34A6001C 		e_stb %r5,28(%r6)
 1868              		.loc 1 609 0
 1869 002a C501     		se_lwz %r0,20(%r1)
 1870              		.loc 1 606 0
 1871 002c C267     		se_lwz %r6,8(%r7)
 1872              		.loc 1 609 0
 1873 002e C3F1     		se_lwz %r31,12(%r1)
 1874              		.loc 1 606 0
 1875 0030 C447     		se_lwz %r4,16(%r7)
 1876 0032 00B6     		se_mtctr %r6
 1877              		.loc 1 609 0
 1878 0034 0090     		se_mtlr %r0
 1879              		.cfi_remember_state
 1880              		.cfi_restore 65
 1881 0036 20F1     		se_addi %r1,16
GAS LISTING C:\Users\bayra\AppData\Local\Temp\ccxOyyf6.s 			page 34


 1882              	.LCFI80:
 1883              		.cfi_restore 31
 1884              		.cfi_def_cfa_offset 0
 1885              		.loc 1 606 0
 1886 0038 0006     		se_bctr
 1887              	.LVL73:
 1888              	.L80:
 1889              	.LCFI81:
 1890              		.cfi_restore_state
 1891              		.loc 1 603 0
 1892 003a 78000001 		e_bl irqSysHalt
 1893              	.LVL74:
 1894 003e 50FF004C 		e_lwz %r7,76(%r31)
 1895              		.loc 1 605 0
 1896 0042 4935     		se_li %r5,19
 1897 0044 70DEE40A 		e_lis %r6,0xf40a
 1898              		.loc 1 606 0
 1899 0048 4933     		se_li %r3,19
 1900              		.loc 1 605 0
 1901 004a 6516     		se_bseti %r6,17
 1902 004c 34A6001C 		e_stb %r5,28(%r6)
 1903              		.loc 1 609 0
 1904 0050 C501     		se_lwz %r0,20(%r1)
 1905              		.loc 1 606 0
 1906 0052 C267     		se_lwz %r6,8(%r7)
 1907              		.loc 1 609 0
 1908 0054 C3F1     		se_lwz %r31,12(%r1)
 1909              		.loc 1 606 0
 1910 0056 C447     		se_lwz %r4,16(%r7)
 1911 0058 00B6     		se_mtctr %r6
 1912              		.loc 1 609 0
 1913 005a 0090     		se_mtlr %r0
 1914              		.cfi_restore 65
 1915 005c 20F1     		se_addi %r1,16
 1916              	.LCFI82:
 1917              		.cfi_restore 31
 1918              		.cfi_def_cfa_offset 0
 1919              		.loc 1 606 0
 1920 005e 0006     		se_bctr
 1921              	.LVL75:
 1922              		.cfi_endproc
 1923              	.LFE23:
 1924              		.size	vector72, .-vector72
 1925              		.section	.text.vector73,"axv",@progbits
 1926              		.align 1
 1927              		.p2align 4,,15
 1928              		.globl vector73
 1929              		.type	vector73, @function
 1930              	vector73:
 1931              	.LFB24:
 1932              		.loc 1 619 0
 1933              		.cfi_startproc
 1934 0000 182106F0 		e_stwu %r1,-16(%r1)
 1935              	.LCFI83:
 1936              		.cfi_def_cfa_offset 16
 1937 0004 0080     		se_mflr %r0
 1938 0006 D3F1     		se_stw %r31,12(%r1)
GAS LISTING C:\Users\bayra\AppData\Local\Temp\ccxOyyf6.s 			page 35


 1939 0008 D501     		se_stw %r0,20(%r1)
 1940              		.cfi_offset 65, 4
 1941              		.cfi_offset 31, -4
 1942              		.loc 1 623 0
 1943 000a 73E0E000 		e_lis %r31,.LANCHOR0@ha
 1944 000e 1FFF0000 		e_la %r31,.LANCHOR0@l(%r31)
 1945 0012 50FF0050 		e_lwz %r7,80(%r31)
 1946 0016 2A07     		se_cmpi %r7,0
 1947 0018 7A120022 		e_beq %cr0,.L83
 1948              		.loc 1 626 0
 1949 001c 4945     		se_li %r5,20
 1950 001e 70DEE40A 		e_lis %r6,0xf40a
 1951              		.loc 1 627 0
 1952 0022 4943     		se_li %r3,20
 1953              		.loc 1 626 0
 1954 0024 6516     		se_bseti %r6,17
 1955 0026 34A6001C 		e_stb %r5,28(%r6)
 1956              		.loc 1 630 0
 1957 002a C501     		se_lwz %r0,20(%r1)
 1958              		.loc 1 627 0
 1959 002c C267     		se_lwz %r6,8(%r7)
 1960              		.loc 1 630 0
 1961 002e C3F1     		se_lwz %r31,12(%r1)
 1962              		.loc 1 627 0
 1963 0030 C447     		se_lwz %r4,16(%r7)
 1964 0032 00B6     		se_mtctr %r6
 1965              		.loc 1 630 0
 1966 0034 0090     		se_mtlr %r0
 1967              		.cfi_remember_state
 1968              		.cfi_restore 65
 1969 0036 20F1     		se_addi %r1,16
 1970              	.LCFI84:
 1971              		.cfi_restore 31
 1972              		.cfi_def_cfa_offset 0
 1973              		.loc 1 627 0
 1974 0038 0006     		se_bctr
 1975              	.LVL76:
 1976              	.L83:
 1977              	.LCFI85:
 1978              		.cfi_restore_state
 1979              		.loc 1 624 0
 1980 003a 78000001 		e_bl irqSysHalt
 1981              	.LVL77:
 1982 003e 50FF0050 		e_lwz %r7,80(%r31)
 1983              		.loc 1 626 0
 1984 0042 4945     		se_li %r5,20
 1985 0044 70DEE40A 		e_lis %r6,0xf40a
 1986              		.loc 1 627 0
 1987 0048 4943     		se_li %r3,20
 1988              		.loc 1 626 0
 1989 004a 6516     		se_bseti %r6,17
 1990 004c 34A6001C 		e_stb %r5,28(%r6)
 1991              		.loc 1 630 0
 1992 0050 C501     		se_lwz %r0,20(%r1)
 1993              		.loc 1 627 0
 1994 0052 C267     		se_lwz %r6,8(%r7)
 1995              		.loc 1 630 0
GAS LISTING C:\Users\bayra\AppData\Local\Temp\ccxOyyf6.s 			page 36


 1996 0054 C3F1     		se_lwz %r31,12(%r1)
 1997              		.loc 1 627 0
 1998 0056 C447     		se_lwz %r4,16(%r7)
 1999 0058 00B6     		se_mtctr %r6
 2000              		.loc 1 630 0
 2001 005a 0090     		se_mtlr %r0
 2002              		.cfi_restore 65
 2003 005c 20F1     		se_addi %r1,16
 2004              	.LCFI86:
 2005              		.cfi_restore 31
 2006              		.cfi_def_cfa_offset 0
 2007              		.loc 1 627 0
 2008 005e 0006     		se_bctr
 2009              	.LVL78:
 2010              		.cfi_endproc
 2011              	.LFE24:
 2012              		.size	vector73, .-vector73
 2013              		.section	.text.vector74,"axv",@progbits
 2014              		.align 1
 2015              		.p2align 4,,15
 2016              		.globl vector74
 2017              		.type	vector74, @function
 2018              	vector74:
 2019              	.LFB25:
 2020              		.loc 1 640 0
 2021              		.cfi_startproc
 2022 0000 182106F0 		e_stwu %r1,-16(%r1)
 2023              	.LCFI87:
 2024              		.cfi_def_cfa_offset 16
 2025 0004 0080     		se_mflr %r0
 2026 0006 D3F1     		se_stw %r31,12(%r1)
 2027 0008 D501     		se_stw %r0,20(%r1)
 2028              		.cfi_offset 65, 4
 2029              		.cfi_offset 31, -4
 2030              		.loc 1 644 0
 2031 000a 73E0E000 		e_lis %r31,.LANCHOR0@ha
 2032 000e 1FFF0000 		e_la %r31,.LANCHOR0@l(%r31)
 2033 0012 50FF0054 		e_lwz %r7,84(%r31)
 2034 0016 2A07     		se_cmpi %r7,0
 2035 0018 7A120022 		e_beq %cr0,.L86
 2036              		.loc 1 647 0
 2037 001c 4955     		se_li %r5,21
 2038 001e 70DEE40A 		e_lis %r6,0xf40a
 2039              		.loc 1 648 0
 2040 0022 4953     		se_li %r3,21
 2041              		.loc 1 647 0
 2042 0024 6516     		se_bseti %r6,17
 2043 0026 34A6001C 		e_stb %r5,28(%r6)
 2044              		.loc 1 651 0
 2045 002a C501     		se_lwz %r0,20(%r1)
 2046              		.loc 1 648 0
 2047 002c C267     		se_lwz %r6,8(%r7)
 2048              		.loc 1 651 0
 2049 002e C3F1     		se_lwz %r31,12(%r1)
 2050              		.loc 1 648 0
 2051 0030 C447     		se_lwz %r4,16(%r7)
 2052 0032 00B6     		se_mtctr %r6
GAS LISTING C:\Users\bayra\AppData\Local\Temp\ccxOyyf6.s 			page 37


 2053              		.loc 1 651 0
 2054 0034 0090     		se_mtlr %r0
 2055              		.cfi_remember_state
 2056              		.cfi_restore 65
 2057 0036 20F1     		se_addi %r1,16
 2058              	.LCFI88:
 2059              		.cfi_restore 31
 2060              		.cfi_def_cfa_offset 0
 2061              		.loc 1 648 0
 2062 0038 0006     		se_bctr
 2063              	.LVL79:
 2064              	.L86:
 2065              	.LCFI89:
 2066              		.cfi_restore_state
 2067              		.loc 1 645 0
 2068 003a 78000001 		e_bl irqSysHalt
 2069              	.LVL80:
 2070 003e 50FF0054 		e_lwz %r7,84(%r31)
 2071              		.loc 1 647 0
 2072 0042 4955     		se_li %r5,21
 2073 0044 70DEE40A 		e_lis %r6,0xf40a
 2074              		.loc 1 648 0
 2075 0048 4953     		se_li %r3,21
 2076              		.loc 1 647 0
 2077 004a 6516     		se_bseti %r6,17
 2078 004c 34A6001C 		e_stb %r5,28(%r6)
 2079              		.loc 1 651 0
 2080 0050 C501     		se_lwz %r0,20(%r1)
 2081              		.loc 1 648 0
 2082 0052 C267     		se_lwz %r6,8(%r7)
 2083              		.loc 1 651 0
 2084 0054 C3F1     		se_lwz %r31,12(%r1)
 2085              		.loc 1 648 0
 2086 0056 C447     		se_lwz %r4,16(%r7)
 2087 0058 00B6     		se_mtctr %r6
 2088              		.loc 1 651 0
 2089 005a 0090     		se_mtlr %r0
 2090              		.cfi_restore 65
 2091 005c 20F1     		se_addi %r1,16
 2092              	.LCFI90:
 2093              		.cfi_restore 31
 2094              		.cfi_def_cfa_offset 0
 2095              		.loc 1 648 0
 2096 005e 0006     		se_bctr
 2097              	.LVL81:
 2098              		.cfi_endproc
 2099              	.LFE25:
 2100              		.size	vector74, .-vector74
 2101              		.section	.text.vector75,"axv",@progbits
 2102              		.align 1
 2103              		.p2align 4,,15
 2104              		.globl vector75
 2105              		.type	vector75, @function
 2106              	vector75:
 2107              	.LFB26:
 2108              		.loc 1 661 0
 2109              		.cfi_startproc
GAS LISTING C:\Users\bayra\AppData\Local\Temp\ccxOyyf6.s 			page 38


 2110 0000 182106F0 		e_stwu %r1,-16(%r1)
 2111              	.LCFI91:
 2112              		.cfi_def_cfa_offset 16
 2113 0004 0080     		se_mflr %r0
 2114 0006 D3F1     		se_stw %r31,12(%r1)
 2115 0008 D501     		se_stw %r0,20(%r1)
 2116              		.cfi_offset 65, 4
 2117              		.cfi_offset 31, -4
 2118              		.loc 1 665 0
 2119 000a 73E0E000 		e_lis %r31,.LANCHOR0@ha
 2120 000e 1FFF0000 		e_la %r31,.LANCHOR0@l(%r31)
 2121 0012 50FF0058 		e_lwz %r7,88(%r31)
 2122 0016 2A07     		se_cmpi %r7,0
 2123 0018 7A120022 		e_beq %cr0,.L89
 2124              		.loc 1 668 0
 2125 001c 4965     		se_li %r5,22
 2126 001e 70DEE40A 		e_lis %r6,0xf40a
 2127              		.loc 1 669 0
 2128 0022 4963     		se_li %r3,22
 2129              		.loc 1 668 0
 2130 0024 6516     		se_bseti %r6,17
 2131 0026 34A6001C 		e_stb %r5,28(%r6)
 2132              		.loc 1 672 0
 2133 002a C501     		se_lwz %r0,20(%r1)
 2134              		.loc 1 669 0
 2135 002c C267     		se_lwz %r6,8(%r7)
 2136              		.loc 1 672 0
 2137 002e C3F1     		se_lwz %r31,12(%r1)
 2138              		.loc 1 669 0
 2139 0030 C447     		se_lwz %r4,16(%r7)
 2140 0032 00B6     		se_mtctr %r6
 2141              		.loc 1 672 0
 2142 0034 0090     		se_mtlr %r0
 2143              		.cfi_remember_state
 2144              		.cfi_restore 65
 2145 0036 20F1     		se_addi %r1,16
 2146              	.LCFI92:
 2147              		.cfi_restore 31
 2148              		.cfi_def_cfa_offset 0
 2149              		.loc 1 669 0
 2150 0038 0006     		se_bctr
 2151              	.LVL82:
 2152              	.L89:
 2153              	.LCFI93:
 2154              		.cfi_restore_state
 2155              		.loc 1 666 0
 2156 003a 78000001 		e_bl irqSysHalt
 2157              	.LVL83:
 2158 003e 50FF0058 		e_lwz %r7,88(%r31)
 2159              		.loc 1 668 0
 2160 0042 4965     		se_li %r5,22
 2161 0044 70DEE40A 		e_lis %r6,0xf40a
 2162              		.loc 1 669 0
 2163 0048 4963     		se_li %r3,22
 2164              		.loc 1 668 0
 2165 004a 6516     		se_bseti %r6,17
 2166 004c 34A6001C 		e_stb %r5,28(%r6)
GAS LISTING C:\Users\bayra\AppData\Local\Temp\ccxOyyf6.s 			page 39


 2167              		.loc 1 672 0
 2168 0050 C501     		se_lwz %r0,20(%r1)
 2169              		.loc 1 669 0
 2170 0052 C267     		se_lwz %r6,8(%r7)
 2171              		.loc 1 672 0
 2172 0054 C3F1     		se_lwz %r31,12(%r1)
 2173              		.loc 1 669 0
 2174 0056 C447     		se_lwz %r4,16(%r7)
 2175 0058 00B6     		se_mtctr %r6
 2176              		.loc 1 672 0
 2177 005a 0090     		se_mtlr %r0
 2178              		.cfi_restore 65
 2179 005c 20F1     		se_addi %r1,16
 2180              	.LCFI94:
 2181              		.cfi_restore 31
 2182              		.cfi_def_cfa_offset 0
 2183              		.loc 1 669 0
 2184 005e 0006     		se_bctr
 2185              	.LVL84:
 2186              		.cfi_endproc
 2187              	.LFE26:
 2188              		.size	vector75, .-vector75
 2189              		.section	.text.vector76,"axv",@progbits
 2190              		.align 1
 2191              		.p2align 4,,15
 2192              		.globl vector76
 2193              		.type	vector76, @function
 2194              	vector76:
 2195              	.LFB27:
 2196              		.loc 1 682 0
 2197              		.cfi_startproc
 2198 0000 182106F0 		e_stwu %r1,-16(%r1)
 2199              	.LCFI95:
 2200              		.cfi_def_cfa_offset 16
 2201 0004 0080     		se_mflr %r0
 2202 0006 D3F1     		se_stw %r31,12(%r1)
 2203 0008 D501     		se_stw %r0,20(%r1)
 2204              		.cfi_offset 65, 4
 2205              		.cfi_offset 31, -4
 2206              		.loc 1 686 0
 2207 000a 73E0E000 		e_lis %r31,.LANCHOR0@ha
 2208 000e 1FFF0000 		e_la %r31,.LANCHOR0@l(%r31)
 2209 0012 50FF005C 		e_lwz %r7,92(%r31)
 2210 0016 2A07     		se_cmpi %r7,0
 2211 0018 7A120022 		e_beq %cr0,.L92
 2212              		.loc 1 689 0
 2213 001c 4975     		se_li %r5,23
 2214 001e 70DEE40A 		e_lis %r6,0xf40a
 2215              		.loc 1 690 0
 2216 0022 4973     		se_li %r3,23
 2217              		.loc 1 689 0
 2218 0024 6516     		se_bseti %r6,17
 2219 0026 34A6001C 		e_stb %r5,28(%r6)
 2220              		.loc 1 693 0
 2221 002a C501     		se_lwz %r0,20(%r1)
 2222              		.loc 1 690 0
 2223 002c C267     		se_lwz %r6,8(%r7)
GAS LISTING C:\Users\bayra\AppData\Local\Temp\ccxOyyf6.s 			page 40


 2224              		.loc 1 693 0
 2225 002e C3F1     		se_lwz %r31,12(%r1)
 2226              		.loc 1 690 0
 2227 0030 C447     		se_lwz %r4,16(%r7)
 2228 0032 00B6     		se_mtctr %r6
 2229              		.loc 1 693 0
 2230 0034 0090     		se_mtlr %r0
 2231              		.cfi_remember_state
 2232              		.cfi_restore 65
 2233 0036 20F1     		se_addi %r1,16
 2234              	.LCFI96:
 2235              		.cfi_restore 31
 2236              		.cfi_def_cfa_offset 0
 2237              		.loc 1 690 0
 2238 0038 0006     		se_bctr
 2239              	.LVL85:
 2240              	.L92:
 2241              	.LCFI97:
 2242              		.cfi_restore_state
 2243              		.loc 1 687 0
 2244 003a 78000001 		e_bl irqSysHalt
 2245              	.LVL86:
 2246 003e 50FF005C 		e_lwz %r7,92(%r31)
 2247              		.loc 1 689 0
 2248 0042 4975     		se_li %r5,23
 2249 0044 70DEE40A 		e_lis %r6,0xf40a
 2250              		.loc 1 690 0
 2251 0048 4973     		se_li %r3,23
 2252              		.loc 1 689 0
 2253 004a 6516     		se_bseti %r6,17
 2254 004c 34A6001C 		e_stb %r5,28(%r6)
 2255              		.loc 1 693 0
 2256 0050 C501     		se_lwz %r0,20(%r1)
 2257              		.loc 1 690 0
 2258 0052 C267     		se_lwz %r6,8(%r7)
 2259              		.loc 1 693 0
 2260 0054 C3F1     		se_lwz %r31,12(%r1)
 2261              		.loc 1 690 0
 2262 0056 C447     		se_lwz %r4,16(%r7)
 2263 0058 00B6     		se_mtctr %r6
 2264              		.loc 1 693 0
 2265 005a 0090     		se_mtlr %r0
 2266              		.cfi_restore 65
 2267 005c 20F1     		se_addi %r1,16
 2268              	.LCFI98:
 2269              		.cfi_restore 31
 2270              		.cfi_def_cfa_offset 0
 2271              		.loc 1 690 0
 2272 005e 0006     		se_bctr
 2273              	.LVL87:
 2274              		.cfi_endproc
 2275              	.LFE27:
 2276              		.size	vector76, .-vector76
 2277              		.section	.text.vector77,"axv",@progbits
 2278              		.align 1
 2279              		.p2align 4,,15
 2280              		.globl vector77
GAS LISTING C:\Users\bayra\AppData\Local\Temp\ccxOyyf6.s 			page 41


 2281              		.type	vector77, @function
 2282              	vector77:
 2283              	.LFB28:
 2284              		.loc 1 703 0
 2285              		.cfi_startproc
 2286 0000 182106F0 		e_stwu %r1,-16(%r1)
 2287              	.LCFI99:
 2288              		.cfi_def_cfa_offset 16
 2289 0004 0080     		se_mflr %r0
 2290 0006 D3F1     		se_stw %r31,12(%r1)
 2291 0008 D501     		se_stw %r0,20(%r1)
 2292              		.cfi_offset 65, 4
 2293              		.cfi_offset 31, -4
 2294              		.loc 1 707 0
 2295 000a 73E0E000 		e_lis %r31,.LANCHOR0@ha
 2296 000e 1FFF0000 		e_la %r31,.LANCHOR0@l(%r31)
 2297 0012 50FF0060 		e_lwz %r7,96(%r31)
 2298 0016 2A07     		se_cmpi %r7,0
 2299 0018 7A120022 		e_beq %cr0,.L95
 2300              		.loc 1 710 0
 2301 001c 4985     		se_li %r5,24
 2302 001e 70DEE40A 		e_lis %r6,0xf40a
 2303              		.loc 1 711 0
 2304 0022 4983     		se_li %r3,24
 2305              		.loc 1 710 0
 2306 0024 6516     		se_bseti %r6,17
 2307 0026 34A6001C 		e_stb %r5,28(%r6)
 2308              		.loc 1 714 0
 2309 002a C501     		se_lwz %r0,20(%r1)
 2310              		.loc 1 711 0
 2311 002c C267     		se_lwz %r6,8(%r7)
 2312              		.loc 1 714 0
 2313 002e C3F1     		se_lwz %r31,12(%r1)
 2314              		.loc 1 711 0
 2315 0030 C447     		se_lwz %r4,16(%r7)
 2316 0032 00B6     		se_mtctr %r6
 2317              		.loc 1 714 0
 2318 0034 0090     		se_mtlr %r0
 2319              		.cfi_remember_state
 2320              		.cfi_restore 65
 2321 0036 20F1     		se_addi %r1,16
 2322              	.LCFI100:
 2323              		.cfi_restore 31
 2324              		.cfi_def_cfa_offset 0
 2325              		.loc 1 711 0
 2326 0038 0006     		se_bctr
 2327              	.LVL88:
 2328              	.L95:
 2329              	.LCFI101:
 2330              		.cfi_restore_state
 2331              		.loc 1 708 0
 2332 003a 78000001 		e_bl irqSysHalt
 2333              	.LVL89:
 2334 003e 50FF0060 		e_lwz %r7,96(%r31)
 2335              		.loc 1 710 0
 2336 0042 4985     		se_li %r5,24
 2337 0044 70DEE40A 		e_lis %r6,0xf40a
GAS LISTING C:\Users\bayra\AppData\Local\Temp\ccxOyyf6.s 			page 42


 2338              		.loc 1 711 0
 2339 0048 4983     		se_li %r3,24
 2340              		.loc 1 710 0
 2341 004a 6516     		se_bseti %r6,17
 2342 004c 34A6001C 		e_stb %r5,28(%r6)
 2343              		.loc 1 714 0
 2344 0050 C501     		se_lwz %r0,20(%r1)
 2345              		.loc 1 711 0
 2346 0052 C267     		se_lwz %r6,8(%r7)
 2347              		.loc 1 714 0
 2348 0054 C3F1     		se_lwz %r31,12(%r1)
 2349              		.loc 1 711 0
 2350 0056 C447     		se_lwz %r4,16(%r7)
 2351 0058 00B6     		se_mtctr %r6
 2352              		.loc 1 714 0
 2353 005a 0090     		se_mtlr %r0
 2354              		.cfi_restore 65
 2355 005c 20F1     		se_addi %r1,16
 2356              	.LCFI102:
 2357              		.cfi_restore 31
 2358              		.cfi_def_cfa_offset 0
 2359              		.loc 1 711 0
 2360 005e 0006     		se_bctr
 2361              	.LVL90:
 2362              		.cfi_endproc
 2363              	.LFE28:
 2364              		.size	vector77, .-vector77
 2365              		.section	.text.vector78,"axv",@progbits
 2366              		.align 1
 2367              		.p2align 4,,15
 2368              		.globl vector78
 2369              		.type	vector78, @function
 2370              	vector78:
 2371              	.LFB29:
 2372              		.loc 1 724 0
 2373              		.cfi_startproc
 2374 0000 182106F0 		e_stwu %r1,-16(%r1)
 2375              	.LCFI103:
 2376              		.cfi_def_cfa_offset 16
 2377 0004 0080     		se_mflr %r0
 2378 0006 D3F1     		se_stw %r31,12(%r1)
 2379 0008 D501     		se_stw %r0,20(%r1)
 2380              		.cfi_offset 65, 4
 2381              		.cfi_offset 31, -4
 2382              		.loc 1 728 0
 2383 000a 73E0E000 		e_lis %r31,.LANCHOR0@ha
 2384 000e 1FFF0000 		e_la %r31,.LANCHOR0@l(%r31)
 2385 0012 50FF0064 		e_lwz %r7,100(%r31)
 2386 0016 2A07     		se_cmpi %r7,0
 2387 0018 7A120022 		e_beq %cr0,.L98
 2388              		.loc 1 731 0
 2389 001c 4995     		se_li %r5,25
 2390 001e 70DEE40A 		e_lis %r6,0xf40a
 2391              		.loc 1 732 0
 2392 0022 4993     		se_li %r3,25
 2393              		.loc 1 731 0
 2394 0024 6516     		se_bseti %r6,17
GAS LISTING C:\Users\bayra\AppData\Local\Temp\ccxOyyf6.s 			page 43


 2395 0026 34A6001C 		e_stb %r5,28(%r6)
 2396              		.loc 1 735 0
 2397 002a C501     		se_lwz %r0,20(%r1)
 2398              		.loc 1 732 0
 2399 002c C267     		se_lwz %r6,8(%r7)
 2400              		.loc 1 735 0
 2401 002e C3F1     		se_lwz %r31,12(%r1)
 2402              		.loc 1 732 0
 2403 0030 C447     		se_lwz %r4,16(%r7)
 2404 0032 00B6     		se_mtctr %r6
 2405              		.loc 1 735 0
 2406 0034 0090     		se_mtlr %r0
 2407              		.cfi_remember_state
 2408              		.cfi_restore 65
 2409 0036 20F1     		se_addi %r1,16
 2410              	.LCFI104:
 2411              		.cfi_restore 31
 2412              		.cfi_def_cfa_offset 0
 2413              		.loc 1 732 0
 2414 0038 0006     		se_bctr
 2415              	.LVL91:
 2416              	.L98:
 2417              	.LCFI105:
 2418              		.cfi_restore_state
 2419              		.loc 1 729 0
 2420 003a 78000001 		e_bl irqSysHalt
 2421              	.LVL92:
 2422 003e 50FF0064 		e_lwz %r7,100(%r31)
 2423              		.loc 1 731 0
 2424 0042 4995     		se_li %r5,25
 2425 0044 70DEE40A 		e_lis %r6,0xf40a
 2426              		.loc 1 732 0
 2427 0048 4993     		se_li %r3,25
 2428              		.loc 1 731 0
 2429 004a 6516     		se_bseti %r6,17
 2430 004c 34A6001C 		e_stb %r5,28(%r6)
 2431              		.loc 1 735 0
 2432 0050 C501     		se_lwz %r0,20(%r1)
 2433              		.loc 1 732 0
 2434 0052 C267     		se_lwz %r6,8(%r7)
 2435              		.loc 1 735 0
 2436 0054 C3F1     		se_lwz %r31,12(%r1)
 2437              		.loc 1 732 0
 2438 0056 C447     		se_lwz %r4,16(%r7)
 2439 0058 00B6     		se_mtctr %r6
 2440              		.loc 1 735 0
 2441 005a 0090     		se_mtlr %r0
 2442              		.cfi_restore 65
 2443 005c 20F1     		se_addi %r1,16
 2444              	.LCFI106:
 2445              		.cfi_restore 31
 2446              		.cfi_def_cfa_offset 0
 2447              		.loc 1 732 0
 2448 005e 0006     		se_bctr
 2449              	.LVL93:
 2450              		.cfi_endproc
 2451              	.LFE29:
GAS LISTING C:\Users\bayra\AppData\Local\Temp\ccxOyyf6.s 			page 44


 2452              		.size	vector78, .-vector78
 2453              		.section	.text.vector79,"axv",@progbits
 2454              		.align 1
 2455              		.p2align 4,,15
 2456              		.globl vector79
 2457              		.type	vector79, @function
 2458              	vector79:
 2459              	.LFB30:
 2460              		.loc 1 745 0
 2461              		.cfi_startproc
 2462 0000 182106F0 		e_stwu %r1,-16(%r1)
 2463              	.LCFI107:
 2464              		.cfi_def_cfa_offset 16
 2465 0004 0080     		se_mflr %r0
 2466 0006 D3F1     		se_stw %r31,12(%r1)
 2467 0008 D501     		se_stw %r0,20(%r1)
 2468              		.cfi_offset 65, 4
 2469              		.cfi_offset 31, -4
 2470              		.loc 1 749 0
 2471 000a 73E0E000 		e_lis %r31,.LANCHOR0@ha
 2472 000e 1FFF0000 		e_la %r31,.LANCHOR0@l(%r31)
 2473 0012 50FF0068 		e_lwz %r7,104(%r31)
 2474 0016 2A07     		se_cmpi %r7,0
 2475 0018 7A120022 		e_beq %cr0,.L101
 2476              		.loc 1 752 0
 2477 001c 49A5     		se_li %r5,26
 2478 001e 70DEE40A 		e_lis %r6,0xf40a
 2479              		.loc 1 753 0
 2480 0022 49A3     		se_li %r3,26
 2481              		.loc 1 752 0
 2482 0024 6516     		se_bseti %r6,17
 2483 0026 34A6001C 		e_stb %r5,28(%r6)
 2484              		.loc 1 756 0
 2485 002a C501     		se_lwz %r0,20(%r1)
 2486              		.loc 1 753 0
 2487 002c C267     		se_lwz %r6,8(%r7)
 2488              		.loc 1 756 0
 2489 002e C3F1     		se_lwz %r31,12(%r1)
 2490              		.loc 1 753 0
 2491 0030 C447     		se_lwz %r4,16(%r7)
 2492 0032 00B6     		se_mtctr %r6
 2493              		.loc 1 756 0
 2494 0034 0090     		se_mtlr %r0
 2495              		.cfi_remember_state
 2496              		.cfi_restore 65
 2497 0036 20F1     		se_addi %r1,16
 2498              	.LCFI108:
 2499              		.cfi_restore 31
 2500              		.cfi_def_cfa_offset 0
 2501              		.loc 1 753 0
 2502 0038 0006     		se_bctr
 2503              	.LVL94:
 2504              	.L101:
 2505              	.LCFI109:
 2506              		.cfi_restore_state
 2507              		.loc 1 750 0
 2508 003a 78000001 		e_bl irqSysHalt
GAS LISTING C:\Users\bayra\AppData\Local\Temp\ccxOyyf6.s 			page 45


 2509              	.LVL95:
 2510 003e 50FF0068 		e_lwz %r7,104(%r31)
 2511              		.loc 1 752 0
 2512 0042 49A5     		se_li %r5,26
 2513 0044 70DEE40A 		e_lis %r6,0xf40a
 2514              		.loc 1 753 0
 2515 0048 49A3     		se_li %r3,26
 2516              		.loc 1 752 0
 2517 004a 6516     		se_bseti %r6,17
 2518 004c 34A6001C 		e_stb %r5,28(%r6)
 2519              		.loc 1 756 0
 2520 0050 C501     		se_lwz %r0,20(%r1)
 2521              		.loc 1 753 0
 2522 0052 C267     		se_lwz %r6,8(%r7)
 2523              		.loc 1 756 0
 2524 0054 C3F1     		se_lwz %r31,12(%r1)
 2525              		.loc 1 753 0
 2526 0056 C447     		se_lwz %r4,16(%r7)
 2527 0058 00B6     		se_mtctr %r6
 2528              		.loc 1 756 0
 2529 005a 0090     		se_mtlr %r0
 2530              		.cfi_restore 65
 2531 005c 20F1     		se_addi %r1,16
 2532              	.LCFI110:
 2533              		.cfi_restore 31
 2534              		.cfi_def_cfa_offset 0
 2535              		.loc 1 753 0
 2536 005e 0006     		se_bctr
 2537              	.LVL96:
 2538              		.cfi_endproc
 2539              	.LFE30:
 2540              		.size	vector79, .-vector79
 2541              		.section	.text.vector80,"axv",@progbits
 2542              		.align 1
 2543              		.p2align 4,,15
 2544              		.globl vector80
 2545              		.type	vector80, @function
 2546              	vector80:
 2547              	.LFB31:
 2548              		.loc 1 766 0
 2549              		.cfi_startproc
 2550 0000 182106F0 		e_stwu %r1,-16(%r1)
 2551              	.LCFI111:
 2552              		.cfi_def_cfa_offset 16
 2553 0004 0080     		se_mflr %r0
 2554 0006 D3F1     		se_stw %r31,12(%r1)
 2555 0008 D501     		se_stw %r0,20(%r1)
 2556              		.cfi_offset 65, 4
 2557              		.cfi_offset 31, -4
 2558              		.loc 1 770 0
 2559 000a 73E0E000 		e_lis %r31,.LANCHOR0@ha
 2560 000e 1FFF0000 		e_la %r31,.LANCHOR0@l(%r31)
 2561 0012 50FF006C 		e_lwz %r7,108(%r31)
 2562 0016 2A07     		se_cmpi %r7,0
 2563 0018 7A120022 		e_beq %cr0,.L104
 2564              		.loc 1 773 0
 2565 001c 49B5     		se_li %r5,27
GAS LISTING C:\Users\bayra\AppData\Local\Temp\ccxOyyf6.s 			page 46


 2566 001e 70DEE40A 		e_lis %r6,0xf40a
 2567              		.loc 1 774 0
 2568 0022 49B3     		se_li %r3,27
 2569              		.loc 1 773 0
 2570 0024 6516     		se_bseti %r6,17
 2571 0026 34A6001C 		e_stb %r5,28(%r6)
 2572              		.loc 1 777 0
 2573 002a C501     		se_lwz %r0,20(%r1)
 2574              		.loc 1 774 0
 2575 002c C267     		se_lwz %r6,8(%r7)
 2576              		.loc 1 777 0
 2577 002e C3F1     		se_lwz %r31,12(%r1)
 2578              		.loc 1 774 0
 2579 0030 C447     		se_lwz %r4,16(%r7)
 2580 0032 00B6     		se_mtctr %r6
 2581              		.loc 1 777 0
 2582 0034 0090     		se_mtlr %r0
 2583              		.cfi_remember_state
 2584              		.cfi_restore 65
 2585 0036 20F1     		se_addi %r1,16
 2586              	.LCFI112:
 2587              		.cfi_restore 31
 2588              		.cfi_def_cfa_offset 0
 2589              		.loc 1 774 0
 2590 0038 0006     		se_bctr
 2591              	.LVL97:
 2592              	.L104:
 2593              	.LCFI113:
 2594              		.cfi_restore_state
 2595              		.loc 1 771 0
 2596 003a 78000001 		e_bl irqSysHalt
 2597              	.LVL98:
 2598 003e 50FF006C 		e_lwz %r7,108(%r31)
 2599              		.loc 1 773 0
 2600 0042 49B5     		se_li %r5,27
 2601 0044 70DEE40A 		e_lis %r6,0xf40a
 2602              		.loc 1 774 0
 2603 0048 49B3     		se_li %r3,27
 2604              		.loc 1 773 0
 2605 004a 6516     		se_bseti %r6,17
 2606 004c 34A6001C 		e_stb %r5,28(%r6)
 2607              		.loc 1 777 0
 2608 0050 C501     		se_lwz %r0,20(%r1)
 2609              		.loc 1 774 0
 2610 0052 C267     		se_lwz %r6,8(%r7)
 2611              		.loc 1 777 0
 2612 0054 C3F1     		se_lwz %r31,12(%r1)
 2613              		.loc 1 774 0
 2614 0056 C447     		se_lwz %r4,16(%r7)
 2615 0058 00B6     		se_mtctr %r6
 2616              		.loc 1 777 0
 2617 005a 0090     		se_mtlr %r0
 2618              		.cfi_restore 65
 2619 005c 20F1     		se_addi %r1,16
 2620              	.LCFI114:
 2621              		.cfi_restore 31
 2622              		.cfi_def_cfa_offset 0
GAS LISTING C:\Users\bayra\AppData\Local\Temp\ccxOyyf6.s 			page 47


 2623              		.loc 1 774 0
 2624 005e 0006     		se_bctr
 2625              	.LVL99:
 2626              		.cfi_endproc
 2627              	.LFE31:
 2628              		.size	vector80, .-vector80
 2629              		.section	.text.vector81,"axv",@progbits
 2630              		.align 1
 2631              		.p2align 4,,15
 2632              		.globl vector81
 2633              		.type	vector81, @function
 2634              	vector81:
 2635              	.LFB32:
 2636              		.loc 1 787 0
 2637              		.cfi_startproc
 2638 0000 182106F0 		e_stwu %r1,-16(%r1)
 2639              	.LCFI115:
 2640              		.cfi_def_cfa_offset 16
 2641 0004 0080     		se_mflr %r0
 2642 0006 D3F1     		se_stw %r31,12(%r1)
 2643 0008 D501     		se_stw %r0,20(%r1)
 2644              		.cfi_offset 65, 4
 2645              		.cfi_offset 31, -4
 2646              		.loc 1 791 0
 2647 000a 73E0E000 		e_lis %r31,.LANCHOR0@ha
 2648 000e 1FFF0000 		e_la %r31,.LANCHOR0@l(%r31)
 2649 0012 50FF0070 		e_lwz %r7,112(%r31)
 2650 0016 2A07     		se_cmpi %r7,0
 2651 0018 7A120022 		e_beq %cr0,.L107
 2652              		.loc 1 794 0
 2653 001c 49C5     		se_li %r5,28
 2654 001e 70DEE40A 		e_lis %r6,0xf40a
 2655              		.loc 1 795 0
 2656 0022 49C3     		se_li %r3,28
 2657              		.loc 1 794 0
 2658 0024 6516     		se_bseti %r6,17
 2659 0026 34A6001C 		e_stb %r5,28(%r6)
 2660              		.loc 1 798 0
 2661 002a C501     		se_lwz %r0,20(%r1)
 2662              		.loc 1 795 0
 2663 002c C267     		se_lwz %r6,8(%r7)
 2664              		.loc 1 798 0
 2665 002e C3F1     		se_lwz %r31,12(%r1)
 2666              		.loc 1 795 0
 2667 0030 C447     		se_lwz %r4,16(%r7)
 2668 0032 00B6     		se_mtctr %r6
 2669              		.loc 1 798 0
 2670 0034 0090     		se_mtlr %r0
 2671              		.cfi_remember_state
 2672              		.cfi_restore 65
 2673 0036 20F1     		se_addi %r1,16
 2674              	.LCFI116:
 2675              		.cfi_restore 31
 2676              		.cfi_def_cfa_offset 0
 2677              		.loc 1 795 0
 2678 0038 0006     		se_bctr
 2679              	.LVL100:
GAS LISTING C:\Users\bayra\AppData\Local\Temp\ccxOyyf6.s 			page 48


 2680              	.L107:
 2681              	.LCFI117:
 2682              		.cfi_restore_state
 2683              		.loc 1 792 0
 2684 003a 78000001 		e_bl irqSysHalt
 2685              	.LVL101:
 2686 003e 50FF0070 		e_lwz %r7,112(%r31)
 2687              		.loc 1 794 0
 2688 0042 49C5     		se_li %r5,28
 2689 0044 70DEE40A 		e_lis %r6,0xf40a
 2690              		.loc 1 795 0
 2691 0048 49C3     		se_li %r3,28
 2692              		.loc 1 794 0
 2693 004a 6516     		se_bseti %r6,17
 2694 004c 34A6001C 		e_stb %r5,28(%r6)
 2695              		.loc 1 798 0
 2696 0050 C501     		se_lwz %r0,20(%r1)
 2697              		.loc 1 795 0
 2698 0052 C267     		se_lwz %r6,8(%r7)
 2699              		.loc 1 798 0
 2700 0054 C3F1     		se_lwz %r31,12(%r1)
 2701              		.loc 1 795 0
 2702 0056 C447     		se_lwz %r4,16(%r7)
 2703 0058 00B6     		se_mtctr %r6
 2704              		.loc 1 798 0
 2705 005a 0090     		se_mtlr %r0
 2706              		.cfi_restore 65
 2707 005c 20F1     		se_addi %r1,16
 2708              	.LCFI118:
 2709              		.cfi_restore 31
 2710              		.cfi_def_cfa_offset 0
 2711              		.loc 1 795 0
 2712 005e 0006     		se_bctr
 2713              	.LVL102:
 2714              		.cfi_endproc
 2715              	.LFE32:
 2716              		.size	vector81, .-vector81
 2717              		.section	.text.vector82,"axv",@progbits
 2718              		.align 1
 2719              		.p2align 4,,15
 2720              		.globl vector82
 2721              		.type	vector82, @function
 2722              	vector82:
 2723              	.LFB33:
 2724              		.loc 1 808 0
 2725              		.cfi_startproc
 2726 0000 182106F0 		e_stwu %r1,-16(%r1)
 2727              	.LCFI119:
 2728              		.cfi_def_cfa_offset 16
 2729 0004 0080     		se_mflr %r0
 2730 0006 D3F1     		se_stw %r31,12(%r1)
 2731 0008 D501     		se_stw %r0,20(%r1)
 2732              		.cfi_offset 65, 4
 2733              		.cfi_offset 31, -4
 2734              		.loc 1 812 0
 2735 000a 73E0E000 		e_lis %r31,.LANCHOR0@ha
 2736 000e 1FFF0000 		e_la %r31,.LANCHOR0@l(%r31)
GAS LISTING C:\Users\bayra\AppData\Local\Temp\ccxOyyf6.s 			page 49


 2737 0012 50FF0074 		e_lwz %r7,116(%r31)
 2738 0016 2A07     		se_cmpi %r7,0
 2739 0018 7A120022 		e_beq %cr0,.L110
 2740              		.loc 1 815 0
 2741 001c 49D5     		se_li %r5,29
 2742 001e 70DEE40A 		e_lis %r6,0xf40a
 2743              		.loc 1 816 0
 2744 0022 49D3     		se_li %r3,29
 2745              		.loc 1 815 0
 2746 0024 6516     		se_bseti %r6,17
 2747 0026 34A6001C 		e_stb %r5,28(%r6)
 2748              		.loc 1 819 0
 2749 002a C501     		se_lwz %r0,20(%r1)
 2750              		.loc 1 816 0
 2751 002c C267     		se_lwz %r6,8(%r7)
 2752              		.loc 1 819 0
 2753 002e C3F1     		se_lwz %r31,12(%r1)
 2754              		.loc 1 816 0
 2755 0030 C447     		se_lwz %r4,16(%r7)
 2756 0032 00B6     		se_mtctr %r6
 2757              		.loc 1 819 0
 2758 0034 0090     		se_mtlr %r0
 2759              		.cfi_remember_state
 2760              		.cfi_restore 65
 2761 0036 20F1     		se_addi %r1,16
 2762              	.LCFI120:
 2763              		.cfi_restore 31
 2764              		.cfi_def_cfa_offset 0
 2765              		.loc 1 816 0
 2766 0038 0006     		se_bctr
 2767              	.LVL103:
 2768              	.L110:
 2769              	.LCFI121:
 2770              		.cfi_restore_state
 2771              		.loc 1 813 0
 2772 003a 78000001 		e_bl irqSysHalt
 2773              	.LVL104:
 2774 003e 50FF0074 		e_lwz %r7,116(%r31)
 2775              		.loc 1 815 0
 2776 0042 49D5     		se_li %r5,29
 2777 0044 70DEE40A 		e_lis %r6,0xf40a
 2778              		.loc 1 816 0
 2779 0048 49D3     		se_li %r3,29
 2780              		.loc 1 815 0
 2781 004a 6516     		se_bseti %r6,17
 2782 004c 34A6001C 		e_stb %r5,28(%r6)
 2783              		.loc 1 819 0
 2784 0050 C501     		se_lwz %r0,20(%r1)
 2785              		.loc 1 816 0
 2786 0052 C267     		se_lwz %r6,8(%r7)
 2787              		.loc 1 819 0
 2788 0054 C3F1     		se_lwz %r31,12(%r1)
 2789              		.loc 1 816 0
 2790 0056 C447     		se_lwz %r4,16(%r7)
 2791 0058 00B6     		se_mtctr %r6
 2792              		.loc 1 819 0
 2793 005a 0090     		se_mtlr %r0
GAS LISTING C:\Users\bayra\AppData\Local\Temp\ccxOyyf6.s 			page 50


 2794              		.cfi_restore 65
 2795 005c 20F1     		se_addi %r1,16
 2796              	.LCFI122:
 2797              		.cfi_restore 31
 2798              		.cfi_def_cfa_offset 0
 2799              		.loc 1 816 0
 2800 005e 0006     		se_bctr
 2801              	.LVL105:
 2802              		.cfi_endproc
 2803              	.LFE33:
 2804              		.size	vector82, .-vector82
 2805              		.section	.text.vector83,"axv",@progbits
 2806              		.align 1
 2807              		.p2align 4,,15
 2808              		.globl vector83
 2809              		.type	vector83, @function
 2810              	vector83:
 2811              	.LFB34:
 2812              		.loc 1 829 0
 2813              		.cfi_startproc
 2814 0000 182106F0 		e_stwu %r1,-16(%r1)
 2815              	.LCFI123:
 2816              		.cfi_def_cfa_offset 16
 2817 0004 0080     		se_mflr %r0
 2818 0006 D3F1     		se_stw %r31,12(%r1)
 2819 0008 D501     		se_stw %r0,20(%r1)
 2820              		.cfi_offset 65, 4
 2821              		.cfi_offset 31, -4
 2822              		.loc 1 833 0
 2823 000a 73E0E000 		e_lis %r31,.LANCHOR0@ha
 2824 000e 1FFF0000 		e_la %r31,.LANCHOR0@l(%r31)
 2825 0012 50FF0078 		e_lwz %r7,120(%r31)
 2826 0016 2A07     		se_cmpi %r7,0
 2827 0018 7A120022 		e_beq %cr0,.L113
 2828              		.loc 1 836 0
 2829 001c 49E5     		se_li %r5,30
 2830 001e 70DEE40A 		e_lis %r6,0xf40a
 2831              		.loc 1 837 0
 2832 0022 49E3     		se_li %r3,30
 2833              		.loc 1 836 0
 2834 0024 6516     		se_bseti %r6,17
 2835 0026 34A6001C 		e_stb %r5,28(%r6)
 2836              		.loc 1 840 0
 2837 002a C501     		se_lwz %r0,20(%r1)
 2838              		.loc 1 837 0
 2839 002c C267     		se_lwz %r6,8(%r7)
 2840              		.loc 1 840 0
 2841 002e C3F1     		se_lwz %r31,12(%r1)
 2842              		.loc 1 837 0
 2843 0030 C447     		se_lwz %r4,16(%r7)
 2844 0032 00B6     		se_mtctr %r6
 2845              		.loc 1 840 0
 2846 0034 0090     		se_mtlr %r0
 2847              		.cfi_remember_state
 2848              		.cfi_restore 65
 2849 0036 20F1     		se_addi %r1,16
 2850              	.LCFI124:
GAS LISTING C:\Users\bayra\AppData\Local\Temp\ccxOyyf6.s 			page 51


 2851              		.cfi_restore 31
 2852              		.cfi_def_cfa_offset 0
 2853              		.loc 1 837 0
 2854 0038 0006     		se_bctr
 2855              	.LVL106:
 2856              	.L113:
 2857              	.LCFI125:
 2858              		.cfi_restore_state
 2859              		.loc 1 834 0
 2860 003a 78000001 		e_bl irqSysHalt
 2861              	.LVL107:
 2862 003e 50FF0078 		e_lwz %r7,120(%r31)
 2863              		.loc 1 836 0
 2864 0042 49E5     		se_li %r5,30
 2865 0044 70DEE40A 		e_lis %r6,0xf40a
 2866              		.loc 1 837 0
 2867 0048 49E3     		se_li %r3,30
 2868              		.loc 1 836 0
 2869 004a 6516     		se_bseti %r6,17
 2870 004c 34A6001C 		e_stb %r5,28(%r6)
 2871              		.loc 1 840 0
 2872 0050 C501     		se_lwz %r0,20(%r1)
 2873              		.loc 1 837 0
 2874 0052 C267     		se_lwz %r6,8(%r7)
 2875              		.loc 1 840 0
 2876 0054 C3F1     		se_lwz %r31,12(%r1)
 2877              		.loc 1 837 0
 2878 0056 C447     		se_lwz %r4,16(%r7)
 2879 0058 00B6     		se_mtctr %r6
 2880              		.loc 1 840 0
 2881 005a 0090     		se_mtlr %r0
 2882              		.cfi_restore 65
 2883 005c 20F1     		se_addi %r1,16
 2884              	.LCFI126:
 2885              		.cfi_restore 31
 2886              		.cfi_def_cfa_offset 0
 2887              		.loc 1 837 0
 2888 005e 0006     		se_bctr
 2889              	.LVL108:
 2890              		.cfi_endproc
 2891              	.LFE34:
 2892              		.size	vector83, .-vector83
 2893              		.section	.text.vector84,"axv",@progbits
 2894              		.align 1
 2895              		.p2align 4,,15
 2896              		.globl vector84
 2897              		.type	vector84, @function
 2898              	vector84:
 2899              	.LFB35:
 2900              		.loc 1 850 0
 2901              		.cfi_startproc
 2902 0000 182106F0 		e_stwu %r1,-16(%r1)
 2903              	.LCFI127:
 2904              		.cfi_def_cfa_offset 16
 2905 0004 0080     		se_mflr %r0
 2906 0006 D3F1     		se_stw %r31,12(%r1)
 2907 0008 D501     		se_stw %r0,20(%r1)
GAS LISTING C:\Users\bayra\AppData\Local\Temp\ccxOyyf6.s 			page 52


 2908              		.cfi_offset 65, 4
 2909              		.cfi_offset 31, -4
 2910              		.loc 1 854 0
 2911 000a 73E0E000 		e_lis %r31,.LANCHOR0@ha
 2912 000e 1FFF0000 		e_la %r31,.LANCHOR0@l(%r31)
 2913 0012 50FF007C 		e_lwz %r7,124(%r31)
 2914 0016 2A07     		se_cmpi %r7,0
 2915 0018 7A120022 		e_beq %cr0,.L116
 2916              		.loc 1 857 0
 2917 001c 49F5     		se_li %r5,31
 2918 001e 70DEE40A 		e_lis %r6,0xf40a
 2919              		.loc 1 858 0
 2920 0022 49F3     		se_li %r3,31
 2921              		.loc 1 857 0
 2922 0024 6516     		se_bseti %r6,17
 2923 0026 34A6001C 		e_stb %r5,28(%r6)
 2924              		.loc 1 861 0
 2925 002a C501     		se_lwz %r0,20(%r1)
 2926              		.loc 1 858 0
 2927 002c C267     		se_lwz %r6,8(%r7)
 2928              		.loc 1 861 0
 2929 002e C3F1     		se_lwz %r31,12(%r1)
 2930              		.loc 1 858 0
 2931 0030 C447     		se_lwz %r4,16(%r7)
 2932 0032 00B6     		se_mtctr %r6
 2933              		.loc 1 861 0
 2934 0034 0090     		se_mtlr %r0
 2935              		.cfi_remember_state
 2936              		.cfi_restore 65
 2937 0036 20F1     		se_addi %r1,16
 2938              	.LCFI128:
 2939              		.cfi_restore 31
 2940              		.cfi_def_cfa_offset 0
 2941              		.loc 1 858 0
 2942 0038 0006     		se_bctr
 2943              	.LVL109:
 2944              	.L116:
 2945              	.LCFI129:
 2946              		.cfi_restore_state
 2947              		.loc 1 855 0
 2948 003a 78000001 		e_bl irqSysHalt
 2949              	.LVL110:
 2950 003e 50FF007C 		e_lwz %r7,124(%r31)
 2951              		.loc 1 857 0
 2952 0042 49F5     		se_li %r5,31
 2953 0044 70DEE40A 		e_lis %r6,0xf40a
 2954              		.loc 1 858 0
 2955 0048 49F3     		se_li %r3,31
 2956              		.loc 1 857 0
 2957 004a 6516     		se_bseti %r6,17
 2958 004c 34A6001C 		e_stb %r5,28(%r6)
 2959              		.loc 1 861 0
 2960 0050 C501     		se_lwz %r0,20(%r1)
 2961              		.loc 1 858 0
 2962 0052 C267     		se_lwz %r6,8(%r7)
 2963              		.loc 1 861 0
 2964 0054 C3F1     		se_lwz %r31,12(%r1)
GAS LISTING C:\Users\bayra\AppData\Local\Temp\ccxOyyf6.s 			page 53


 2965              		.loc 1 858 0
 2966 0056 C447     		se_lwz %r4,16(%r7)
 2967 0058 00B6     		se_mtctr %r6
 2968              		.loc 1 861 0
 2969 005a 0090     		se_mtlr %r0
 2970              		.cfi_restore 65
 2971 005c 20F1     		se_addi %r1,16
 2972              	.LCFI130:
 2973              		.cfi_restore 31
 2974              		.cfi_def_cfa_offset 0
 2975              		.loc 1 858 0
 2976 005e 0006     		se_bctr
 2977              	.LVL111:
 2978              		.cfi_endproc
 2979              	.LFE35:
 2980              		.size	vector84, .-vector84
 2981              		.section	.text.vector85,"axv",@progbits
 2982              		.align 1
 2983              		.p2align 4,,15
 2984              		.globl vector85
 2985              		.type	vector85, @function
 2986              	vector85:
 2987              	.LFB36:
 2988              		.loc 1 872 0
 2989              		.cfi_startproc
 2990 0000 182106F0 		e_stwu %r1,-16(%r1)
 2991              	.LCFI131:
 2992              		.cfi_def_cfa_offset 16
 2993 0004 0080     		se_mflr %r0
 2994 0006 D3F1     		se_stw %r31,12(%r1)
 2995 0008 D501     		se_stw %r0,20(%r1)
 2996              		.cfi_offset 65, 4
 2997              		.cfi_offset 31, -4
 2998              		.loc 1 876 0
 2999 000a 73E0E000 		e_lis %r31,.LANCHOR0@ha
 3000 000e 1FFF0000 		e_la %r31,.LANCHOR0@l(%r31)
 3001 0012 50FF0080 		e_lwz %r7,128(%r31)
 3002 0016 2A07     		se_cmpi %r7,0
 3003 0018 7A120022 		e_beq %cr0,.L119
 3004              		.loc 1 879 0
 3005 001c 4A05     		se_li %r5,32
 3006 001e 70DEE40A 		e_lis %r6,0xf40a
 3007              		.loc 1 880 0
 3008 0022 4A03     		se_li %r3,32
 3009              		.loc 1 879 0
 3010 0024 6516     		se_bseti %r6,17
 3011 0026 34A6001C 		e_stb %r5,28(%r6)
 3012              		.loc 1 883 0
 3013 002a C501     		se_lwz %r0,20(%r1)
 3014              		.loc 1 880 0
 3015 002c C267     		se_lwz %r6,8(%r7)
 3016              		.loc 1 883 0
 3017 002e C3F1     		se_lwz %r31,12(%r1)
 3018              		.loc 1 880 0
 3019 0030 C447     		se_lwz %r4,16(%r7)
 3020 0032 00B6     		se_mtctr %r6
 3021              		.loc 1 883 0
GAS LISTING C:\Users\bayra\AppData\Local\Temp\ccxOyyf6.s 			page 54


 3022 0034 0090     		se_mtlr %r0
 3023              		.cfi_remember_state
 3024              		.cfi_restore 65
 3025 0036 20F1     		se_addi %r1,16
 3026              	.LCFI132:
 3027              		.cfi_restore 31
 3028              		.cfi_def_cfa_offset 0
 3029              		.loc 1 880 0
 3030 0038 0006     		se_bctr
 3031              	.LVL112:
 3032              	.L119:
 3033              	.LCFI133:
 3034              		.cfi_restore_state
 3035              		.loc 1 877 0
 3036 003a 78000001 		e_bl irqSysHalt
 3037              	.LVL113:
 3038 003e 50FF0080 		e_lwz %r7,128(%r31)
 3039              		.loc 1 879 0
 3040 0042 4A05     		se_li %r5,32
 3041 0044 70DEE40A 		e_lis %r6,0xf40a
 3042              		.loc 1 880 0
 3043 0048 4A03     		se_li %r3,32
 3044              		.loc 1 879 0
 3045 004a 6516     		se_bseti %r6,17
 3046 004c 34A6001C 		e_stb %r5,28(%r6)
 3047              		.loc 1 883 0
 3048 0050 C501     		se_lwz %r0,20(%r1)
 3049              		.loc 1 880 0
 3050 0052 C267     		se_lwz %r6,8(%r7)
 3051              		.loc 1 883 0
 3052 0054 C3F1     		se_lwz %r31,12(%r1)
 3053              		.loc 1 880 0
 3054 0056 C447     		se_lwz %r4,16(%r7)
 3055 0058 00B6     		se_mtctr %r6
 3056              		.loc 1 883 0
 3057 005a 0090     		se_mtlr %r0
 3058              		.cfi_restore 65
 3059 005c 20F1     		se_addi %r1,16
 3060              	.LCFI134:
 3061              		.cfi_restore 31
 3062              		.cfi_def_cfa_offset 0
 3063              		.loc 1 880 0
 3064 005e 0006     		se_bctr
 3065              	.LVL114:
 3066              		.cfi_endproc
 3067              	.LFE36:
 3068              		.size	vector85, .-vector85
 3069              		.section	.text.vector86,"axv",@progbits
 3070              		.align 1
 3071              		.p2align 4,,15
 3072              		.globl vector86
 3073              		.type	vector86, @function
 3074              	vector86:
 3075              	.LFB37:
 3076              		.loc 1 893 0
 3077              		.cfi_startproc
 3078 0000 182106F0 		e_stwu %r1,-16(%r1)
GAS LISTING C:\Users\bayra\AppData\Local\Temp\ccxOyyf6.s 			page 55


 3079              	.LCFI135:
 3080              		.cfi_def_cfa_offset 16
 3081 0004 0080     		se_mflr %r0
 3082 0006 D3F1     		se_stw %r31,12(%r1)
 3083 0008 D501     		se_stw %r0,20(%r1)
 3084              		.cfi_offset 65, 4
 3085              		.cfi_offset 31, -4
 3086              		.loc 1 897 0
 3087 000a 73E0E000 		e_lis %r31,.LANCHOR0@ha
 3088 000e 1FFF0000 		e_la %r31,.LANCHOR0@l(%r31)
 3089 0012 50FF0084 		e_lwz %r7,132(%r31)
 3090 0016 2A07     		se_cmpi %r7,0
 3091 0018 7A120022 		e_beq %cr0,.L122
 3092              		.loc 1 900 0
 3093 001c 4A15     		se_li %r5,33
 3094 001e 70DEE40A 		e_lis %r6,0xf40a
 3095              		.loc 1 901 0
 3096 0022 4A13     		se_li %r3,33
 3097              		.loc 1 900 0
 3098 0024 6516     		se_bseti %r6,17
 3099 0026 34A6001C 		e_stb %r5,28(%r6)
 3100              		.loc 1 904 0
 3101 002a C501     		se_lwz %r0,20(%r1)
 3102              		.loc 1 901 0
 3103 002c C267     		se_lwz %r6,8(%r7)
 3104              		.loc 1 904 0
 3105 002e C3F1     		se_lwz %r31,12(%r1)
 3106              		.loc 1 901 0
 3107 0030 C447     		se_lwz %r4,16(%r7)
 3108 0032 00B6     		se_mtctr %r6
 3109              		.loc 1 904 0
 3110 0034 0090     		se_mtlr %r0
 3111              		.cfi_remember_state
 3112              		.cfi_restore 65
 3113 0036 20F1     		se_addi %r1,16
 3114              	.LCFI136:
 3115              		.cfi_restore 31
 3116              		.cfi_def_cfa_offset 0
 3117              		.loc 1 901 0
 3118 0038 0006     		se_bctr
 3119              	.LVL115:
 3120              	.L122:
 3121              	.LCFI137:
 3122              		.cfi_restore_state
 3123              		.loc 1 898 0
 3124 003a 78000001 		e_bl irqSysHalt
 3125              	.LVL116:
 3126 003e 50FF0084 		e_lwz %r7,132(%r31)
 3127              		.loc 1 900 0
 3128 0042 4A15     		se_li %r5,33
 3129 0044 70DEE40A 		e_lis %r6,0xf40a
 3130              		.loc 1 901 0
 3131 0048 4A13     		se_li %r3,33
 3132              		.loc 1 900 0
 3133 004a 6516     		se_bseti %r6,17
 3134 004c 34A6001C 		e_stb %r5,28(%r6)
 3135              		.loc 1 904 0
GAS LISTING C:\Users\bayra\AppData\Local\Temp\ccxOyyf6.s 			page 56


 3136 0050 C501     		se_lwz %r0,20(%r1)
 3137              		.loc 1 901 0
 3138 0052 C267     		se_lwz %r6,8(%r7)
 3139              		.loc 1 904 0
 3140 0054 C3F1     		se_lwz %r31,12(%r1)
 3141              		.loc 1 901 0
 3142 0056 C447     		se_lwz %r4,16(%r7)
 3143 0058 00B6     		se_mtctr %r6
 3144              		.loc 1 904 0
 3145 005a 0090     		se_mtlr %r0
 3146              		.cfi_restore 65
 3147 005c 20F1     		se_addi %r1,16
 3148              	.LCFI138:
 3149              		.cfi_restore 31
 3150              		.cfi_def_cfa_offset 0
 3151              		.loc 1 901 0
 3152 005e 0006     		se_bctr
 3153              	.LVL117:
 3154              		.cfi_endproc
 3155              	.LFE37:
 3156              		.size	vector86, .-vector86
 3157              		.section	.text.vector87,"axv",@progbits
 3158              		.align 1
 3159              		.p2align 4,,15
 3160              		.globl vector87
 3161              		.type	vector87, @function
 3162              	vector87:
 3163              	.LFB38:
 3164              		.loc 1 914 0
 3165              		.cfi_startproc
 3166 0000 182106F0 		e_stwu %r1,-16(%r1)
 3167              	.LCFI139:
 3168              		.cfi_def_cfa_offset 16
 3169 0004 0080     		se_mflr %r0
 3170 0006 D3F1     		se_stw %r31,12(%r1)
 3171 0008 D501     		se_stw %r0,20(%r1)
 3172              		.cfi_offset 65, 4
 3173              		.cfi_offset 31, -4
 3174              		.loc 1 918 0
 3175 000a 73E0E000 		e_lis %r31,.LANCHOR0@ha
 3176 000e 1FFF0000 		e_la %r31,.LANCHOR0@l(%r31)
 3177 0012 50FF0088 		e_lwz %r7,136(%r31)
 3178 0016 2A07     		se_cmpi %r7,0
 3179 0018 7A120022 		e_beq %cr0,.L125
 3180              		.loc 1 921 0
 3181 001c 4A25     		se_li %r5,34
 3182 001e 70DEE40A 		e_lis %r6,0xf40a
 3183              		.loc 1 922 0
 3184 0022 4A23     		se_li %r3,34
 3185              		.loc 1 921 0
 3186 0024 6516     		se_bseti %r6,17
 3187 0026 34A6001C 		e_stb %r5,28(%r6)
 3188              		.loc 1 925 0
 3189 002a C501     		se_lwz %r0,20(%r1)
 3190              		.loc 1 922 0
 3191 002c C267     		se_lwz %r6,8(%r7)
 3192              		.loc 1 925 0
GAS LISTING C:\Users\bayra\AppData\Local\Temp\ccxOyyf6.s 			page 57


 3193 002e C3F1     		se_lwz %r31,12(%r1)
 3194              		.loc 1 922 0
 3195 0030 C447     		se_lwz %r4,16(%r7)
 3196 0032 00B6     		se_mtctr %r6
 3197              		.loc 1 925 0
 3198 0034 0090     		se_mtlr %r0
 3199              		.cfi_remember_state
 3200              		.cfi_restore 65
 3201 0036 20F1     		se_addi %r1,16
 3202              	.LCFI140:
 3203              		.cfi_restore 31
 3204              		.cfi_def_cfa_offset 0
 3205              		.loc 1 922 0
 3206 0038 0006     		se_bctr
 3207              	.LVL118:
 3208              	.L125:
 3209              	.LCFI141:
 3210              		.cfi_restore_state
 3211              		.loc 1 919 0
 3212 003a 78000001 		e_bl irqSysHalt
 3213              	.LVL119:
 3214 003e 50FF0088 		e_lwz %r7,136(%r31)
 3215              		.loc 1 921 0
 3216 0042 4A25     		se_li %r5,34
 3217 0044 70DEE40A 		e_lis %r6,0xf40a
 3218              		.loc 1 922 0
 3219 0048 4A23     		se_li %r3,34
 3220              		.loc 1 921 0
 3221 004a 6516     		se_bseti %r6,17
 3222 004c 34A6001C 		e_stb %r5,28(%r6)
 3223              		.loc 1 925 0
 3224 0050 C501     		se_lwz %r0,20(%r1)
 3225              		.loc 1 922 0
 3226 0052 C267     		se_lwz %r6,8(%r7)
 3227              		.loc 1 925 0
 3228 0054 C3F1     		se_lwz %r31,12(%r1)
 3229              		.loc 1 922 0
 3230 0056 C447     		se_lwz %r4,16(%r7)
 3231 0058 00B6     		se_mtctr %r6
 3232              		.loc 1 925 0
 3233 005a 0090     		se_mtlr %r0
 3234              		.cfi_restore 65
 3235 005c 20F1     		se_addi %r1,16
 3236              	.LCFI142:
 3237              		.cfi_restore 31
 3238              		.cfi_def_cfa_offset 0
 3239              		.loc 1 922 0
 3240 005e 0006     		se_bctr
 3241              	.LVL120:
 3242              		.cfi_endproc
 3243              	.LFE38:
 3244              		.size	vector87, .-vector87
 3245              		.section	.text.vector88,"axv",@progbits
 3246              		.align 1
 3247              		.p2align 4,,15
 3248              		.globl vector88
 3249              		.type	vector88, @function
GAS LISTING C:\Users\bayra\AppData\Local\Temp\ccxOyyf6.s 			page 58


 3250              	vector88:
 3251              	.LFB39:
 3252              		.loc 1 935 0
 3253              		.cfi_startproc
 3254 0000 182106F0 		e_stwu %r1,-16(%r1)
 3255              	.LCFI143:
 3256              		.cfi_def_cfa_offset 16
 3257 0004 0080     		se_mflr %r0
 3258 0006 D3F1     		se_stw %r31,12(%r1)
 3259 0008 D501     		se_stw %r0,20(%r1)
 3260              		.cfi_offset 65, 4
 3261              		.cfi_offset 31, -4
 3262              		.loc 1 939 0
 3263 000a 73E0E000 		e_lis %r31,.LANCHOR0@ha
 3264 000e 1FFF0000 		e_la %r31,.LANCHOR0@l(%r31)
 3265 0012 50FF008C 		e_lwz %r7,140(%r31)
 3266 0016 2A07     		se_cmpi %r7,0
 3267 0018 7A120022 		e_beq %cr0,.L128
 3268              		.loc 1 942 0
 3269 001c 4A35     		se_li %r5,35
 3270 001e 70DEE40A 		e_lis %r6,0xf40a
 3271              		.loc 1 943 0
 3272 0022 4A33     		se_li %r3,35
 3273              		.loc 1 942 0
 3274 0024 6516     		se_bseti %r6,17
 3275 0026 34A6001C 		e_stb %r5,28(%r6)
 3276              		.loc 1 946 0
 3277 002a C501     		se_lwz %r0,20(%r1)
 3278              		.loc 1 943 0
 3279 002c C267     		se_lwz %r6,8(%r7)
 3280              		.loc 1 946 0
 3281 002e C3F1     		se_lwz %r31,12(%r1)
 3282              		.loc 1 943 0
 3283 0030 C447     		se_lwz %r4,16(%r7)
 3284 0032 00B6     		se_mtctr %r6
 3285              		.loc 1 946 0
 3286 0034 0090     		se_mtlr %r0
 3287              		.cfi_remember_state
 3288              		.cfi_restore 65
 3289 0036 20F1     		se_addi %r1,16
 3290              	.LCFI144:
 3291              		.cfi_restore 31
 3292              		.cfi_def_cfa_offset 0
 3293              		.loc 1 943 0
 3294 0038 0006     		se_bctr
 3295              	.LVL121:
 3296              	.L128:
 3297              	.LCFI145:
 3298              		.cfi_restore_state
 3299              		.loc 1 940 0
 3300 003a 78000001 		e_bl irqSysHalt
 3301              	.LVL122:
 3302 003e 50FF008C 		e_lwz %r7,140(%r31)
 3303              		.loc 1 942 0
 3304 0042 4A35     		se_li %r5,35
 3305 0044 70DEE40A 		e_lis %r6,0xf40a
 3306              		.loc 1 943 0
GAS LISTING C:\Users\bayra\AppData\Local\Temp\ccxOyyf6.s 			page 59


 3307 0048 4A33     		se_li %r3,35
 3308              		.loc 1 942 0
 3309 004a 6516     		se_bseti %r6,17
 3310 004c 34A6001C 		e_stb %r5,28(%r6)
 3311              		.loc 1 946 0
 3312 0050 C501     		se_lwz %r0,20(%r1)
 3313              		.loc 1 943 0
 3314 0052 C267     		se_lwz %r6,8(%r7)
 3315              		.loc 1 946 0
 3316 0054 C3F1     		se_lwz %r31,12(%r1)
 3317              		.loc 1 943 0
 3318 0056 C447     		se_lwz %r4,16(%r7)
 3319 0058 00B6     		se_mtctr %r6
 3320              		.loc 1 946 0
 3321 005a 0090     		se_mtlr %r0
 3322              		.cfi_restore 65
 3323 005c 20F1     		se_addi %r1,16
 3324              	.LCFI146:
 3325              		.cfi_restore 31
 3326              		.cfi_def_cfa_offset 0
 3327              		.loc 1 943 0
 3328 005e 0006     		se_bctr
 3329              	.LVL123:
 3330              		.cfi_endproc
 3331              	.LFE39:
 3332              		.size	vector88, .-vector88
 3333              		.section	.text.vector89,"axv",@progbits
 3334              		.align 1
 3335              		.p2align 4,,15
 3336              		.globl vector89
 3337              		.type	vector89, @function
 3338              	vector89:
 3339              	.LFB40:
 3340              		.loc 1 956 0
 3341              		.cfi_startproc
 3342 0000 182106F0 		e_stwu %r1,-16(%r1)
 3343              	.LCFI147:
 3344              		.cfi_def_cfa_offset 16
 3345 0004 0080     		se_mflr %r0
 3346 0006 D3F1     		se_stw %r31,12(%r1)
 3347 0008 D501     		se_stw %r0,20(%r1)
 3348              		.cfi_offset 65, 4
 3349              		.cfi_offset 31, -4
 3350              		.loc 1 960 0
 3351 000a 73E0E000 		e_lis %r31,.LANCHOR0@ha
 3352 000e 1FFF0000 		e_la %r31,.LANCHOR0@l(%r31)
 3353 0012 50FF0090 		e_lwz %r7,144(%r31)
 3354 0016 2A07     		se_cmpi %r7,0
 3355 0018 7A120022 		e_beq %cr0,.L131
 3356              		.loc 1 963 0
 3357 001c 4A45     		se_li %r5,36
 3358 001e 70DEE40A 		e_lis %r6,0xf40a
 3359              		.loc 1 964 0
 3360 0022 4A43     		se_li %r3,36
 3361              		.loc 1 963 0
 3362 0024 6516     		se_bseti %r6,17
 3363 0026 34A6001C 		e_stb %r5,28(%r6)
GAS LISTING C:\Users\bayra\AppData\Local\Temp\ccxOyyf6.s 			page 60


 3364              		.loc 1 967 0
 3365 002a C501     		se_lwz %r0,20(%r1)
 3366              		.loc 1 964 0
 3367 002c C267     		se_lwz %r6,8(%r7)
 3368              		.loc 1 967 0
 3369 002e C3F1     		se_lwz %r31,12(%r1)
 3370              		.loc 1 964 0
 3371 0030 C447     		se_lwz %r4,16(%r7)
 3372 0032 00B6     		se_mtctr %r6
 3373              		.loc 1 967 0
 3374 0034 0090     		se_mtlr %r0
 3375              		.cfi_remember_state
 3376              		.cfi_restore 65
 3377 0036 20F1     		se_addi %r1,16
 3378              	.LCFI148:
 3379              		.cfi_restore 31
 3380              		.cfi_def_cfa_offset 0
 3381              		.loc 1 964 0
 3382 0038 0006     		se_bctr
 3383              	.LVL124:
 3384              	.L131:
 3385              	.LCFI149:
 3386              		.cfi_restore_state
 3387              		.loc 1 961 0
 3388 003a 78000001 		e_bl irqSysHalt
 3389              	.LVL125:
 3390 003e 50FF0090 		e_lwz %r7,144(%r31)
 3391              		.loc 1 963 0
 3392 0042 4A45     		se_li %r5,36
 3393 0044 70DEE40A 		e_lis %r6,0xf40a
 3394              		.loc 1 964 0
 3395 0048 4A43     		se_li %r3,36
 3396              		.loc 1 963 0
 3397 004a 6516     		se_bseti %r6,17
 3398 004c 34A6001C 		e_stb %r5,28(%r6)
 3399              		.loc 1 967 0
 3400 0050 C501     		se_lwz %r0,20(%r1)
 3401              		.loc 1 964 0
 3402 0052 C267     		se_lwz %r6,8(%r7)
 3403              		.loc 1 967 0
 3404 0054 C3F1     		se_lwz %r31,12(%r1)
 3405              		.loc 1 964 0
 3406 0056 C447     		se_lwz %r4,16(%r7)
 3407 0058 00B6     		se_mtctr %r6
 3408              		.loc 1 967 0
 3409 005a 0090     		se_mtlr %r0
 3410              		.cfi_restore 65
 3411 005c 20F1     		se_addi %r1,16
 3412              	.LCFI150:
 3413              		.cfi_restore 31
 3414              		.cfi_def_cfa_offset 0
 3415              		.loc 1 964 0
 3416 005e 0006     		se_bctr
 3417              	.LVL126:
 3418              		.cfi_endproc
 3419              	.LFE40:
 3420              		.size	vector89, .-vector89
GAS LISTING C:\Users\bayra\AppData\Local\Temp\ccxOyyf6.s 			page 61


 3421              		.section	.text.vector90,"axv",@progbits
 3422              		.align 1
 3423              		.p2align 4,,15
 3424              		.globl vector90
 3425              		.type	vector90, @function
 3426              	vector90:
 3427              	.LFB41:
 3428              		.loc 1 977 0
 3429              		.cfi_startproc
 3430 0000 182106F0 		e_stwu %r1,-16(%r1)
 3431              	.LCFI151:
 3432              		.cfi_def_cfa_offset 16
 3433 0004 0080     		se_mflr %r0
 3434 0006 D3F1     		se_stw %r31,12(%r1)
 3435 0008 D501     		se_stw %r0,20(%r1)
 3436              		.cfi_offset 65, 4
 3437              		.cfi_offset 31, -4
 3438              		.loc 1 981 0
 3439 000a 73E0E000 		e_lis %r31,.LANCHOR0@ha
 3440 000e 1FFF0000 		e_la %r31,.LANCHOR0@l(%r31)
 3441 0012 50FF0094 		e_lwz %r7,148(%r31)
 3442 0016 2A07     		se_cmpi %r7,0
 3443 0018 7A120022 		e_beq %cr0,.L134
 3444              		.loc 1 984 0
 3445 001c 4A55     		se_li %r5,37
 3446 001e 70DEE40A 		e_lis %r6,0xf40a
 3447              		.loc 1 985 0
 3448 0022 4A53     		se_li %r3,37
 3449              		.loc 1 984 0
 3450 0024 6516     		se_bseti %r6,17
 3451 0026 34A6001C 		e_stb %r5,28(%r6)
 3452              		.loc 1 988 0
 3453 002a C501     		se_lwz %r0,20(%r1)
 3454              		.loc 1 985 0
 3455 002c C267     		se_lwz %r6,8(%r7)
 3456              		.loc 1 988 0
 3457 002e C3F1     		se_lwz %r31,12(%r1)
 3458              		.loc 1 985 0
 3459 0030 C447     		se_lwz %r4,16(%r7)
 3460 0032 00B6     		se_mtctr %r6
 3461              		.loc 1 988 0
 3462 0034 0090     		se_mtlr %r0
 3463              		.cfi_remember_state
 3464              		.cfi_restore 65
 3465 0036 20F1     		se_addi %r1,16
 3466              	.LCFI152:
 3467              		.cfi_restore 31
 3468              		.cfi_def_cfa_offset 0
 3469              		.loc 1 985 0
 3470 0038 0006     		se_bctr
 3471              	.LVL127:
 3472              	.L134:
 3473              	.LCFI153:
 3474              		.cfi_restore_state
 3475              		.loc 1 982 0
 3476 003a 78000001 		e_bl irqSysHalt
 3477              	.LVL128:
GAS LISTING C:\Users\bayra\AppData\Local\Temp\ccxOyyf6.s 			page 62


 3478 003e 50FF0094 		e_lwz %r7,148(%r31)
 3479              		.loc 1 984 0
 3480 0042 4A55     		se_li %r5,37
 3481 0044 70DEE40A 		e_lis %r6,0xf40a
 3482              		.loc 1 985 0
 3483 0048 4A53     		se_li %r3,37
 3484              		.loc 1 984 0
 3485 004a 6516     		se_bseti %r6,17
 3486 004c 34A6001C 		e_stb %r5,28(%r6)
 3487              		.loc 1 988 0
 3488 0050 C501     		se_lwz %r0,20(%r1)
 3489              		.loc 1 985 0
 3490 0052 C267     		se_lwz %r6,8(%r7)
 3491              		.loc 1 988 0
 3492 0054 C3F1     		se_lwz %r31,12(%r1)
 3493              		.loc 1 985 0
 3494 0056 C447     		se_lwz %r4,16(%r7)
 3495 0058 00B6     		se_mtctr %r6
 3496              		.loc 1 988 0
 3497 005a 0090     		se_mtlr %r0
 3498              		.cfi_restore 65
 3499 005c 20F1     		se_addi %r1,16
 3500              	.LCFI154:
 3501              		.cfi_restore 31
 3502              		.cfi_def_cfa_offset 0
 3503              		.loc 1 985 0
 3504 005e 0006     		se_bctr
 3505              	.LVL129:
 3506              		.cfi_endproc
 3507              	.LFE41:
 3508              		.size	vector90, .-vector90
 3509              		.section	.text.vector91,"axv",@progbits
 3510              		.align 1
 3511              		.p2align 4,,15
 3512              		.globl vector91
 3513              		.type	vector91, @function
 3514              	vector91:
 3515              	.LFB42:
 3516              		.loc 1 998 0
 3517              		.cfi_startproc
 3518 0000 182106F0 		e_stwu %r1,-16(%r1)
 3519              	.LCFI155:
 3520              		.cfi_def_cfa_offset 16
 3521 0004 0080     		se_mflr %r0
 3522 0006 D3F1     		se_stw %r31,12(%r1)
 3523 0008 D501     		se_stw %r0,20(%r1)
 3524              		.cfi_offset 65, 4
 3525              		.cfi_offset 31, -4
 3526              		.loc 1 1002 0
 3527 000a 73E0E000 		e_lis %r31,.LANCHOR0@ha
 3528 000e 1FFF0000 		e_la %r31,.LANCHOR0@l(%r31)
 3529 0012 50FF0098 		e_lwz %r7,152(%r31)
 3530 0016 2A07     		se_cmpi %r7,0
 3531 0018 7A120022 		e_beq %cr0,.L137
 3532              		.loc 1 1005 0
 3533 001c 4A65     		se_li %r5,38
 3534 001e 70DEE40A 		e_lis %r6,0xf40a
GAS LISTING C:\Users\bayra\AppData\Local\Temp\ccxOyyf6.s 			page 63


 3535              		.loc 1 1006 0
 3536 0022 4A63     		se_li %r3,38
 3537              		.loc 1 1005 0
 3538 0024 6516     		se_bseti %r6,17
 3539 0026 34A6001C 		e_stb %r5,28(%r6)
 3540              		.loc 1 1009 0
 3541 002a C501     		se_lwz %r0,20(%r1)
 3542              		.loc 1 1006 0
 3543 002c C267     		se_lwz %r6,8(%r7)
 3544              		.loc 1 1009 0
 3545 002e C3F1     		se_lwz %r31,12(%r1)
 3546              		.loc 1 1006 0
 3547 0030 C447     		se_lwz %r4,16(%r7)
 3548 0032 00B6     		se_mtctr %r6
 3549              		.loc 1 1009 0
 3550 0034 0090     		se_mtlr %r0
 3551              		.cfi_remember_state
 3552              		.cfi_restore 65
 3553 0036 20F1     		se_addi %r1,16
 3554              	.LCFI156:
 3555              		.cfi_restore 31
 3556              		.cfi_def_cfa_offset 0
 3557              		.loc 1 1006 0
 3558 0038 0006     		se_bctr
 3559              	.LVL130:
 3560              	.L137:
 3561              	.LCFI157:
 3562              		.cfi_restore_state
 3563              		.loc 1 1003 0
 3564 003a 78000001 		e_bl irqSysHalt
 3565              	.LVL131:
 3566 003e 50FF0098 		e_lwz %r7,152(%r31)
 3567              		.loc 1 1005 0
 3568 0042 4A65     		se_li %r5,38
 3569 0044 70DEE40A 		e_lis %r6,0xf40a
 3570              		.loc 1 1006 0
 3571 0048 4A63     		se_li %r3,38
 3572              		.loc 1 1005 0
 3573 004a 6516     		se_bseti %r6,17
 3574 004c 34A6001C 		e_stb %r5,28(%r6)
 3575              		.loc 1 1009 0
 3576 0050 C501     		se_lwz %r0,20(%r1)
 3577              		.loc 1 1006 0
 3578 0052 C267     		se_lwz %r6,8(%r7)
 3579              		.loc 1 1009 0
 3580 0054 C3F1     		se_lwz %r31,12(%r1)
 3581              		.loc 1 1006 0
 3582 0056 C447     		se_lwz %r4,16(%r7)
 3583 0058 00B6     		se_mtctr %r6
 3584              		.loc 1 1009 0
 3585 005a 0090     		se_mtlr %r0
 3586              		.cfi_restore 65
 3587 005c 20F1     		se_addi %r1,16
 3588              	.LCFI158:
 3589              		.cfi_restore 31
 3590              		.cfi_def_cfa_offset 0
 3591              		.loc 1 1006 0
GAS LISTING C:\Users\bayra\AppData\Local\Temp\ccxOyyf6.s 			page 64


 3592 005e 0006     		se_bctr
 3593              	.LVL132:
 3594              		.cfi_endproc
 3595              	.LFE42:
 3596              		.size	vector91, .-vector91
 3597              		.section	.text.vector92,"axv",@progbits
 3598              		.align 1
 3599              		.p2align 4,,15
 3600              		.globl vector92
 3601              		.type	vector92, @function
 3602              	vector92:
 3603              	.LFB43:
 3604              		.loc 1 1019 0
 3605              		.cfi_startproc
 3606 0000 182106F0 		e_stwu %r1,-16(%r1)
 3607              	.LCFI159:
 3608              		.cfi_def_cfa_offset 16
 3609 0004 0080     		se_mflr %r0
 3610 0006 D3F1     		se_stw %r31,12(%r1)
 3611 0008 D501     		se_stw %r0,20(%r1)
 3612              		.cfi_offset 65, 4
 3613              		.cfi_offset 31, -4
 3614              		.loc 1 1023 0
 3615 000a 73E0E000 		e_lis %r31,.LANCHOR0@ha
 3616 000e 1FFF0000 		e_la %r31,.LANCHOR0@l(%r31)
 3617 0012 50FF009C 		e_lwz %r7,156(%r31)
 3618 0016 2A07     		se_cmpi %r7,0
 3619 0018 7A120022 		e_beq %cr0,.L140
 3620              		.loc 1 1026 0
 3621 001c 4A75     		se_li %r5,39
 3622 001e 70DEE40A 		e_lis %r6,0xf40a
 3623              		.loc 1 1027 0
 3624 0022 4A73     		se_li %r3,39
 3625              		.loc 1 1026 0
 3626 0024 6516     		se_bseti %r6,17
 3627 0026 34A6001C 		e_stb %r5,28(%r6)
 3628              		.loc 1 1030 0
 3629 002a C501     		se_lwz %r0,20(%r1)
 3630              		.loc 1 1027 0
 3631 002c C267     		se_lwz %r6,8(%r7)
 3632              		.loc 1 1030 0
 3633 002e C3F1     		se_lwz %r31,12(%r1)
 3634              		.loc 1 1027 0
 3635 0030 C447     		se_lwz %r4,16(%r7)
 3636 0032 00B6     		se_mtctr %r6
 3637              		.loc 1 1030 0
 3638 0034 0090     		se_mtlr %r0
 3639              		.cfi_remember_state
 3640              		.cfi_restore 65
 3641 0036 20F1     		se_addi %r1,16
 3642              	.LCFI160:
 3643              		.cfi_restore 31
 3644              		.cfi_def_cfa_offset 0
 3645              		.loc 1 1027 0
 3646 0038 0006     		se_bctr
 3647              	.LVL133:
 3648              	.L140:
GAS LISTING C:\Users\bayra\AppData\Local\Temp\ccxOyyf6.s 			page 65


 3649              	.LCFI161:
 3650              		.cfi_restore_state
 3651              		.loc 1 1024 0
 3652 003a 78000001 		e_bl irqSysHalt
 3653              	.LVL134:
 3654 003e 50FF009C 		e_lwz %r7,156(%r31)
 3655              		.loc 1 1026 0
 3656 0042 4A75     		se_li %r5,39
 3657 0044 70DEE40A 		e_lis %r6,0xf40a
 3658              		.loc 1 1027 0
 3659 0048 4A73     		se_li %r3,39
 3660              		.loc 1 1026 0
 3661 004a 6516     		se_bseti %r6,17
 3662 004c 34A6001C 		e_stb %r5,28(%r6)
 3663              		.loc 1 1030 0
 3664 0050 C501     		se_lwz %r0,20(%r1)
 3665              		.loc 1 1027 0
 3666 0052 C267     		se_lwz %r6,8(%r7)
 3667              		.loc 1 1030 0
 3668 0054 C3F1     		se_lwz %r31,12(%r1)
 3669              		.loc 1 1027 0
 3670 0056 C447     		se_lwz %r4,16(%r7)
 3671 0058 00B6     		se_mtctr %r6
 3672              		.loc 1 1030 0
 3673 005a 0090     		se_mtlr %r0
 3674              		.cfi_restore 65
 3675 005c 20F1     		se_addi %r1,16
 3676              	.LCFI162:
 3677              		.cfi_restore 31
 3678              		.cfi_def_cfa_offset 0
 3679              		.loc 1 1027 0
 3680 005e 0006     		se_bctr
 3681              	.LVL135:
 3682              		.cfi_endproc
 3683              	.LFE43:
 3684              		.size	vector92, .-vector92
 3685              		.section	.text.vector93,"axv",@progbits
 3686              		.align 1
 3687              		.p2align 4,,15
 3688              		.globl vector93
 3689              		.type	vector93, @function
 3690              	vector93:
 3691              	.LFB44:
 3692              		.loc 1 1040 0
 3693              		.cfi_startproc
 3694 0000 182106F0 		e_stwu %r1,-16(%r1)
 3695              	.LCFI163:
 3696              		.cfi_def_cfa_offset 16
 3697 0004 0080     		se_mflr %r0
 3698 0006 D3F1     		se_stw %r31,12(%r1)
 3699 0008 D501     		se_stw %r0,20(%r1)
 3700              		.cfi_offset 65, 4
 3701              		.cfi_offset 31, -4
 3702              		.loc 1 1044 0
 3703 000a 73E0E000 		e_lis %r31,.LANCHOR0@ha
 3704 000e 1FFF0000 		e_la %r31,.LANCHOR0@l(%r31)
 3705 0012 50FF00A0 		e_lwz %r7,160(%r31)
GAS LISTING C:\Users\bayra\AppData\Local\Temp\ccxOyyf6.s 			page 66


 3706 0016 2A07     		se_cmpi %r7,0
 3707 0018 7A120022 		e_beq %cr0,.L143
 3708              		.loc 1 1047 0
 3709 001c 4A85     		se_li %r5,40
 3710 001e 70DEE40A 		e_lis %r6,0xf40a
 3711              		.loc 1 1048 0
 3712 0022 4A83     		se_li %r3,40
 3713              		.loc 1 1047 0
 3714 0024 6516     		se_bseti %r6,17
 3715 0026 34A6001C 		e_stb %r5,28(%r6)
 3716              		.loc 1 1051 0
 3717 002a C501     		se_lwz %r0,20(%r1)
 3718              		.loc 1 1048 0
 3719 002c C267     		se_lwz %r6,8(%r7)
 3720              		.loc 1 1051 0
 3721 002e C3F1     		se_lwz %r31,12(%r1)
 3722              		.loc 1 1048 0
 3723 0030 C447     		se_lwz %r4,16(%r7)
 3724 0032 00B6     		se_mtctr %r6
 3725              		.loc 1 1051 0
 3726 0034 0090     		se_mtlr %r0
 3727              		.cfi_remember_state
 3728              		.cfi_restore 65
 3729 0036 20F1     		se_addi %r1,16
 3730              	.LCFI164:
 3731              		.cfi_restore 31
 3732              		.cfi_def_cfa_offset 0
 3733              		.loc 1 1048 0
 3734 0038 0006     		se_bctr
 3735              	.LVL136:
 3736              	.L143:
 3737              	.LCFI165:
 3738              		.cfi_restore_state
 3739              		.loc 1 1045 0
 3740 003a 78000001 		e_bl irqSysHalt
 3741              	.LVL137:
 3742 003e 50FF00A0 		e_lwz %r7,160(%r31)
 3743              		.loc 1 1047 0
 3744 0042 4A85     		se_li %r5,40
 3745 0044 70DEE40A 		e_lis %r6,0xf40a
 3746              		.loc 1 1048 0
 3747 0048 4A83     		se_li %r3,40
 3748              		.loc 1 1047 0
 3749 004a 6516     		se_bseti %r6,17
 3750 004c 34A6001C 		e_stb %r5,28(%r6)
 3751              		.loc 1 1051 0
 3752 0050 C501     		se_lwz %r0,20(%r1)
 3753              		.loc 1 1048 0
 3754 0052 C267     		se_lwz %r6,8(%r7)
 3755              		.loc 1 1051 0
 3756 0054 C3F1     		se_lwz %r31,12(%r1)
 3757              		.loc 1 1048 0
 3758 0056 C447     		se_lwz %r4,16(%r7)
 3759 0058 00B6     		se_mtctr %r6
 3760              		.loc 1 1051 0
 3761 005a 0090     		se_mtlr %r0
 3762              		.cfi_restore 65
GAS LISTING C:\Users\bayra\AppData\Local\Temp\ccxOyyf6.s 			page 67


 3763 005c 20F1     		se_addi %r1,16
 3764              	.LCFI166:
 3765              		.cfi_restore 31
 3766              		.cfi_def_cfa_offset 0
 3767              		.loc 1 1048 0
 3768 005e 0006     		se_bctr
 3769              	.LVL138:
 3770              		.cfi_endproc
 3771              	.LFE44:
 3772              		.size	vector93, .-vector93
 3773              		.section	.text.vector94,"axv",@progbits
 3774              		.align 1
 3775              		.p2align 4,,15
 3776              		.globl vector94
 3777              		.type	vector94, @function
 3778              	vector94:
 3779              	.LFB45:
 3780              		.loc 1 1061 0
 3781              		.cfi_startproc
 3782 0000 182106F0 		e_stwu %r1,-16(%r1)
 3783              	.LCFI167:
 3784              		.cfi_def_cfa_offset 16
 3785 0004 0080     		se_mflr %r0
 3786 0006 D3F1     		se_stw %r31,12(%r1)
 3787 0008 D501     		se_stw %r0,20(%r1)
 3788              		.cfi_offset 65, 4
 3789              		.cfi_offset 31, -4
 3790              		.loc 1 1065 0
 3791 000a 73E0E000 		e_lis %r31,.LANCHOR0@ha
 3792 000e 1FFF0000 		e_la %r31,.LANCHOR0@l(%r31)
 3793 0012 50FF00A4 		e_lwz %r7,164(%r31)
 3794 0016 2A07     		se_cmpi %r7,0
 3795 0018 7A120022 		e_beq %cr0,.L146
 3796              		.loc 1 1068 0
 3797 001c 4A95     		se_li %r5,41
 3798 001e 70DEE40A 		e_lis %r6,0xf40a
 3799              		.loc 1 1069 0
 3800 0022 4A93     		se_li %r3,41
 3801              		.loc 1 1068 0
 3802 0024 6516     		se_bseti %r6,17
 3803 0026 34A6001C 		e_stb %r5,28(%r6)
 3804              		.loc 1 1072 0
 3805 002a C501     		se_lwz %r0,20(%r1)
 3806              		.loc 1 1069 0
 3807 002c C267     		se_lwz %r6,8(%r7)
 3808              		.loc 1 1072 0
 3809 002e C3F1     		se_lwz %r31,12(%r1)
 3810              		.loc 1 1069 0
 3811 0030 C447     		se_lwz %r4,16(%r7)
 3812 0032 00B6     		se_mtctr %r6
 3813              		.loc 1 1072 0
 3814 0034 0090     		se_mtlr %r0
 3815              		.cfi_remember_state
 3816              		.cfi_restore 65
 3817 0036 20F1     		se_addi %r1,16
 3818              	.LCFI168:
 3819              		.cfi_restore 31
GAS LISTING C:\Users\bayra\AppData\Local\Temp\ccxOyyf6.s 			page 68


 3820              		.cfi_def_cfa_offset 0
 3821              		.loc 1 1069 0
 3822 0038 0006     		se_bctr
 3823              	.LVL139:
 3824              	.L146:
 3825              	.LCFI169:
 3826              		.cfi_restore_state
 3827              		.loc 1 1066 0
 3828 003a 78000001 		e_bl irqSysHalt
 3829              	.LVL140:
 3830 003e 50FF00A4 		e_lwz %r7,164(%r31)
 3831              		.loc 1 1068 0
 3832 0042 4A95     		se_li %r5,41
 3833 0044 70DEE40A 		e_lis %r6,0xf40a
 3834              		.loc 1 1069 0
 3835 0048 4A93     		se_li %r3,41
 3836              		.loc 1 1068 0
 3837 004a 6516     		se_bseti %r6,17
 3838 004c 34A6001C 		e_stb %r5,28(%r6)
 3839              		.loc 1 1072 0
 3840 0050 C501     		se_lwz %r0,20(%r1)
 3841              		.loc 1 1069 0
 3842 0052 C267     		se_lwz %r6,8(%r7)
 3843              		.loc 1 1072 0
 3844 0054 C3F1     		se_lwz %r31,12(%r1)
 3845              		.loc 1 1069 0
 3846 0056 C447     		se_lwz %r4,16(%r7)
 3847 0058 00B6     		se_mtctr %r6
 3848              		.loc 1 1072 0
 3849 005a 0090     		se_mtlr %r0
 3850              		.cfi_restore 65
 3851 005c 20F1     		se_addi %r1,16
 3852              	.LCFI170:
 3853              		.cfi_restore 31
 3854              		.cfi_def_cfa_offset 0
 3855              		.loc 1 1069 0
 3856 005e 0006     		se_bctr
 3857              	.LVL141:
 3858              		.cfi_endproc
 3859              	.LFE45:
 3860              		.size	vector94, .-vector94
 3861              		.section	.text.vector95,"axv",@progbits
 3862              		.align 1
 3863              		.p2align 4,,15
 3864              		.globl vector95
 3865              		.type	vector95, @function
 3866              	vector95:
 3867              	.LFB46:
 3868              		.loc 1 1082 0
 3869              		.cfi_startproc
 3870 0000 182106F0 		e_stwu %r1,-16(%r1)
 3871              	.LCFI171:
 3872              		.cfi_def_cfa_offset 16
 3873 0004 0080     		se_mflr %r0
 3874 0006 D3F1     		se_stw %r31,12(%r1)
 3875 0008 D501     		se_stw %r0,20(%r1)
 3876              		.cfi_offset 65, 4
GAS LISTING C:\Users\bayra\AppData\Local\Temp\ccxOyyf6.s 			page 69


 3877              		.cfi_offset 31, -4
 3878              		.loc 1 1086 0
 3879 000a 73E0E000 		e_lis %r31,.LANCHOR0@ha
 3880 000e 1FFF0000 		e_la %r31,.LANCHOR0@l(%r31)
 3881 0012 50FF00A8 		e_lwz %r7,168(%r31)
 3882 0016 2A07     		se_cmpi %r7,0
 3883 0018 7A120022 		e_beq %cr0,.L149
 3884              		.loc 1 1089 0
 3885 001c 4AA5     		se_li %r5,42
 3886 001e 70DEE40A 		e_lis %r6,0xf40a
 3887              		.loc 1 1090 0
 3888 0022 4AA3     		se_li %r3,42
 3889              		.loc 1 1089 0
 3890 0024 6516     		se_bseti %r6,17
 3891 0026 34A6001C 		e_stb %r5,28(%r6)
 3892              		.loc 1 1093 0
 3893 002a C501     		se_lwz %r0,20(%r1)
 3894              		.loc 1 1090 0
 3895 002c C267     		se_lwz %r6,8(%r7)
 3896              		.loc 1 1093 0
 3897 002e C3F1     		se_lwz %r31,12(%r1)
 3898              		.loc 1 1090 0
 3899 0030 C447     		se_lwz %r4,16(%r7)
 3900 0032 00B6     		se_mtctr %r6
 3901              		.loc 1 1093 0
 3902 0034 0090     		se_mtlr %r0
 3903              		.cfi_remember_state
 3904              		.cfi_restore 65
 3905 0036 20F1     		se_addi %r1,16
 3906              	.LCFI172:
 3907              		.cfi_restore 31
 3908              		.cfi_def_cfa_offset 0
 3909              		.loc 1 1090 0
 3910 0038 0006     		se_bctr
 3911              	.LVL142:
 3912              	.L149:
 3913              	.LCFI173:
 3914              		.cfi_restore_state
 3915              		.loc 1 1087 0
 3916 003a 78000001 		e_bl irqSysHalt
 3917              	.LVL143:
 3918 003e 50FF00A8 		e_lwz %r7,168(%r31)
 3919              		.loc 1 1089 0
 3920 0042 4AA5     		se_li %r5,42
 3921 0044 70DEE40A 		e_lis %r6,0xf40a
 3922              		.loc 1 1090 0
 3923 0048 4AA3     		se_li %r3,42
 3924              		.loc 1 1089 0
 3925 004a 6516     		se_bseti %r6,17
 3926 004c 34A6001C 		e_stb %r5,28(%r6)
 3927              		.loc 1 1093 0
 3928 0050 C501     		se_lwz %r0,20(%r1)
 3929              		.loc 1 1090 0
 3930 0052 C267     		se_lwz %r6,8(%r7)
 3931              		.loc 1 1093 0
 3932 0054 C3F1     		se_lwz %r31,12(%r1)
 3933              		.loc 1 1090 0
GAS LISTING C:\Users\bayra\AppData\Local\Temp\ccxOyyf6.s 			page 70


 3934 0056 C447     		se_lwz %r4,16(%r7)
 3935 0058 00B6     		se_mtctr %r6
 3936              		.loc 1 1093 0
 3937 005a 0090     		se_mtlr %r0
 3938              		.cfi_restore 65
 3939 005c 20F1     		se_addi %r1,16
 3940              	.LCFI174:
 3941              		.cfi_restore 31
 3942              		.cfi_def_cfa_offset 0
 3943              		.loc 1 1090 0
 3944 005e 0006     		se_bctr
 3945              	.LVL144:
 3946              		.cfi_endproc
 3947              	.LFE46:
 3948              		.size	vector95, .-vector95
 3949              		.section	.text.vector96,"axv",@progbits
 3950              		.align 1
 3951              		.p2align 4,,15
 3952              		.globl vector96
 3953              		.type	vector96, @function
 3954              	vector96:
 3955              	.LFB47:
 3956              		.loc 1 1103 0
 3957              		.cfi_startproc
 3958 0000 182106F0 		e_stwu %r1,-16(%r1)
 3959              	.LCFI175:
 3960              		.cfi_def_cfa_offset 16
 3961 0004 0080     		se_mflr %r0
 3962 0006 D3F1     		se_stw %r31,12(%r1)
 3963 0008 D501     		se_stw %r0,20(%r1)
 3964              		.cfi_offset 65, 4
 3965              		.cfi_offset 31, -4
 3966              		.loc 1 1107 0
 3967 000a 73E0E000 		e_lis %r31,.LANCHOR0@ha
 3968 000e 1FFF0000 		e_la %r31,.LANCHOR0@l(%r31)
 3969 0012 50FF00AC 		e_lwz %r7,172(%r31)
 3970 0016 2A07     		se_cmpi %r7,0
 3971 0018 7A120022 		e_beq %cr0,.L152
 3972              		.loc 1 1110 0
 3973 001c 4AB5     		se_li %r5,43
 3974 001e 70DEE40A 		e_lis %r6,0xf40a
 3975              		.loc 1 1111 0
 3976 0022 4AB3     		se_li %r3,43
 3977              		.loc 1 1110 0
 3978 0024 6516     		se_bseti %r6,17
 3979 0026 34A6001C 		e_stb %r5,28(%r6)
 3980              		.loc 1 1114 0
 3981 002a C501     		se_lwz %r0,20(%r1)
 3982              		.loc 1 1111 0
 3983 002c C267     		se_lwz %r6,8(%r7)
 3984              		.loc 1 1114 0
 3985 002e C3F1     		se_lwz %r31,12(%r1)
 3986              		.loc 1 1111 0
 3987 0030 C447     		se_lwz %r4,16(%r7)
 3988 0032 00B6     		se_mtctr %r6
 3989              		.loc 1 1114 0
 3990 0034 0090     		se_mtlr %r0
GAS LISTING C:\Users\bayra\AppData\Local\Temp\ccxOyyf6.s 			page 71


 3991              		.cfi_remember_state
 3992              		.cfi_restore 65
 3993 0036 20F1     		se_addi %r1,16
 3994              	.LCFI176:
 3995              		.cfi_restore 31
 3996              		.cfi_def_cfa_offset 0
 3997              		.loc 1 1111 0
 3998 0038 0006     		se_bctr
 3999              	.LVL145:
 4000              	.L152:
 4001              	.LCFI177:
 4002              		.cfi_restore_state
 4003              		.loc 1 1108 0
 4004 003a 78000001 		e_bl irqSysHalt
 4005              	.LVL146:
 4006 003e 50FF00AC 		e_lwz %r7,172(%r31)
 4007              		.loc 1 1110 0
 4008 0042 4AB5     		se_li %r5,43
 4009 0044 70DEE40A 		e_lis %r6,0xf40a
 4010              		.loc 1 1111 0
 4011 0048 4AB3     		se_li %r3,43
 4012              		.loc 1 1110 0
 4013 004a 6516     		se_bseti %r6,17
 4014 004c 34A6001C 		e_stb %r5,28(%r6)
 4015              		.loc 1 1114 0
 4016 0050 C501     		se_lwz %r0,20(%r1)
 4017              		.loc 1 1111 0
 4018 0052 C267     		se_lwz %r6,8(%r7)
 4019              		.loc 1 1114 0
 4020 0054 C3F1     		se_lwz %r31,12(%r1)
 4021              		.loc 1 1111 0
 4022 0056 C447     		se_lwz %r4,16(%r7)
 4023 0058 00B6     		se_mtctr %r6
 4024              		.loc 1 1114 0
 4025 005a 0090     		se_mtlr %r0
 4026              		.cfi_restore 65
 4027 005c 20F1     		se_addi %r1,16
 4028              	.LCFI178:
 4029              		.cfi_restore 31
 4030              		.cfi_def_cfa_offset 0
 4031              		.loc 1 1111 0
 4032 005e 0006     		se_bctr
 4033              	.LVL147:
 4034              		.cfi_endproc
 4035              	.LFE47:
 4036              		.size	vector96, .-vector96
 4037              		.section	.text.vector97,"axv",@progbits
 4038              		.align 1
 4039              		.p2align 4,,15
 4040              		.globl vector97
 4041              		.type	vector97, @function
 4042              	vector97:
 4043              	.LFB48:
 4044              		.loc 1 1124 0
 4045              		.cfi_startproc
 4046 0000 182106F0 		e_stwu %r1,-16(%r1)
 4047              	.LCFI179:
GAS LISTING C:\Users\bayra\AppData\Local\Temp\ccxOyyf6.s 			page 72


 4048              		.cfi_def_cfa_offset 16
 4049 0004 0080     		se_mflr %r0
 4050 0006 D3F1     		se_stw %r31,12(%r1)
 4051 0008 D501     		se_stw %r0,20(%r1)
 4052              		.cfi_offset 65, 4
 4053              		.cfi_offset 31, -4
 4054              		.loc 1 1128 0
 4055 000a 73E0E000 		e_lis %r31,.LANCHOR0@ha
 4056 000e 1FFF0000 		e_la %r31,.LANCHOR0@l(%r31)
 4057 0012 50FF00B0 		e_lwz %r7,176(%r31)
 4058 0016 2A07     		se_cmpi %r7,0
 4059 0018 7A120022 		e_beq %cr0,.L155
 4060              		.loc 1 1131 0
 4061 001c 4AC5     		se_li %r5,44
 4062 001e 70DEE40A 		e_lis %r6,0xf40a
 4063              		.loc 1 1132 0
 4064 0022 4AC3     		se_li %r3,44
 4065              		.loc 1 1131 0
 4066 0024 6516     		se_bseti %r6,17
 4067 0026 34A6001C 		e_stb %r5,28(%r6)
 4068              		.loc 1 1135 0
 4069 002a C501     		se_lwz %r0,20(%r1)
 4070              		.loc 1 1132 0
 4071 002c C267     		se_lwz %r6,8(%r7)
 4072              		.loc 1 1135 0
 4073 002e C3F1     		se_lwz %r31,12(%r1)
 4074              		.loc 1 1132 0
 4075 0030 C447     		se_lwz %r4,16(%r7)
 4076 0032 00B6     		se_mtctr %r6
 4077              		.loc 1 1135 0
 4078 0034 0090     		se_mtlr %r0
 4079              		.cfi_remember_state
 4080              		.cfi_restore 65
 4081 0036 20F1     		se_addi %r1,16
 4082              	.LCFI180:
 4083              		.cfi_restore 31
 4084              		.cfi_def_cfa_offset 0
 4085              		.loc 1 1132 0
 4086 0038 0006     		se_bctr
 4087              	.LVL148:
 4088              	.L155:
 4089              	.LCFI181:
 4090              		.cfi_restore_state
 4091              		.loc 1 1129 0
 4092 003a 78000001 		e_bl irqSysHalt
 4093              	.LVL149:
 4094 003e 50FF00B0 		e_lwz %r7,176(%r31)
 4095              		.loc 1 1131 0
 4096 0042 4AC5     		se_li %r5,44
 4097 0044 70DEE40A 		e_lis %r6,0xf40a
 4098              		.loc 1 1132 0
 4099 0048 4AC3     		se_li %r3,44
 4100              		.loc 1 1131 0
 4101 004a 6516     		se_bseti %r6,17
 4102 004c 34A6001C 		e_stb %r5,28(%r6)
 4103              		.loc 1 1135 0
 4104 0050 C501     		se_lwz %r0,20(%r1)
GAS LISTING C:\Users\bayra\AppData\Local\Temp\ccxOyyf6.s 			page 73


 4105              		.loc 1 1132 0
 4106 0052 C267     		se_lwz %r6,8(%r7)
 4107              		.loc 1 1135 0
 4108 0054 C3F1     		se_lwz %r31,12(%r1)
 4109              		.loc 1 1132 0
 4110 0056 C447     		se_lwz %r4,16(%r7)
 4111 0058 00B6     		se_mtctr %r6
 4112              		.loc 1 1135 0
 4113 005a 0090     		se_mtlr %r0
 4114              		.cfi_restore 65
 4115 005c 20F1     		se_addi %r1,16
 4116              	.LCFI182:
 4117              		.cfi_restore 31
 4118              		.cfi_def_cfa_offset 0
 4119              		.loc 1 1132 0
 4120 005e 0006     		se_bctr
 4121              	.LVL150:
 4122              		.cfi_endproc
 4123              	.LFE48:
 4124              		.size	vector97, .-vector97
 4125              		.section	.text.vector98,"axv",@progbits
 4126              		.align 1
 4127              		.p2align 4,,15
 4128              		.globl vector98
 4129              		.type	vector98, @function
 4130              	vector98:
 4131              	.LFB49:
 4132              		.loc 1 1145 0
 4133              		.cfi_startproc
 4134 0000 182106F0 		e_stwu %r1,-16(%r1)
 4135              	.LCFI183:
 4136              		.cfi_def_cfa_offset 16
 4137 0004 0080     		se_mflr %r0
 4138 0006 D3F1     		se_stw %r31,12(%r1)
 4139 0008 D501     		se_stw %r0,20(%r1)
 4140              		.cfi_offset 65, 4
 4141              		.cfi_offset 31, -4
 4142              		.loc 1 1149 0
 4143 000a 73E0E000 		e_lis %r31,.LANCHOR0@ha
 4144 000e 1FFF0000 		e_la %r31,.LANCHOR0@l(%r31)
 4145 0012 50FF00B4 		e_lwz %r7,180(%r31)
 4146 0016 2A07     		se_cmpi %r7,0
 4147 0018 7A120022 		e_beq %cr0,.L158
 4148              		.loc 1 1152 0
 4149 001c 4AD5     		se_li %r5,45
 4150 001e 70DEE40A 		e_lis %r6,0xf40a
 4151              		.loc 1 1153 0
 4152 0022 4AD3     		se_li %r3,45
 4153              		.loc 1 1152 0
 4154 0024 6516     		se_bseti %r6,17
 4155 0026 34A6001C 		e_stb %r5,28(%r6)
 4156              		.loc 1 1156 0
 4157 002a C501     		se_lwz %r0,20(%r1)
 4158              		.loc 1 1153 0
 4159 002c C267     		se_lwz %r6,8(%r7)
 4160              		.loc 1 1156 0
 4161 002e C3F1     		se_lwz %r31,12(%r1)
GAS LISTING C:\Users\bayra\AppData\Local\Temp\ccxOyyf6.s 			page 74


 4162              		.loc 1 1153 0
 4163 0030 C447     		se_lwz %r4,16(%r7)
 4164 0032 00B6     		se_mtctr %r6
 4165              		.loc 1 1156 0
 4166 0034 0090     		se_mtlr %r0
 4167              		.cfi_remember_state
 4168              		.cfi_restore 65
 4169 0036 20F1     		se_addi %r1,16
 4170              	.LCFI184:
 4171              		.cfi_restore 31
 4172              		.cfi_def_cfa_offset 0
 4173              		.loc 1 1153 0
 4174 0038 0006     		se_bctr
 4175              	.LVL151:
 4176              	.L158:
 4177              	.LCFI185:
 4178              		.cfi_restore_state
 4179              		.loc 1 1150 0
 4180 003a 78000001 		e_bl irqSysHalt
 4181              	.LVL152:
 4182 003e 50FF00B4 		e_lwz %r7,180(%r31)
 4183              		.loc 1 1152 0
 4184 0042 4AD5     		se_li %r5,45
 4185 0044 70DEE40A 		e_lis %r6,0xf40a
 4186              		.loc 1 1153 0
 4187 0048 4AD3     		se_li %r3,45
 4188              		.loc 1 1152 0
 4189 004a 6516     		se_bseti %r6,17
 4190 004c 34A6001C 		e_stb %r5,28(%r6)
 4191              		.loc 1 1156 0
 4192 0050 C501     		se_lwz %r0,20(%r1)
 4193              		.loc 1 1153 0
 4194 0052 C267     		se_lwz %r6,8(%r7)
 4195              		.loc 1 1156 0
 4196 0054 C3F1     		se_lwz %r31,12(%r1)
 4197              		.loc 1 1153 0
 4198 0056 C447     		se_lwz %r4,16(%r7)
 4199 0058 00B6     		se_mtctr %r6
 4200              		.loc 1 1156 0
 4201 005a 0090     		se_mtlr %r0
 4202              		.cfi_restore 65
 4203 005c 20F1     		se_addi %r1,16
 4204              	.LCFI186:
 4205              		.cfi_restore 31
 4206              		.cfi_def_cfa_offset 0
 4207              		.loc 1 1153 0
 4208 005e 0006     		se_bctr
 4209              	.LVL153:
 4210              		.cfi_endproc
 4211              	.LFE49:
 4212              		.size	vector98, .-vector98
 4213              		.section	.text.vector99,"axv",@progbits
 4214              		.align 1
 4215              		.p2align 4,,15
 4216              		.globl vector99
 4217              		.type	vector99, @function
 4218              	vector99:
GAS LISTING C:\Users\bayra\AppData\Local\Temp\ccxOyyf6.s 			page 75


 4219              	.LFB50:
 4220              		.loc 1 1166 0
 4221              		.cfi_startproc
 4222 0000 182106F0 		e_stwu %r1,-16(%r1)
 4223              	.LCFI187:
 4224              		.cfi_def_cfa_offset 16
 4225 0004 0080     		se_mflr %r0
 4226 0006 D3F1     		se_stw %r31,12(%r1)
 4227 0008 D501     		se_stw %r0,20(%r1)
 4228              		.cfi_offset 65, 4
 4229              		.cfi_offset 31, -4
 4230              		.loc 1 1170 0
 4231 000a 73E0E000 		e_lis %r31,.LANCHOR0@ha
 4232 000e 1FFF0000 		e_la %r31,.LANCHOR0@l(%r31)
 4233 0012 50FF00B8 		e_lwz %r7,184(%r31)
 4234 0016 2A07     		se_cmpi %r7,0
 4235 0018 7A120022 		e_beq %cr0,.L161
 4236              		.loc 1 1173 0
 4237 001c 4AE5     		se_li %r5,46
 4238 001e 70DEE40A 		e_lis %r6,0xf40a
 4239              		.loc 1 1174 0
 4240 0022 4AE3     		se_li %r3,46
 4241              		.loc 1 1173 0
 4242 0024 6516     		se_bseti %r6,17
 4243 0026 34A6001C 		e_stb %r5,28(%r6)
 4244              		.loc 1 1177 0
 4245 002a C501     		se_lwz %r0,20(%r1)
 4246              		.loc 1 1174 0
 4247 002c C267     		se_lwz %r6,8(%r7)
 4248              		.loc 1 1177 0
 4249 002e C3F1     		se_lwz %r31,12(%r1)
 4250              		.loc 1 1174 0
 4251 0030 C447     		se_lwz %r4,16(%r7)
 4252 0032 00B6     		se_mtctr %r6
 4253              		.loc 1 1177 0
 4254 0034 0090     		se_mtlr %r0
 4255              		.cfi_remember_state
 4256              		.cfi_restore 65
 4257 0036 20F1     		se_addi %r1,16
 4258              	.LCFI188:
 4259              		.cfi_restore 31
 4260              		.cfi_def_cfa_offset 0
 4261              		.loc 1 1174 0
 4262 0038 0006     		se_bctr
 4263              	.LVL154:
 4264              	.L161:
 4265              	.LCFI189:
 4266              		.cfi_restore_state
 4267              		.loc 1 1171 0
 4268 003a 78000001 		e_bl irqSysHalt
 4269              	.LVL155:
 4270 003e 50FF00B8 		e_lwz %r7,184(%r31)
 4271              		.loc 1 1173 0
 4272 0042 4AE5     		se_li %r5,46
 4273 0044 70DEE40A 		e_lis %r6,0xf40a
 4274              		.loc 1 1174 0
 4275 0048 4AE3     		se_li %r3,46
GAS LISTING C:\Users\bayra\AppData\Local\Temp\ccxOyyf6.s 			page 76


 4276              		.loc 1 1173 0
 4277 004a 6516     		se_bseti %r6,17
 4278 004c 34A6001C 		e_stb %r5,28(%r6)
 4279              		.loc 1 1177 0
 4280 0050 C501     		se_lwz %r0,20(%r1)
 4281              		.loc 1 1174 0
 4282 0052 C267     		se_lwz %r6,8(%r7)
 4283              		.loc 1 1177 0
 4284 0054 C3F1     		se_lwz %r31,12(%r1)
 4285              		.loc 1 1174 0
 4286 0056 C447     		se_lwz %r4,16(%r7)
 4287 0058 00B6     		se_mtctr %r6
 4288              		.loc 1 1177 0
 4289 005a 0090     		se_mtlr %r0
 4290              		.cfi_restore 65
 4291 005c 20F1     		se_addi %r1,16
 4292              	.LCFI190:
 4293              		.cfi_restore 31
 4294              		.cfi_def_cfa_offset 0
 4295              		.loc 1 1174 0
 4296 005e 0006     		se_bctr
 4297              	.LVL156:
 4298              		.cfi_endproc
 4299              	.LFE50:
 4300              		.size	vector99, .-vector99
 4301              		.section	.text.vector100,"axv",@progbits
 4302              		.align 1
 4303              		.p2align 4,,15
 4304              		.globl vector100
 4305              		.type	vector100, @function
 4306              	vector100:
 4307              	.LFB51:
 4308              		.loc 1 1187 0
 4309              		.cfi_startproc
 4310 0000 182106F0 		e_stwu %r1,-16(%r1)
 4311              	.LCFI191:
 4312              		.cfi_def_cfa_offset 16
 4313 0004 0080     		se_mflr %r0
 4314 0006 D3F1     		se_stw %r31,12(%r1)
 4315 0008 D501     		se_stw %r0,20(%r1)
 4316              		.cfi_offset 65, 4
 4317              		.cfi_offset 31, -4
 4318              		.loc 1 1191 0
 4319 000a 73E0E000 		e_lis %r31,.LANCHOR0@ha
 4320 000e 1FFF0000 		e_la %r31,.LANCHOR0@l(%r31)
 4321 0012 50FF00BC 		e_lwz %r7,188(%r31)
 4322 0016 2A07     		se_cmpi %r7,0
 4323 0018 7A120022 		e_beq %cr0,.L164
 4324              		.loc 1 1194 0
 4325 001c 4AF5     		se_li %r5,47
 4326 001e 70DEE40A 		e_lis %r6,0xf40a
 4327              		.loc 1 1195 0
 4328 0022 4AF3     		se_li %r3,47
 4329              		.loc 1 1194 0
 4330 0024 6516     		se_bseti %r6,17
 4331 0026 34A6001C 		e_stb %r5,28(%r6)
 4332              		.loc 1 1198 0
GAS LISTING C:\Users\bayra\AppData\Local\Temp\ccxOyyf6.s 			page 77


 4333 002a C501     		se_lwz %r0,20(%r1)
 4334              		.loc 1 1195 0
 4335 002c C267     		se_lwz %r6,8(%r7)
 4336              		.loc 1 1198 0
 4337 002e C3F1     		se_lwz %r31,12(%r1)
 4338              		.loc 1 1195 0
 4339 0030 C447     		se_lwz %r4,16(%r7)
 4340 0032 00B6     		se_mtctr %r6
 4341              		.loc 1 1198 0
 4342 0034 0090     		se_mtlr %r0
 4343              		.cfi_remember_state
 4344              		.cfi_restore 65
 4345 0036 20F1     		se_addi %r1,16
 4346              	.LCFI192:
 4347              		.cfi_restore 31
 4348              		.cfi_def_cfa_offset 0
 4349              		.loc 1 1195 0
 4350 0038 0006     		se_bctr
 4351              	.LVL157:
 4352              	.L164:
 4353              	.LCFI193:
 4354              		.cfi_restore_state
 4355              		.loc 1 1192 0
 4356 003a 78000001 		e_bl irqSysHalt
 4357              	.LVL158:
 4358 003e 50FF00BC 		e_lwz %r7,188(%r31)
 4359              		.loc 1 1194 0
 4360 0042 4AF5     		se_li %r5,47
 4361 0044 70DEE40A 		e_lis %r6,0xf40a
 4362              		.loc 1 1195 0
 4363 0048 4AF3     		se_li %r3,47
 4364              		.loc 1 1194 0
 4365 004a 6516     		se_bseti %r6,17
 4366 004c 34A6001C 		e_stb %r5,28(%r6)
 4367              		.loc 1 1198 0
 4368 0050 C501     		se_lwz %r0,20(%r1)
 4369              		.loc 1 1195 0
 4370 0052 C267     		se_lwz %r6,8(%r7)
 4371              		.loc 1 1198 0
 4372 0054 C3F1     		se_lwz %r31,12(%r1)
 4373              		.loc 1 1195 0
 4374 0056 C447     		se_lwz %r4,16(%r7)
 4375 0058 00B6     		se_mtctr %r6
 4376              		.loc 1 1198 0
 4377 005a 0090     		se_mtlr %r0
 4378              		.cfi_restore 65
 4379 005c 20F1     		se_addi %r1,16
 4380              	.LCFI194:
 4381              		.cfi_restore 31
 4382              		.cfi_def_cfa_offset 0
 4383              		.loc 1 1195 0
 4384 005e 0006     		se_bctr
 4385              	.LVL159:
 4386              		.cfi_endproc
 4387              	.LFE51:
 4388              		.size	vector100, .-vector100
 4389              		.section	.text.vector101,"axv",@progbits
GAS LISTING C:\Users\bayra\AppData\Local\Temp\ccxOyyf6.s 			page 78


 4390              		.align 1
 4391              		.p2align 4,,15
 4392              		.globl vector101
 4393              		.type	vector101, @function
 4394              	vector101:
 4395              	.LFB52:
 4396              		.loc 1 1208 0
 4397              		.cfi_startproc
 4398 0000 182106F0 		e_stwu %r1,-16(%r1)
 4399              	.LCFI195:
 4400              		.cfi_def_cfa_offset 16
 4401 0004 0080     		se_mflr %r0
 4402 0006 D3F1     		se_stw %r31,12(%r1)
 4403 0008 D501     		se_stw %r0,20(%r1)
 4404              		.cfi_offset 65, 4
 4405              		.cfi_offset 31, -4
 4406              		.loc 1 1212 0
 4407 000a 73E0E000 		e_lis %r31,.LANCHOR0@ha
 4408 000e 1FFF0000 		e_la %r31,.LANCHOR0@l(%r31)
 4409 0012 50FF00C0 		e_lwz %r7,192(%r31)
 4410 0016 2A07     		se_cmpi %r7,0
 4411 0018 7A120022 		e_beq %cr0,.L167
 4412              		.loc 1 1215 0
 4413 001c 4B05     		se_li %r5,48
 4414 001e 70DEE40A 		e_lis %r6,0xf40a
 4415              		.loc 1 1216 0
 4416 0022 4B03     		se_li %r3,48
 4417              		.loc 1 1215 0
 4418 0024 6516     		se_bseti %r6,17
 4419 0026 34A6001C 		e_stb %r5,28(%r6)
 4420              		.loc 1 1219 0
 4421 002a C501     		se_lwz %r0,20(%r1)
 4422              		.loc 1 1216 0
 4423 002c C267     		se_lwz %r6,8(%r7)
 4424              		.loc 1 1219 0
 4425 002e C3F1     		se_lwz %r31,12(%r1)
 4426              		.loc 1 1216 0
 4427 0030 C447     		se_lwz %r4,16(%r7)
 4428 0032 00B6     		se_mtctr %r6
 4429              		.loc 1 1219 0
 4430 0034 0090     		se_mtlr %r0
 4431              		.cfi_remember_state
 4432              		.cfi_restore 65
 4433 0036 20F1     		se_addi %r1,16
 4434              	.LCFI196:
 4435              		.cfi_restore 31
 4436              		.cfi_def_cfa_offset 0
 4437              		.loc 1 1216 0
 4438 0038 0006     		se_bctr
 4439              	.LVL160:
 4440              	.L167:
 4441              	.LCFI197:
 4442              		.cfi_restore_state
 4443              		.loc 1 1213 0
 4444 003a 78000001 		e_bl irqSysHalt
 4445              	.LVL161:
 4446 003e 50FF00C0 		e_lwz %r7,192(%r31)
GAS LISTING C:\Users\bayra\AppData\Local\Temp\ccxOyyf6.s 			page 79


 4447              		.loc 1 1215 0
 4448 0042 4B05     		se_li %r5,48
 4449 0044 70DEE40A 		e_lis %r6,0xf40a
 4450              		.loc 1 1216 0
 4451 0048 4B03     		se_li %r3,48
 4452              		.loc 1 1215 0
 4453 004a 6516     		se_bseti %r6,17
 4454 004c 34A6001C 		e_stb %r5,28(%r6)
 4455              		.loc 1 1219 0
 4456 0050 C501     		se_lwz %r0,20(%r1)
 4457              		.loc 1 1216 0
 4458 0052 C267     		se_lwz %r6,8(%r7)
 4459              		.loc 1 1219 0
 4460 0054 C3F1     		se_lwz %r31,12(%r1)
 4461              		.loc 1 1216 0
 4462 0056 C447     		se_lwz %r4,16(%r7)
 4463 0058 00B6     		se_mtctr %r6
 4464              		.loc 1 1219 0
 4465 005a 0090     		se_mtlr %r0
 4466              		.cfi_restore 65
 4467 005c 20F1     		se_addi %r1,16
 4468              	.LCFI198:
 4469              		.cfi_restore 31
 4470              		.cfi_def_cfa_offset 0
 4471              		.loc 1 1216 0
 4472 005e 0006     		se_bctr
 4473              	.LVL162:
 4474              		.cfi_endproc
 4475              	.LFE52:
 4476              		.size	vector101, .-vector101
 4477              		.section	.text.vector102,"axv",@progbits
 4478              		.align 1
 4479              		.p2align 4,,15
 4480              		.globl vector102
 4481              		.type	vector102, @function
 4482              	vector102:
 4483              	.LFB53:
 4484              		.loc 1 1229 0
 4485              		.cfi_startproc
 4486 0000 182106F0 		e_stwu %r1,-16(%r1)
 4487              	.LCFI199:
 4488              		.cfi_def_cfa_offset 16
 4489 0004 0080     		se_mflr %r0
 4490 0006 D3F1     		se_stw %r31,12(%r1)
 4491 0008 D501     		se_stw %r0,20(%r1)
 4492              		.cfi_offset 65, 4
 4493              		.cfi_offset 31, -4
 4494              		.loc 1 1233 0
 4495 000a 73E0E000 		e_lis %r31,.LANCHOR0@ha
 4496 000e 1FFF0000 		e_la %r31,.LANCHOR0@l(%r31)
 4497 0012 50FF00C4 		e_lwz %r7,196(%r31)
 4498 0016 2A07     		se_cmpi %r7,0
 4499 0018 7A120022 		e_beq %cr0,.L170
 4500              		.loc 1 1236 0
 4501 001c 4B15     		se_li %r5,49
 4502 001e 70DEE40A 		e_lis %r6,0xf40a
 4503              		.loc 1 1237 0
GAS LISTING C:\Users\bayra\AppData\Local\Temp\ccxOyyf6.s 			page 80


 4504 0022 4B13     		se_li %r3,49
 4505              		.loc 1 1236 0
 4506 0024 6516     		se_bseti %r6,17
 4507 0026 34A6001C 		e_stb %r5,28(%r6)
 4508              		.loc 1 1240 0
 4509 002a C501     		se_lwz %r0,20(%r1)
 4510              		.loc 1 1237 0
 4511 002c C267     		se_lwz %r6,8(%r7)
 4512              		.loc 1 1240 0
 4513 002e C3F1     		se_lwz %r31,12(%r1)
 4514              		.loc 1 1237 0
 4515 0030 C447     		se_lwz %r4,16(%r7)
 4516 0032 00B6     		se_mtctr %r6
 4517              		.loc 1 1240 0
 4518 0034 0090     		se_mtlr %r0
 4519              		.cfi_remember_state
 4520              		.cfi_restore 65
 4521 0036 20F1     		se_addi %r1,16
 4522              	.LCFI200:
 4523              		.cfi_restore 31
 4524              		.cfi_def_cfa_offset 0
 4525              		.loc 1 1237 0
 4526 0038 0006     		se_bctr
 4527              	.LVL163:
 4528              	.L170:
 4529              	.LCFI201:
 4530              		.cfi_restore_state
 4531              		.loc 1 1234 0
 4532 003a 78000001 		e_bl irqSysHalt
 4533              	.LVL164:
 4534 003e 50FF00C4 		e_lwz %r7,196(%r31)
 4535              		.loc 1 1236 0
 4536 0042 4B15     		se_li %r5,49
 4537 0044 70DEE40A 		e_lis %r6,0xf40a
 4538              		.loc 1 1237 0
 4539 0048 4B13     		se_li %r3,49
 4540              		.loc 1 1236 0
 4541 004a 6516     		se_bseti %r6,17
 4542 004c 34A6001C 		e_stb %r5,28(%r6)
 4543              		.loc 1 1240 0
 4544 0050 C501     		se_lwz %r0,20(%r1)
 4545              		.loc 1 1237 0
 4546 0052 C267     		se_lwz %r6,8(%r7)
 4547              		.loc 1 1240 0
 4548 0054 C3F1     		se_lwz %r31,12(%r1)
 4549              		.loc 1 1237 0
 4550 0056 C447     		se_lwz %r4,16(%r7)
 4551 0058 00B6     		se_mtctr %r6
 4552              		.loc 1 1240 0
 4553 005a 0090     		se_mtlr %r0
 4554              		.cfi_restore 65
 4555 005c 20F1     		se_addi %r1,16
 4556              	.LCFI202:
 4557              		.cfi_restore 31
 4558              		.cfi_def_cfa_offset 0
 4559              		.loc 1 1237 0
 4560 005e 0006     		se_bctr
GAS LISTING C:\Users\bayra\AppData\Local\Temp\ccxOyyf6.s 			page 81


 4561              	.LVL165:
 4562              		.cfi_endproc
 4563              	.LFE53:
 4564              		.size	vector102, .-vector102
 4565              		.section	.text.vector103,"axv",@progbits
 4566              		.align 1
 4567              		.p2align 4,,15
 4568              		.globl vector103
 4569              		.type	vector103, @function
 4570              	vector103:
 4571              	.LFB54:
 4572              		.loc 1 1250 0
 4573              		.cfi_startproc
 4574 0000 182106F0 		e_stwu %r1,-16(%r1)
 4575              	.LCFI203:
 4576              		.cfi_def_cfa_offset 16
 4577 0004 0080     		se_mflr %r0
 4578 0006 D3F1     		se_stw %r31,12(%r1)
 4579 0008 D501     		se_stw %r0,20(%r1)
 4580              		.cfi_offset 65, 4
 4581              		.cfi_offset 31, -4
 4582              		.loc 1 1254 0
 4583 000a 73E0E000 		e_lis %r31,.LANCHOR0@ha
 4584 000e 1FFF0000 		e_la %r31,.LANCHOR0@l(%r31)
 4585 0012 50FF00C8 		e_lwz %r7,200(%r31)
 4586 0016 2A07     		se_cmpi %r7,0
 4587 0018 7A120022 		e_beq %cr0,.L173
 4588              		.loc 1 1257 0
 4589 001c 4B25     		se_li %r5,50
 4590 001e 70DEE40A 		e_lis %r6,0xf40a
 4591              		.loc 1 1258 0
 4592 0022 4B23     		se_li %r3,50
 4593              		.loc 1 1257 0
 4594 0024 6516     		se_bseti %r6,17
 4595 0026 34A6001C 		e_stb %r5,28(%r6)
 4596              		.loc 1 1261 0
 4597 002a C501     		se_lwz %r0,20(%r1)
 4598              		.loc 1 1258 0
 4599 002c C267     		se_lwz %r6,8(%r7)
 4600              		.loc 1 1261 0
 4601 002e C3F1     		se_lwz %r31,12(%r1)
 4602              		.loc 1 1258 0
 4603 0030 C447     		se_lwz %r4,16(%r7)
 4604 0032 00B6     		se_mtctr %r6
 4605              		.loc 1 1261 0
 4606 0034 0090     		se_mtlr %r0
 4607              		.cfi_remember_state
 4608              		.cfi_restore 65
 4609 0036 20F1     		se_addi %r1,16
 4610              	.LCFI204:
 4611              		.cfi_restore 31
 4612              		.cfi_def_cfa_offset 0
 4613              		.loc 1 1258 0
 4614 0038 0006     		se_bctr
 4615              	.LVL166:
 4616              	.L173:
 4617              	.LCFI205:
GAS LISTING C:\Users\bayra\AppData\Local\Temp\ccxOyyf6.s 			page 82


 4618              		.cfi_restore_state
 4619              		.loc 1 1255 0
 4620 003a 78000001 		e_bl irqSysHalt
 4621              	.LVL167:
 4622 003e 50FF00C8 		e_lwz %r7,200(%r31)
 4623              		.loc 1 1257 0
 4624 0042 4B25     		se_li %r5,50
 4625 0044 70DEE40A 		e_lis %r6,0xf40a
 4626              		.loc 1 1258 0
 4627 0048 4B23     		se_li %r3,50
 4628              		.loc 1 1257 0
 4629 004a 6516     		se_bseti %r6,17
 4630 004c 34A6001C 		e_stb %r5,28(%r6)
 4631              		.loc 1 1261 0
 4632 0050 C501     		se_lwz %r0,20(%r1)
 4633              		.loc 1 1258 0
 4634 0052 C267     		se_lwz %r6,8(%r7)
 4635              		.loc 1 1261 0
 4636 0054 C3F1     		se_lwz %r31,12(%r1)
 4637              		.loc 1 1258 0
 4638 0056 C447     		se_lwz %r4,16(%r7)
 4639 0058 00B6     		se_mtctr %r6
 4640              		.loc 1 1261 0
 4641 005a 0090     		se_mtlr %r0
 4642              		.cfi_restore 65
 4643 005c 20F1     		se_addi %r1,16
 4644              	.LCFI206:
 4645              		.cfi_restore 31
 4646              		.cfi_def_cfa_offset 0
 4647              		.loc 1 1258 0
 4648 005e 0006     		se_bctr
 4649              	.LVL168:
 4650              		.cfi_endproc
 4651              	.LFE54:
 4652              		.size	vector103, .-vector103
 4653              		.section	.text.vector104,"axv",@progbits
 4654              		.align 1
 4655              		.p2align 4,,15
 4656              		.globl vector104
 4657              		.type	vector104, @function
 4658              	vector104:
 4659              	.LFB55:
 4660              		.loc 1 1271 0
 4661              		.cfi_startproc
 4662 0000 182106F0 		e_stwu %r1,-16(%r1)
 4663              	.LCFI207:
 4664              		.cfi_def_cfa_offset 16
 4665 0004 0080     		se_mflr %r0
 4666 0006 D3F1     		se_stw %r31,12(%r1)
 4667 0008 D501     		se_stw %r0,20(%r1)
 4668              		.cfi_offset 65, 4
 4669              		.cfi_offset 31, -4
 4670              		.loc 1 1275 0
 4671 000a 73E0E000 		e_lis %r31,.LANCHOR0@ha
 4672 000e 1FFF0000 		e_la %r31,.LANCHOR0@l(%r31)
 4673 0012 50FF00CC 		e_lwz %r7,204(%r31)
 4674 0016 2A07     		se_cmpi %r7,0
GAS LISTING C:\Users\bayra\AppData\Local\Temp\ccxOyyf6.s 			page 83


 4675 0018 7A120022 		e_beq %cr0,.L176
 4676              		.loc 1 1278 0
 4677 001c 4B35     		se_li %r5,51
 4678 001e 70DEE40A 		e_lis %r6,0xf40a
 4679              		.loc 1 1279 0
 4680 0022 4B33     		se_li %r3,51
 4681              		.loc 1 1278 0
 4682 0024 6516     		se_bseti %r6,17
 4683 0026 34A6001C 		e_stb %r5,28(%r6)
 4684              		.loc 1 1282 0
 4685 002a C501     		se_lwz %r0,20(%r1)
 4686              		.loc 1 1279 0
 4687 002c C267     		se_lwz %r6,8(%r7)
 4688              		.loc 1 1282 0
 4689 002e C3F1     		se_lwz %r31,12(%r1)
 4690              		.loc 1 1279 0
 4691 0030 C447     		se_lwz %r4,16(%r7)
 4692 0032 00B6     		se_mtctr %r6
 4693              		.loc 1 1282 0
 4694 0034 0090     		se_mtlr %r0
 4695              		.cfi_remember_state
 4696              		.cfi_restore 65
 4697 0036 20F1     		se_addi %r1,16
 4698              	.LCFI208:
 4699              		.cfi_restore 31
 4700              		.cfi_def_cfa_offset 0
 4701              		.loc 1 1279 0
 4702 0038 0006     		se_bctr
 4703              	.LVL169:
 4704              	.L176:
 4705              	.LCFI209:
 4706              		.cfi_restore_state
 4707              		.loc 1 1276 0
 4708 003a 78000001 		e_bl irqSysHalt
 4709              	.LVL170:
 4710 003e 50FF00CC 		e_lwz %r7,204(%r31)
 4711              		.loc 1 1278 0
 4712 0042 4B35     		se_li %r5,51
 4713 0044 70DEE40A 		e_lis %r6,0xf40a
 4714              		.loc 1 1279 0
 4715 0048 4B33     		se_li %r3,51
 4716              		.loc 1 1278 0
 4717 004a 6516     		se_bseti %r6,17
 4718 004c 34A6001C 		e_stb %r5,28(%r6)
 4719              		.loc 1 1282 0
 4720 0050 C501     		se_lwz %r0,20(%r1)
 4721              		.loc 1 1279 0
 4722 0052 C267     		se_lwz %r6,8(%r7)
 4723              		.loc 1 1282 0
 4724 0054 C3F1     		se_lwz %r31,12(%r1)
 4725              		.loc 1 1279 0
 4726 0056 C447     		se_lwz %r4,16(%r7)
 4727 0058 00B6     		se_mtctr %r6
 4728              		.loc 1 1282 0
 4729 005a 0090     		se_mtlr %r0
 4730              		.cfi_restore 65
 4731 005c 20F1     		se_addi %r1,16
GAS LISTING C:\Users\bayra\AppData\Local\Temp\ccxOyyf6.s 			page 84


 4732              	.LCFI210:
 4733              		.cfi_restore 31
 4734              		.cfi_def_cfa_offset 0
 4735              		.loc 1 1279 0
 4736 005e 0006     		se_bctr
 4737              	.LVL171:
 4738              		.cfi_endproc
 4739              	.LFE55:
 4740              		.size	vector104, .-vector104
 4741              		.section	.text.vector105,"axv",@progbits
 4742              		.align 1
 4743              		.p2align 4,,15
 4744              		.globl vector105
 4745              		.type	vector105, @function
 4746              	vector105:
 4747              	.LFB56:
 4748              		.loc 1 1292 0
 4749              		.cfi_startproc
 4750 0000 182106F0 		e_stwu %r1,-16(%r1)
 4751              	.LCFI211:
 4752              		.cfi_def_cfa_offset 16
 4753 0004 0080     		se_mflr %r0
 4754 0006 D3F1     		se_stw %r31,12(%r1)
 4755 0008 D501     		se_stw %r0,20(%r1)
 4756              		.cfi_offset 65, 4
 4757              		.cfi_offset 31, -4
 4758              		.loc 1 1296 0
 4759 000a 73E0E000 		e_lis %r31,.LANCHOR0@ha
 4760 000e 1FFF0000 		e_la %r31,.LANCHOR0@l(%r31)
 4761 0012 50FF00D0 		e_lwz %r7,208(%r31)
 4762 0016 2A07     		se_cmpi %r7,0
 4763 0018 7A120022 		e_beq %cr0,.L179
 4764              		.loc 1 1299 0
 4765 001c 4B45     		se_li %r5,52
 4766 001e 70DEE40A 		e_lis %r6,0xf40a
 4767              		.loc 1 1300 0
 4768 0022 4B43     		se_li %r3,52
 4769              		.loc 1 1299 0
 4770 0024 6516     		se_bseti %r6,17
 4771 0026 34A6001C 		e_stb %r5,28(%r6)
 4772              		.loc 1 1303 0
 4773 002a C501     		se_lwz %r0,20(%r1)
 4774              		.loc 1 1300 0
 4775 002c C267     		se_lwz %r6,8(%r7)
 4776              		.loc 1 1303 0
 4777 002e C3F1     		se_lwz %r31,12(%r1)
 4778              		.loc 1 1300 0
 4779 0030 C447     		se_lwz %r4,16(%r7)
 4780 0032 00B6     		se_mtctr %r6
 4781              		.loc 1 1303 0
 4782 0034 0090     		se_mtlr %r0
 4783              		.cfi_remember_state
 4784              		.cfi_restore 65
 4785 0036 20F1     		se_addi %r1,16
 4786              	.LCFI212:
 4787              		.cfi_restore 31
 4788              		.cfi_def_cfa_offset 0
GAS LISTING C:\Users\bayra\AppData\Local\Temp\ccxOyyf6.s 			page 85


 4789              		.loc 1 1300 0
 4790 0038 0006     		se_bctr
 4791              	.LVL172:
 4792              	.L179:
 4793              	.LCFI213:
 4794              		.cfi_restore_state
 4795              		.loc 1 1297 0
 4796 003a 78000001 		e_bl irqSysHalt
 4797              	.LVL173:
 4798 003e 50FF00D0 		e_lwz %r7,208(%r31)
 4799              		.loc 1 1299 0
 4800 0042 4B45     		se_li %r5,52
 4801 0044 70DEE40A 		e_lis %r6,0xf40a
 4802              		.loc 1 1300 0
 4803 0048 4B43     		se_li %r3,52
 4804              		.loc 1 1299 0
 4805 004a 6516     		se_bseti %r6,17
 4806 004c 34A6001C 		e_stb %r5,28(%r6)
 4807              		.loc 1 1303 0
 4808 0050 C501     		se_lwz %r0,20(%r1)
 4809              		.loc 1 1300 0
 4810 0052 C267     		se_lwz %r6,8(%r7)
 4811              		.loc 1 1303 0
 4812 0054 C3F1     		se_lwz %r31,12(%r1)
 4813              		.loc 1 1300 0
 4814 0056 C447     		se_lwz %r4,16(%r7)
 4815 0058 00B6     		se_mtctr %r6
 4816              		.loc 1 1303 0
 4817 005a 0090     		se_mtlr %r0
 4818              		.cfi_restore 65
 4819 005c 20F1     		se_addi %r1,16
 4820              	.LCFI214:
 4821              		.cfi_restore 31
 4822              		.cfi_def_cfa_offset 0
 4823              		.loc 1 1300 0
 4824 005e 0006     		se_bctr
 4825              	.LVL174:
 4826              		.cfi_endproc
 4827              	.LFE56:
 4828              		.size	vector105, .-vector105
 4829              		.section	.text.vector106,"axv",@progbits
 4830              		.align 1
 4831              		.p2align 4,,15
 4832              		.globl vector106
 4833              		.type	vector106, @function
 4834              	vector106:
 4835              	.LFB57:
 4836              		.loc 1 1313 0
 4837              		.cfi_startproc
 4838 0000 182106F0 		e_stwu %r1,-16(%r1)
 4839              	.LCFI215:
 4840              		.cfi_def_cfa_offset 16
 4841 0004 0080     		se_mflr %r0
 4842 0006 D3F1     		se_stw %r31,12(%r1)
 4843 0008 D501     		se_stw %r0,20(%r1)
 4844              		.cfi_offset 65, 4
 4845              		.cfi_offset 31, -4
GAS LISTING C:\Users\bayra\AppData\Local\Temp\ccxOyyf6.s 			page 86


 4846              		.loc 1 1317 0
 4847 000a 73E0E000 		e_lis %r31,.LANCHOR0@ha
 4848 000e 1FFF0000 		e_la %r31,.LANCHOR0@l(%r31)
 4849 0012 50FF00D4 		e_lwz %r7,212(%r31)
 4850 0016 2A07     		se_cmpi %r7,0
 4851 0018 7A120022 		e_beq %cr0,.L182
 4852              		.loc 1 1320 0
 4853 001c 4B55     		se_li %r5,53
 4854 001e 70DEE40A 		e_lis %r6,0xf40a
 4855              		.loc 1 1321 0
 4856 0022 4B53     		se_li %r3,53
 4857              		.loc 1 1320 0
 4858 0024 6516     		se_bseti %r6,17
 4859 0026 34A6001C 		e_stb %r5,28(%r6)
 4860              		.loc 1 1324 0
 4861 002a C501     		se_lwz %r0,20(%r1)
 4862              		.loc 1 1321 0
 4863 002c C267     		se_lwz %r6,8(%r7)
 4864              		.loc 1 1324 0
 4865 002e C3F1     		se_lwz %r31,12(%r1)
 4866              		.loc 1 1321 0
 4867 0030 C447     		se_lwz %r4,16(%r7)
 4868 0032 00B6     		se_mtctr %r6
 4869              		.loc 1 1324 0
 4870 0034 0090     		se_mtlr %r0
 4871              		.cfi_remember_state
 4872              		.cfi_restore 65
 4873 0036 20F1     		se_addi %r1,16
 4874              	.LCFI216:
 4875              		.cfi_restore 31
 4876              		.cfi_def_cfa_offset 0
 4877              		.loc 1 1321 0
 4878 0038 0006     		se_bctr
 4879              	.LVL175:
 4880              	.L182:
 4881              	.LCFI217:
 4882              		.cfi_restore_state
 4883              		.loc 1 1318 0
 4884 003a 78000001 		e_bl irqSysHalt
 4885              	.LVL176:
 4886 003e 50FF00D4 		e_lwz %r7,212(%r31)
 4887              		.loc 1 1320 0
 4888 0042 4B55     		se_li %r5,53
 4889 0044 70DEE40A 		e_lis %r6,0xf40a
 4890              		.loc 1 1321 0
 4891 0048 4B53     		se_li %r3,53
 4892              		.loc 1 1320 0
 4893 004a 6516     		se_bseti %r6,17
 4894 004c 34A6001C 		e_stb %r5,28(%r6)
 4895              		.loc 1 1324 0
 4896 0050 C501     		se_lwz %r0,20(%r1)
 4897              		.loc 1 1321 0
 4898 0052 C267     		se_lwz %r6,8(%r7)
 4899              		.loc 1 1324 0
 4900 0054 C3F1     		se_lwz %r31,12(%r1)
 4901              		.loc 1 1321 0
 4902 0056 C447     		se_lwz %r4,16(%r7)
GAS LISTING C:\Users\bayra\AppData\Local\Temp\ccxOyyf6.s 			page 87


 4903 0058 00B6     		se_mtctr %r6
 4904              		.loc 1 1324 0
 4905 005a 0090     		se_mtlr %r0
 4906              		.cfi_restore 65
 4907 005c 20F1     		se_addi %r1,16
 4908              	.LCFI218:
 4909              		.cfi_restore 31
 4910              		.cfi_def_cfa_offset 0
 4911              		.loc 1 1321 0
 4912 005e 0006     		se_bctr
 4913              	.LVL177:
 4914              		.cfi_endproc
 4915              	.LFE57:
 4916              		.size	vector106, .-vector106
 4917              		.section	.text.vector107,"axv",@progbits
 4918              		.align 1
 4919              		.p2align 4,,15
 4920              		.globl vector107
 4921              		.type	vector107, @function
 4922              	vector107:
 4923              	.LFB58:
 4924              		.loc 1 1334 0
 4925              		.cfi_startproc
 4926 0000 182106F0 		e_stwu %r1,-16(%r1)
 4927              	.LCFI219:
 4928              		.cfi_def_cfa_offset 16
 4929 0004 0080     		se_mflr %r0
 4930 0006 D3F1     		se_stw %r31,12(%r1)
 4931 0008 D501     		se_stw %r0,20(%r1)
 4932              		.cfi_offset 65, 4
 4933              		.cfi_offset 31, -4
 4934              		.loc 1 1338 0
 4935 000a 73E0E000 		e_lis %r31,.LANCHOR0@ha
 4936 000e 1FFF0000 		e_la %r31,.LANCHOR0@l(%r31)
 4937 0012 50FF00D8 		e_lwz %r7,216(%r31)
 4938 0016 2A07     		se_cmpi %r7,0
 4939 0018 7A120022 		e_beq %cr0,.L185
 4940              		.loc 1 1341 0
 4941 001c 4B65     		se_li %r5,54
 4942 001e 70DEE40A 		e_lis %r6,0xf40a
 4943              		.loc 1 1342 0
 4944 0022 4B63     		se_li %r3,54
 4945              		.loc 1 1341 0
 4946 0024 6516     		se_bseti %r6,17
 4947 0026 34A6001C 		e_stb %r5,28(%r6)
 4948              		.loc 1 1345 0
 4949 002a C501     		se_lwz %r0,20(%r1)
 4950              		.loc 1 1342 0
 4951 002c C267     		se_lwz %r6,8(%r7)
 4952              		.loc 1 1345 0
 4953 002e C3F1     		se_lwz %r31,12(%r1)
 4954              		.loc 1 1342 0
 4955 0030 C447     		se_lwz %r4,16(%r7)
 4956 0032 00B6     		se_mtctr %r6
 4957              		.loc 1 1345 0
 4958 0034 0090     		se_mtlr %r0
 4959              		.cfi_remember_state
GAS LISTING C:\Users\bayra\AppData\Local\Temp\ccxOyyf6.s 			page 88


 4960              		.cfi_restore 65
 4961 0036 20F1     		se_addi %r1,16
 4962              	.LCFI220:
 4963              		.cfi_restore 31
 4964              		.cfi_def_cfa_offset 0
 4965              		.loc 1 1342 0
 4966 0038 0006     		se_bctr
 4967              	.LVL178:
 4968              	.L185:
 4969              	.LCFI221:
 4970              		.cfi_restore_state
 4971              		.loc 1 1339 0
 4972 003a 78000001 		e_bl irqSysHalt
 4973              	.LVL179:
 4974 003e 50FF00D8 		e_lwz %r7,216(%r31)
 4975              		.loc 1 1341 0
 4976 0042 4B65     		se_li %r5,54
 4977 0044 70DEE40A 		e_lis %r6,0xf40a
 4978              		.loc 1 1342 0
 4979 0048 4B63     		se_li %r3,54
 4980              		.loc 1 1341 0
 4981 004a 6516     		se_bseti %r6,17
 4982 004c 34A6001C 		e_stb %r5,28(%r6)
 4983              		.loc 1 1345 0
 4984 0050 C501     		se_lwz %r0,20(%r1)
 4985              		.loc 1 1342 0
 4986 0052 C267     		se_lwz %r6,8(%r7)
 4987              		.loc 1 1345 0
 4988 0054 C3F1     		se_lwz %r31,12(%r1)
 4989              		.loc 1 1342 0
 4990 0056 C447     		se_lwz %r4,16(%r7)
 4991 0058 00B6     		se_mtctr %r6
 4992              		.loc 1 1345 0
 4993 005a 0090     		se_mtlr %r0
 4994              		.cfi_restore 65
 4995 005c 20F1     		se_addi %r1,16
 4996              	.LCFI222:
 4997              		.cfi_restore 31
 4998              		.cfi_def_cfa_offset 0
 4999              		.loc 1 1342 0
 5000 005e 0006     		se_bctr
 5001              	.LVL180:
 5002              		.cfi_endproc
 5003              	.LFE58:
 5004              		.size	vector107, .-vector107
 5005              		.section	.text.vector108,"axv",@progbits
 5006              		.align 1
 5007              		.p2align 4,,15
 5008              		.globl vector108
 5009              		.type	vector108, @function
 5010              	vector108:
 5011              	.LFB59:
 5012              		.loc 1 1355 0
 5013              		.cfi_startproc
 5014 0000 182106F0 		e_stwu %r1,-16(%r1)
 5015              	.LCFI223:
 5016              		.cfi_def_cfa_offset 16
GAS LISTING C:\Users\bayra\AppData\Local\Temp\ccxOyyf6.s 			page 89


 5017 0004 0080     		se_mflr %r0
 5018 0006 D3F1     		se_stw %r31,12(%r1)
 5019 0008 D501     		se_stw %r0,20(%r1)
 5020              		.cfi_offset 65, 4
 5021              		.cfi_offset 31, -4
 5022              		.loc 1 1359 0
 5023 000a 73E0E000 		e_lis %r31,.LANCHOR0@ha
 5024 000e 1FFF0000 		e_la %r31,.LANCHOR0@l(%r31)
 5025 0012 50FF00DC 		e_lwz %r7,220(%r31)
 5026 0016 2A07     		se_cmpi %r7,0
 5027 0018 7A120022 		e_beq %cr0,.L188
 5028              		.loc 1 1362 0
 5029 001c 4B75     		se_li %r5,55
 5030 001e 70DEE40A 		e_lis %r6,0xf40a
 5031              		.loc 1 1363 0
 5032 0022 4B73     		se_li %r3,55
 5033              		.loc 1 1362 0
 5034 0024 6516     		se_bseti %r6,17
 5035 0026 34A6001C 		e_stb %r5,28(%r6)
 5036              		.loc 1 1366 0
 5037 002a C501     		se_lwz %r0,20(%r1)
 5038              		.loc 1 1363 0
 5039 002c C267     		se_lwz %r6,8(%r7)
 5040              		.loc 1 1366 0
 5041 002e C3F1     		se_lwz %r31,12(%r1)
 5042              		.loc 1 1363 0
 5043 0030 C447     		se_lwz %r4,16(%r7)
 5044 0032 00B6     		se_mtctr %r6
 5045              		.loc 1 1366 0
 5046 0034 0090     		se_mtlr %r0
 5047              		.cfi_remember_state
 5048              		.cfi_restore 65
 5049 0036 20F1     		se_addi %r1,16
 5050              	.LCFI224:
 5051              		.cfi_restore 31
 5052              		.cfi_def_cfa_offset 0
 5053              		.loc 1 1363 0
 5054 0038 0006     		se_bctr
 5055              	.LVL181:
 5056              	.L188:
 5057              	.LCFI225:
 5058              		.cfi_restore_state
 5059              		.loc 1 1360 0
 5060 003a 78000001 		e_bl irqSysHalt
 5061              	.LVL182:
 5062 003e 50FF00DC 		e_lwz %r7,220(%r31)
 5063              		.loc 1 1362 0
 5064 0042 4B75     		se_li %r5,55
 5065 0044 70DEE40A 		e_lis %r6,0xf40a
 5066              		.loc 1 1363 0
 5067 0048 4B73     		se_li %r3,55
 5068              		.loc 1 1362 0
 5069 004a 6516     		se_bseti %r6,17
 5070 004c 34A6001C 		e_stb %r5,28(%r6)
 5071              		.loc 1 1366 0
 5072 0050 C501     		se_lwz %r0,20(%r1)
 5073              		.loc 1 1363 0
GAS LISTING C:\Users\bayra\AppData\Local\Temp\ccxOyyf6.s 			page 90


 5074 0052 C267     		se_lwz %r6,8(%r7)
 5075              		.loc 1 1366 0
 5076 0054 C3F1     		se_lwz %r31,12(%r1)
 5077              		.loc 1 1363 0
 5078 0056 C447     		se_lwz %r4,16(%r7)
 5079 0058 00B6     		se_mtctr %r6
 5080              		.loc 1 1366 0
 5081 005a 0090     		se_mtlr %r0
 5082              		.cfi_restore 65
 5083 005c 20F1     		se_addi %r1,16
 5084              	.LCFI226:
 5085              		.cfi_restore 31
 5086              		.cfi_def_cfa_offset 0
 5087              		.loc 1 1363 0
 5088 005e 0006     		se_bctr
 5089              	.LVL183:
 5090              		.cfi_endproc
 5091              	.LFE59:
 5092              		.size	vector108, .-vector108
 5093              		.section	.text.vector109,"axv",@progbits
 5094              		.align 1
 5095              		.p2align 4,,15
 5096              		.globl vector109
 5097              		.type	vector109, @function
 5098              	vector109:
 5099              	.LFB60:
 5100              		.loc 1 1376 0
 5101              		.cfi_startproc
 5102 0000 182106F0 		e_stwu %r1,-16(%r1)
 5103              	.LCFI227:
 5104              		.cfi_def_cfa_offset 16
 5105 0004 0080     		se_mflr %r0
 5106 0006 D3F1     		se_stw %r31,12(%r1)
 5107 0008 D501     		se_stw %r0,20(%r1)
 5108              		.cfi_offset 65, 4
 5109              		.cfi_offset 31, -4
 5110              		.loc 1 1380 0
 5111 000a 73E0E000 		e_lis %r31,.LANCHOR0@ha
 5112 000e 1FFF0000 		e_la %r31,.LANCHOR0@l(%r31)
 5113 0012 50FF00E0 		e_lwz %r7,224(%r31)
 5114 0016 2A07     		se_cmpi %r7,0
 5115 0018 7A120022 		e_beq %cr0,.L191
 5116              		.loc 1 1383 0
 5117 001c 4B85     		se_li %r5,56
 5118 001e 70DEE40A 		e_lis %r6,0xf40a
 5119              		.loc 1 1384 0
 5120 0022 4B83     		se_li %r3,56
 5121              		.loc 1 1383 0
 5122 0024 6516     		se_bseti %r6,17
 5123 0026 34A6001C 		e_stb %r5,28(%r6)
 5124              		.loc 1 1387 0
 5125 002a C501     		se_lwz %r0,20(%r1)
 5126              		.loc 1 1384 0
 5127 002c C267     		se_lwz %r6,8(%r7)
 5128              		.loc 1 1387 0
 5129 002e C3F1     		se_lwz %r31,12(%r1)
 5130              		.loc 1 1384 0
GAS LISTING C:\Users\bayra\AppData\Local\Temp\ccxOyyf6.s 			page 91


 5131 0030 C447     		se_lwz %r4,16(%r7)
 5132 0032 00B6     		se_mtctr %r6
 5133              		.loc 1 1387 0
 5134 0034 0090     		se_mtlr %r0
 5135              		.cfi_remember_state
 5136              		.cfi_restore 65
 5137 0036 20F1     		se_addi %r1,16
 5138              	.LCFI228:
 5139              		.cfi_restore 31
 5140              		.cfi_def_cfa_offset 0
 5141              		.loc 1 1384 0
 5142 0038 0006     		se_bctr
 5143              	.LVL184:
 5144              	.L191:
 5145              	.LCFI229:
 5146              		.cfi_restore_state
 5147              		.loc 1 1381 0
 5148 003a 78000001 		e_bl irqSysHalt
 5149              	.LVL185:
 5150 003e 50FF00E0 		e_lwz %r7,224(%r31)
 5151              		.loc 1 1383 0
 5152 0042 4B85     		se_li %r5,56
 5153 0044 70DEE40A 		e_lis %r6,0xf40a
 5154              		.loc 1 1384 0
 5155 0048 4B83     		se_li %r3,56
 5156              		.loc 1 1383 0
 5157 004a 6516     		se_bseti %r6,17
 5158 004c 34A6001C 		e_stb %r5,28(%r6)
 5159              		.loc 1 1387 0
 5160 0050 C501     		se_lwz %r0,20(%r1)
 5161              		.loc 1 1384 0
 5162 0052 C267     		se_lwz %r6,8(%r7)
 5163              		.loc 1 1387 0
 5164 0054 C3F1     		se_lwz %r31,12(%r1)
 5165              		.loc 1 1384 0
 5166 0056 C447     		se_lwz %r4,16(%r7)
 5167 0058 00B6     		se_mtctr %r6
 5168              		.loc 1 1387 0
 5169 005a 0090     		se_mtlr %r0
 5170              		.cfi_restore 65
 5171 005c 20F1     		se_addi %r1,16
 5172              	.LCFI230:
 5173              		.cfi_restore 31
 5174              		.cfi_def_cfa_offset 0
 5175              		.loc 1 1384 0
 5176 005e 0006     		se_bctr
 5177              	.LVL186:
 5178              		.cfi_endproc
 5179              	.LFE60:
 5180              		.size	vector109, .-vector109
 5181              		.section	.text.vector110,"axv",@progbits
 5182              		.align 1
 5183              		.p2align 4,,15
 5184              		.globl vector110
 5185              		.type	vector110, @function
 5186              	vector110:
 5187              	.LFB61:
GAS LISTING C:\Users\bayra\AppData\Local\Temp\ccxOyyf6.s 			page 92


 5188              		.loc 1 1397 0
 5189              		.cfi_startproc
 5190 0000 182106F0 		e_stwu %r1,-16(%r1)
 5191              	.LCFI231:
 5192              		.cfi_def_cfa_offset 16
 5193 0004 0080     		se_mflr %r0
 5194 0006 D3F1     		se_stw %r31,12(%r1)
 5195 0008 D501     		se_stw %r0,20(%r1)
 5196              		.cfi_offset 65, 4
 5197              		.cfi_offset 31, -4
 5198              		.loc 1 1401 0
 5199 000a 73E0E000 		e_lis %r31,.LANCHOR0@ha
 5200 000e 1FFF0000 		e_la %r31,.LANCHOR0@l(%r31)
 5201 0012 50FF00E4 		e_lwz %r7,228(%r31)
 5202 0016 2A07     		se_cmpi %r7,0
 5203 0018 7A120022 		e_beq %cr0,.L194
 5204              		.loc 1 1404 0
 5205 001c 4B95     		se_li %r5,57
 5206 001e 70DEE40A 		e_lis %r6,0xf40a
 5207              		.loc 1 1405 0
 5208 0022 4B93     		se_li %r3,57
 5209              		.loc 1 1404 0
 5210 0024 6516     		se_bseti %r6,17
 5211 0026 34A6001C 		e_stb %r5,28(%r6)
 5212              		.loc 1 1408 0
 5213 002a C501     		se_lwz %r0,20(%r1)
 5214              		.loc 1 1405 0
 5215 002c C267     		se_lwz %r6,8(%r7)
 5216              		.loc 1 1408 0
 5217 002e C3F1     		se_lwz %r31,12(%r1)
 5218              		.loc 1 1405 0
 5219 0030 C447     		se_lwz %r4,16(%r7)
 5220 0032 00B6     		se_mtctr %r6
 5221              		.loc 1 1408 0
 5222 0034 0090     		se_mtlr %r0
 5223              		.cfi_remember_state
 5224              		.cfi_restore 65
 5225 0036 20F1     		se_addi %r1,16
 5226              	.LCFI232:
 5227              		.cfi_restore 31
 5228              		.cfi_def_cfa_offset 0
 5229              		.loc 1 1405 0
 5230 0038 0006     		se_bctr
 5231              	.LVL187:
 5232              	.L194:
 5233              	.LCFI233:
 5234              		.cfi_restore_state
 5235              		.loc 1 1402 0
 5236 003a 78000001 		e_bl irqSysHalt
 5237              	.LVL188:
 5238 003e 50FF00E4 		e_lwz %r7,228(%r31)
 5239              		.loc 1 1404 0
 5240 0042 4B95     		se_li %r5,57
 5241 0044 70DEE40A 		e_lis %r6,0xf40a
 5242              		.loc 1 1405 0
 5243 0048 4B93     		se_li %r3,57
 5244              		.loc 1 1404 0
GAS LISTING C:\Users\bayra\AppData\Local\Temp\ccxOyyf6.s 			page 93


 5245 004a 6516     		se_bseti %r6,17
 5246 004c 34A6001C 		e_stb %r5,28(%r6)
 5247              		.loc 1 1408 0
 5248 0050 C501     		se_lwz %r0,20(%r1)
 5249              		.loc 1 1405 0
 5250 0052 C267     		se_lwz %r6,8(%r7)
 5251              		.loc 1 1408 0
 5252 0054 C3F1     		se_lwz %r31,12(%r1)
 5253              		.loc 1 1405 0
 5254 0056 C447     		se_lwz %r4,16(%r7)
 5255 0058 00B6     		se_mtctr %r6
 5256              		.loc 1 1408 0
 5257 005a 0090     		se_mtlr %r0
 5258              		.cfi_restore 65
 5259 005c 20F1     		se_addi %r1,16
 5260              	.LCFI234:
 5261              		.cfi_restore 31
 5262              		.cfi_def_cfa_offset 0
 5263              		.loc 1 1405 0
 5264 005e 0006     		se_bctr
 5265              	.LVL189:
 5266              		.cfi_endproc
 5267              	.LFE61:
 5268              		.size	vector110, .-vector110
 5269              		.section	.text.vector111,"axv",@progbits
 5270              		.align 1
 5271              		.p2align 4,,15
 5272              		.globl vector111
 5273              		.type	vector111, @function
 5274              	vector111:
 5275              	.LFB62:
 5276              		.loc 1 1418 0
 5277              		.cfi_startproc
 5278 0000 182106F0 		e_stwu %r1,-16(%r1)
 5279              	.LCFI235:
 5280              		.cfi_def_cfa_offset 16
 5281 0004 0080     		se_mflr %r0
 5282 0006 D3F1     		se_stw %r31,12(%r1)
 5283 0008 D501     		se_stw %r0,20(%r1)
 5284              		.cfi_offset 65, 4
 5285              		.cfi_offset 31, -4
 5286              		.loc 1 1422 0
 5287 000a 73E0E000 		e_lis %r31,.LANCHOR0@ha
 5288 000e 1FFF0000 		e_la %r31,.LANCHOR0@l(%r31)
 5289 0012 50FF00E8 		e_lwz %r7,232(%r31)
 5290 0016 2A07     		se_cmpi %r7,0
 5291 0018 7A120022 		e_beq %cr0,.L197
 5292              		.loc 1 1425 0
 5293 001c 4BA5     		se_li %r5,58
 5294 001e 70DEE40A 		e_lis %r6,0xf40a
 5295              		.loc 1 1426 0
 5296 0022 4BA3     		se_li %r3,58
 5297              		.loc 1 1425 0
 5298 0024 6516     		se_bseti %r6,17
 5299 0026 34A6001C 		e_stb %r5,28(%r6)
 5300              		.loc 1 1429 0
 5301 002a C501     		se_lwz %r0,20(%r1)
GAS LISTING C:\Users\bayra\AppData\Local\Temp\ccxOyyf6.s 			page 94


 5302              		.loc 1 1426 0
 5303 002c C267     		se_lwz %r6,8(%r7)
 5304              		.loc 1 1429 0
 5305 002e C3F1     		se_lwz %r31,12(%r1)
 5306              		.loc 1 1426 0
 5307 0030 C447     		se_lwz %r4,16(%r7)
 5308 0032 00B6     		se_mtctr %r6
 5309              		.loc 1 1429 0
 5310 0034 0090     		se_mtlr %r0
 5311              		.cfi_remember_state
 5312              		.cfi_restore 65
 5313 0036 20F1     		se_addi %r1,16
 5314              	.LCFI236:
 5315              		.cfi_restore 31
 5316              		.cfi_def_cfa_offset 0
 5317              		.loc 1 1426 0
 5318 0038 0006     		se_bctr
 5319              	.LVL190:
 5320              	.L197:
 5321              	.LCFI237:
 5322              		.cfi_restore_state
 5323              		.loc 1 1423 0
 5324 003a 78000001 		e_bl irqSysHalt
 5325              	.LVL191:
 5326 003e 50FF00E8 		e_lwz %r7,232(%r31)
 5327              		.loc 1 1425 0
 5328 0042 4BA5     		se_li %r5,58
 5329 0044 70DEE40A 		e_lis %r6,0xf40a
 5330              		.loc 1 1426 0
 5331 0048 4BA3     		se_li %r3,58
 5332              		.loc 1 1425 0
 5333 004a 6516     		se_bseti %r6,17
 5334 004c 34A6001C 		e_stb %r5,28(%r6)
 5335              		.loc 1 1429 0
 5336 0050 C501     		se_lwz %r0,20(%r1)
 5337              		.loc 1 1426 0
 5338 0052 C267     		se_lwz %r6,8(%r7)
 5339              		.loc 1 1429 0
 5340 0054 C3F1     		se_lwz %r31,12(%r1)
 5341              		.loc 1 1426 0
 5342 0056 C447     		se_lwz %r4,16(%r7)
 5343 0058 00B6     		se_mtctr %r6
 5344              		.loc 1 1429 0
 5345 005a 0090     		se_mtlr %r0
 5346              		.cfi_restore 65
 5347 005c 20F1     		se_addi %r1,16
 5348              	.LCFI238:
 5349              		.cfi_restore 31
 5350              		.cfi_def_cfa_offset 0
 5351              		.loc 1 1426 0
 5352 005e 0006     		se_bctr
 5353              	.LVL192:
 5354              		.cfi_endproc
 5355              	.LFE62:
 5356              		.size	vector111, .-vector111
 5357              		.section	.text.vector112,"axv",@progbits
 5358              		.align 1
GAS LISTING C:\Users\bayra\AppData\Local\Temp\ccxOyyf6.s 			page 95


 5359              		.p2align 4,,15
 5360              		.globl vector112
 5361              		.type	vector112, @function
 5362              	vector112:
 5363              	.LFB63:
 5364              		.loc 1 1439 0
 5365              		.cfi_startproc
 5366 0000 182106F0 		e_stwu %r1,-16(%r1)
 5367              	.LCFI239:
 5368              		.cfi_def_cfa_offset 16
 5369 0004 0080     		se_mflr %r0
 5370 0006 D3F1     		se_stw %r31,12(%r1)
 5371 0008 D501     		se_stw %r0,20(%r1)
 5372              		.cfi_offset 65, 4
 5373              		.cfi_offset 31, -4
 5374              		.loc 1 1443 0
 5375 000a 73E0E000 		e_lis %r31,.LANCHOR0@ha
 5376 000e 1FFF0000 		e_la %r31,.LANCHOR0@l(%r31)
 5377 0012 50FF00EC 		e_lwz %r7,236(%r31)
 5378 0016 2A07     		se_cmpi %r7,0
 5379 0018 7A120022 		e_beq %cr0,.L200
 5380              		.loc 1 1446 0
 5381 001c 4BB5     		se_li %r5,59
 5382 001e 70DEE40A 		e_lis %r6,0xf40a
 5383              		.loc 1 1447 0
 5384 0022 4BB3     		se_li %r3,59
 5385              		.loc 1 1446 0
 5386 0024 6516     		se_bseti %r6,17
 5387 0026 34A6001C 		e_stb %r5,28(%r6)
 5388              		.loc 1 1450 0
 5389 002a C501     		se_lwz %r0,20(%r1)
 5390              		.loc 1 1447 0
 5391 002c C267     		se_lwz %r6,8(%r7)
 5392              		.loc 1 1450 0
 5393 002e C3F1     		se_lwz %r31,12(%r1)
 5394              		.loc 1 1447 0
 5395 0030 C447     		se_lwz %r4,16(%r7)
 5396 0032 00B6     		se_mtctr %r6
 5397              		.loc 1 1450 0
 5398 0034 0090     		se_mtlr %r0
 5399              		.cfi_remember_state
 5400              		.cfi_restore 65
 5401 0036 20F1     		se_addi %r1,16
 5402              	.LCFI240:
 5403              		.cfi_restore 31
 5404              		.cfi_def_cfa_offset 0
 5405              		.loc 1 1447 0
 5406 0038 0006     		se_bctr
 5407              	.LVL193:
 5408              	.L200:
 5409              	.LCFI241:
 5410              		.cfi_restore_state
 5411              		.loc 1 1444 0
 5412 003a 78000001 		e_bl irqSysHalt
 5413              	.LVL194:
 5414 003e 50FF00EC 		e_lwz %r7,236(%r31)
 5415              		.loc 1 1446 0
GAS LISTING C:\Users\bayra\AppData\Local\Temp\ccxOyyf6.s 			page 96


 5416 0042 4BB5     		se_li %r5,59
 5417 0044 70DEE40A 		e_lis %r6,0xf40a
 5418              		.loc 1 1447 0
 5419 0048 4BB3     		se_li %r3,59
 5420              		.loc 1 1446 0
 5421 004a 6516     		se_bseti %r6,17
 5422 004c 34A6001C 		e_stb %r5,28(%r6)
 5423              		.loc 1 1450 0
 5424 0050 C501     		se_lwz %r0,20(%r1)
 5425              		.loc 1 1447 0
 5426 0052 C267     		se_lwz %r6,8(%r7)
 5427              		.loc 1 1450 0
 5428 0054 C3F1     		se_lwz %r31,12(%r1)
 5429              		.loc 1 1447 0
 5430 0056 C447     		se_lwz %r4,16(%r7)
 5431 0058 00B6     		se_mtctr %r6
 5432              		.loc 1 1450 0
 5433 005a 0090     		se_mtlr %r0
 5434              		.cfi_restore 65
 5435 005c 20F1     		se_addi %r1,16
 5436              	.LCFI242:
 5437              		.cfi_restore 31
 5438              		.cfi_def_cfa_offset 0
 5439              		.loc 1 1447 0
 5440 005e 0006     		se_bctr
 5441              	.LVL195:
 5442              		.cfi_endproc
 5443              	.LFE63:
 5444              		.size	vector112, .-vector112
 5445              		.section	.text.vector113,"axv",@progbits
 5446              		.align 1
 5447              		.p2align 4,,15
 5448              		.globl vector113
 5449              		.type	vector113, @function
 5450              	vector113:
 5451              	.LFB64:
 5452              		.loc 1 1460 0
 5453              		.cfi_startproc
 5454 0000 182106F0 		e_stwu %r1,-16(%r1)
 5455              	.LCFI243:
 5456              		.cfi_def_cfa_offset 16
 5457 0004 0080     		se_mflr %r0
 5458 0006 D3F1     		se_stw %r31,12(%r1)
 5459 0008 D501     		se_stw %r0,20(%r1)
 5460              		.cfi_offset 65, 4
 5461              		.cfi_offset 31, -4
 5462              		.loc 1 1464 0
 5463 000a 73E0E000 		e_lis %r31,.LANCHOR0@ha
 5464 000e 1FFF0000 		e_la %r31,.LANCHOR0@l(%r31)
 5465 0012 50FF00F0 		e_lwz %r7,240(%r31)
 5466 0016 2A07     		se_cmpi %r7,0
 5467 0018 7A120022 		e_beq %cr0,.L203
 5468              		.loc 1 1467 0
 5469 001c 4BC5     		se_li %r5,60
 5470 001e 70DEE40A 		e_lis %r6,0xf40a
 5471              		.loc 1 1468 0
 5472 0022 4BC3     		se_li %r3,60
GAS LISTING C:\Users\bayra\AppData\Local\Temp\ccxOyyf6.s 			page 97


 5473              		.loc 1 1467 0
 5474 0024 6516     		se_bseti %r6,17
 5475 0026 34A6001C 		e_stb %r5,28(%r6)
 5476              		.loc 1 1471 0
 5477 002a C501     		se_lwz %r0,20(%r1)
 5478              		.loc 1 1468 0
 5479 002c C267     		se_lwz %r6,8(%r7)
 5480              		.loc 1 1471 0
 5481 002e C3F1     		se_lwz %r31,12(%r1)
 5482              		.loc 1 1468 0
 5483 0030 C447     		se_lwz %r4,16(%r7)
 5484 0032 00B6     		se_mtctr %r6
 5485              		.loc 1 1471 0
 5486 0034 0090     		se_mtlr %r0
 5487              		.cfi_remember_state
 5488              		.cfi_restore 65
 5489 0036 20F1     		se_addi %r1,16
 5490              	.LCFI244:
 5491              		.cfi_restore 31
 5492              		.cfi_def_cfa_offset 0
 5493              		.loc 1 1468 0
 5494 0038 0006     		se_bctr
 5495              	.LVL196:
 5496              	.L203:
 5497              	.LCFI245:
 5498              		.cfi_restore_state
 5499              		.loc 1 1465 0
 5500 003a 78000001 		e_bl irqSysHalt
 5501              	.LVL197:
 5502 003e 50FF00F0 		e_lwz %r7,240(%r31)
 5503              		.loc 1 1467 0
 5504 0042 4BC5     		se_li %r5,60
 5505 0044 70DEE40A 		e_lis %r6,0xf40a
 5506              		.loc 1 1468 0
 5507 0048 4BC3     		se_li %r3,60
 5508              		.loc 1 1467 0
 5509 004a 6516     		se_bseti %r6,17
 5510 004c 34A6001C 		e_stb %r5,28(%r6)
 5511              		.loc 1 1471 0
 5512 0050 C501     		se_lwz %r0,20(%r1)
 5513              		.loc 1 1468 0
 5514 0052 C267     		se_lwz %r6,8(%r7)
 5515              		.loc 1 1471 0
 5516 0054 C3F1     		se_lwz %r31,12(%r1)
 5517              		.loc 1 1468 0
 5518 0056 C447     		se_lwz %r4,16(%r7)
 5519 0058 00B6     		se_mtctr %r6
 5520              		.loc 1 1471 0
 5521 005a 0090     		se_mtlr %r0
 5522              		.cfi_restore 65
 5523 005c 20F1     		se_addi %r1,16
 5524              	.LCFI246:
 5525              		.cfi_restore 31
 5526              		.cfi_def_cfa_offset 0
 5527              		.loc 1 1468 0
 5528 005e 0006     		se_bctr
 5529              	.LVL198:
GAS LISTING C:\Users\bayra\AppData\Local\Temp\ccxOyyf6.s 			page 98


 5530              		.cfi_endproc
 5531              	.LFE64:
 5532              		.size	vector113, .-vector113
 5533              		.section	.text.vector114,"axv",@progbits
 5534              		.align 1
 5535              		.p2align 4,,15
 5536              		.globl vector114
 5537              		.type	vector114, @function
 5538              	vector114:
 5539              	.LFB65:
 5540              		.loc 1 1481 0
 5541              		.cfi_startproc
 5542 0000 182106F0 		e_stwu %r1,-16(%r1)
 5543              	.LCFI247:
 5544              		.cfi_def_cfa_offset 16
 5545 0004 0080     		se_mflr %r0
 5546 0006 D3F1     		se_stw %r31,12(%r1)
 5547 0008 D501     		se_stw %r0,20(%r1)
 5548              		.cfi_offset 65, 4
 5549              		.cfi_offset 31, -4
 5550              		.loc 1 1485 0
 5551 000a 73E0E000 		e_lis %r31,.LANCHOR0@ha
 5552 000e 1FFF0000 		e_la %r31,.LANCHOR0@l(%r31)
 5553 0012 50FF00F4 		e_lwz %r7,244(%r31)
 5554 0016 2A07     		se_cmpi %r7,0
 5555 0018 7A120022 		e_beq %cr0,.L206
 5556              		.loc 1 1488 0
 5557 001c 4BD5     		se_li %r5,61
 5558 001e 70DEE40A 		e_lis %r6,0xf40a
 5559              		.loc 1 1489 0
 5560 0022 4BD3     		se_li %r3,61
 5561              		.loc 1 1488 0
 5562 0024 6516     		se_bseti %r6,17
 5563 0026 34A6001C 		e_stb %r5,28(%r6)
 5564              		.loc 1 1492 0
 5565 002a C501     		se_lwz %r0,20(%r1)
 5566              		.loc 1 1489 0
 5567 002c C267     		se_lwz %r6,8(%r7)
 5568              		.loc 1 1492 0
 5569 002e C3F1     		se_lwz %r31,12(%r1)
 5570              		.loc 1 1489 0
 5571 0030 C447     		se_lwz %r4,16(%r7)
 5572 0032 00B6     		se_mtctr %r6
 5573              		.loc 1 1492 0
 5574 0034 0090     		se_mtlr %r0
 5575              		.cfi_remember_state
 5576              		.cfi_restore 65
 5577 0036 20F1     		se_addi %r1,16
 5578              	.LCFI248:
 5579              		.cfi_restore 31
 5580              		.cfi_def_cfa_offset 0
 5581              		.loc 1 1489 0
 5582 0038 0006     		se_bctr
 5583              	.LVL199:
 5584              	.L206:
 5585              	.LCFI249:
 5586              		.cfi_restore_state
GAS LISTING C:\Users\bayra\AppData\Local\Temp\ccxOyyf6.s 			page 99


 5587              		.loc 1 1486 0
 5588 003a 78000001 		e_bl irqSysHalt
 5589              	.LVL200:
 5590 003e 50FF00F4 		e_lwz %r7,244(%r31)
 5591              		.loc 1 1488 0
 5592 0042 4BD5     		se_li %r5,61
 5593 0044 70DEE40A 		e_lis %r6,0xf40a
 5594              		.loc 1 1489 0
 5595 0048 4BD3     		se_li %r3,61
 5596              		.loc 1 1488 0
 5597 004a 6516     		se_bseti %r6,17
 5598 004c 34A6001C 		e_stb %r5,28(%r6)
 5599              		.loc 1 1492 0
 5600 0050 C501     		se_lwz %r0,20(%r1)
 5601              		.loc 1 1489 0
 5602 0052 C267     		se_lwz %r6,8(%r7)
 5603              		.loc 1 1492 0
 5604 0054 C3F1     		se_lwz %r31,12(%r1)
 5605              		.loc 1 1489 0
 5606 0056 C447     		se_lwz %r4,16(%r7)
 5607 0058 00B6     		se_mtctr %r6
 5608              		.loc 1 1492 0
 5609 005a 0090     		se_mtlr %r0
 5610              		.cfi_restore 65
 5611 005c 20F1     		se_addi %r1,16
 5612              	.LCFI250:
 5613              		.cfi_restore 31
 5614              		.cfi_def_cfa_offset 0
 5615              		.loc 1 1489 0
 5616 005e 0006     		se_bctr
 5617              	.LVL201:
 5618              		.cfi_endproc
 5619              	.LFE65:
 5620              		.size	vector114, .-vector114
 5621              		.section	.text.vector115,"axv",@progbits
 5622              		.align 1
 5623              		.p2align 4,,15
 5624              		.globl vector115
 5625              		.type	vector115, @function
 5626              	vector115:
 5627              	.LFB66:
 5628              		.loc 1 1502 0
 5629              		.cfi_startproc
 5630 0000 182106F0 		e_stwu %r1,-16(%r1)
 5631              	.LCFI251:
 5632              		.cfi_def_cfa_offset 16
 5633 0004 0080     		se_mflr %r0
 5634 0006 D3F1     		se_stw %r31,12(%r1)
 5635 0008 D501     		se_stw %r0,20(%r1)
 5636              		.cfi_offset 65, 4
 5637              		.cfi_offset 31, -4
 5638              		.loc 1 1506 0
 5639 000a 73E0E000 		e_lis %r31,.LANCHOR0@ha
 5640 000e 1FFF0000 		e_la %r31,.LANCHOR0@l(%r31)
 5641 0012 50FF00F8 		e_lwz %r7,248(%r31)
 5642 0016 2A07     		se_cmpi %r7,0
 5643 0018 7A120022 		e_beq %cr0,.L209
GAS LISTING C:\Users\bayra\AppData\Local\Temp\ccxOyyf6.s 			page 100


 5644              		.loc 1 1509 0
 5645 001c 4BE5     		se_li %r5,62
 5646 001e 70DEE40A 		e_lis %r6,0xf40a
 5647              		.loc 1 1510 0
 5648 0022 4BE3     		se_li %r3,62
 5649              		.loc 1 1509 0
 5650 0024 6516     		se_bseti %r6,17
 5651 0026 34A6001C 		e_stb %r5,28(%r6)
 5652              		.loc 1 1513 0
 5653 002a C501     		se_lwz %r0,20(%r1)
 5654              		.loc 1 1510 0
 5655 002c C267     		se_lwz %r6,8(%r7)
 5656              		.loc 1 1513 0
 5657 002e C3F1     		se_lwz %r31,12(%r1)
 5658              		.loc 1 1510 0
 5659 0030 C447     		se_lwz %r4,16(%r7)
 5660 0032 00B6     		se_mtctr %r6
 5661              		.loc 1 1513 0
 5662 0034 0090     		se_mtlr %r0
 5663              		.cfi_remember_state
 5664              		.cfi_restore 65
 5665 0036 20F1     		se_addi %r1,16
 5666              	.LCFI252:
 5667              		.cfi_restore 31
 5668              		.cfi_def_cfa_offset 0
 5669              		.loc 1 1510 0
 5670 0038 0006     		se_bctr
 5671              	.LVL202:
 5672              	.L209:
 5673              	.LCFI253:
 5674              		.cfi_restore_state
 5675              		.loc 1 1507 0
 5676 003a 78000001 		e_bl irqSysHalt
 5677              	.LVL203:
 5678 003e 50FF00F8 		e_lwz %r7,248(%r31)
 5679              		.loc 1 1509 0
 5680 0042 4BE5     		se_li %r5,62
 5681 0044 70DEE40A 		e_lis %r6,0xf40a
 5682              		.loc 1 1510 0
 5683 0048 4BE3     		se_li %r3,62
 5684              		.loc 1 1509 0
 5685 004a 6516     		se_bseti %r6,17
 5686 004c 34A6001C 		e_stb %r5,28(%r6)
 5687              		.loc 1 1513 0
 5688 0050 C501     		se_lwz %r0,20(%r1)
 5689              		.loc 1 1510 0
 5690 0052 C267     		se_lwz %r6,8(%r7)
 5691              		.loc 1 1513 0
 5692 0054 C3F1     		se_lwz %r31,12(%r1)
 5693              		.loc 1 1510 0
 5694 0056 C447     		se_lwz %r4,16(%r7)
 5695 0058 00B6     		se_mtctr %r6
 5696              		.loc 1 1513 0
 5697 005a 0090     		se_mtlr %r0
 5698              		.cfi_restore 65
 5699 005c 20F1     		se_addi %r1,16
 5700              	.LCFI254:
GAS LISTING C:\Users\bayra\AppData\Local\Temp\ccxOyyf6.s 			page 101


 5701              		.cfi_restore 31
 5702              		.cfi_def_cfa_offset 0
 5703              		.loc 1 1510 0
 5704 005e 0006     		se_bctr
 5705              	.LVL204:
 5706              		.cfi_endproc
 5707              	.LFE66:
 5708              		.size	vector115, .-vector115
 5709              		.section	.text.vector116,"axv",@progbits
 5710              		.align 1
 5711              		.p2align 4,,15
 5712              		.globl vector116
 5713              		.type	vector116, @function
 5714              	vector116:
 5715              	.LFB67:
 5716              		.loc 1 1523 0
 5717              		.cfi_startproc
 5718 0000 182106F0 		e_stwu %r1,-16(%r1)
 5719              	.LCFI255:
 5720              		.cfi_def_cfa_offset 16
 5721 0004 0080     		se_mflr %r0
 5722 0006 D3F1     		se_stw %r31,12(%r1)
 5723 0008 D501     		se_stw %r0,20(%r1)
 5724              		.cfi_offset 65, 4
 5725              		.cfi_offset 31, -4
 5726              		.loc 1 1527 0
 5727 000a 73E0E000 		e_lis %r31,.LANCHOR0@ha
 5728 000e 1FFF0000 		e_la %r31,.LANCHOR0@l(%r31)
 5729 0012 50FF00FC 		e_lwz %r7,252(%r31)
 5730 0016 2A07     		se_cmpi %r7,0
 5731 0018 7A120022 		e_beq %cr0,.L212
 5732              		.loc 1 1530 0
 5733 001c 4BF5     		se_li %r5,63
 5734 001e 70DEE40A 		e_lis %r6,0xf40a
 5735              		.loc 1 1531 0
 5736 0022 4BF3     		se_li %r3,63
 5737              		.loc 1 1530 0
 5738 0024 6516     		se_bseti %r6,17
 5739 0026 34A6001C 		e_stb %r5,28(%r6)
 5740              		.loc 1 1534 0
 5741 002a C501     		se_lwz %r0,20(%r1)
 5742              		.loc 1 1531 0
 5743 002c C267     		se_lwz %r6,8(%r7)
 5744              		.loc 1 1534 0
 5745 002e C3F1     		se_lwz %r31,12(%r1)
 5746              		.loc 1 1531 0
 5747 0030 C447     		se_lwz %r4,16(%r7)
 5748 0032 00B6     		se_mtctr %r6
 5749              		.loc 1 1534 0
 5750 0034 0090     		se_mtlr %r0
 5751              		.cfi_remember_state
 5752              		.cfi_restore 65
 5753 0036 20F1     		se_addi %r1,16
 5754              	.LCFI256:
 5755              		.cfi_restore 31
 5756              		.cfi_def_cfa_offset 0
 5757              		.loc 1 1531 0
GAS LISTING C:\Users\bayra\AppData\Local\Temp\ccxOyyf6.s 			page 102


 5758 0038 0006     		se_bctr
 5759              	.LVL205:
 5760              	.L212:
 5761              	.LCFI257:
 5762              		.cfi_restore_state
 5763              		.loc 1 1528 0
 5764 003a 78000001 		e_bl irqSysHalt
 5765              	.LVL206:
 5766 003e 50FF00FC 		e_lwz %r7,252(%r31)
 5767              		.loc 1 1530 0
 5768 0042 4BF5     		se_li %r5,63
 5769 0044 70DEE40A 		e_lis %r6,0xf40a
 5770              		.loc 1 1531 0
 5771 0048 4BF3     		se_li %r3,63
 5772              		.loc 1 1530 0
 5773 004a 6516     		se_bseti %r6,17
 5774 004c 34A6001C 		e_stb %r5,28(%r6)
 5775              		.loc 1 1534 0
 5776 0050 C501     		se_lwz %r0,20(%r1)
 5777              		.loc 1 1531 0
 5778 0052 C267     		se_lwz %r6,8(%r7)
 5779              		.loc 1 1534 0
 5780 0054 C3F1     		se_lwz %r31,12(%r1)
 5781              		.loc 1 1531 0
 5782 0056 C447     		se_lwz %r4,16(%r7)
 5783 0058 00B6     		se_mtctr %r6
 5784              		.loc 1 1534 0
 5785 005a 0090     		se_mtlr %r0
 5786              		.cfi_restore 65
 5787 005c 20F1     		se_addi %r1,16
 5788              	.LCFI258:
 5789              		.cfi_restore 31
 5790              		.cfi_def_cfa_offset 0
 5791              		.loc 1 1531 0
 5792 005e 0006     		se_bctr
 5793              	.LVL207:
 5794              		.cfi_endproc
 5795              	.LFE67:
 5796              		.size	vector116, .-vector116
 5797              		.section	.text.vector117,"axv",@progbits
 5798              		.align 1
 5799              		.p2align 4,,15
 5800              		.globl vector117
 5801              		.type	vector117, @function
 5802              	vector117:
 5803              	.LFB68:
 5804              		.loc 1 1545 0
 5805              		.cfi_startproc
 5806 0000 182106F0 		e_stwu %r1,-16(%r1)
 5807              	.LCFI259:
 5808              		.cfi_def_cfa_offset 16
 5809 0004 0080     		se_mflr %r0
 5810 0006 D3F1     		se_stw %r31,12(%r1)
 5811 0008 D501     		se_stw %r0,20(%r1)
 5812              		.cfi_offset 65, 4
 5813              		.cfi_offset 31, -4
 5814              		.loc 1 1549 0
GAS LISTING C:\Users\bayra\AppData\Local\Temp\ccxOyyf6.s 			page 103


 5815 000a 73E0E000 		e_lis %r31,.LANCHOR0@ha
 5816 000e 1FFF0000 		e_la %r31,.LANCHOR0@l(%r31)
 5817 0012 50FF0100 		e_lwz %r7,256(%r31)
 5818 0016 2A07     		se_cmpi %r7,0
 5819 0018 7A120020 		e_beq %cr0,.L215
 5820              		.loc 1 1552 0
 5821 001c 70DFE40A 		e_lis %r6,0xfc0a
 5822 0020 4805     		se_li %r5,0
 5823              		.loc 1 1553 0
 5824 0022 4C03     		se_li %r3,64
 5825              		.loc 1 1552 0
 5826 0024 34A6001C 		e_stb %r5,28(%r6)
 5827              		.loc 1 1556 0
 5828 0028 C501     		se_lwz %r0,20(%r1)
 5829              		.loc 1 1553 0
 5830 002a C267     		se_lwz %r6,8(%r7)
 5831              		.loc 1 1556 0
 5832 002c C3F1     		se_lwz %r31,12(%r1)
 5833              		.loc 1 1553 0
 5834 002e C447     		se_lwz %r4,16(%r7)
 5835 0030 00B6     		se_mtctr %r6
 5836              		.loc 1 1556 0
 5837 0032 0090     		se_mtlr %r0
 5838              		.cfi_remember_state
 5839              		.cfi_restore 65
 5840 0034 20F1     		se_addi %r1,16
 5841              	.LCFI260:
 5842              		.cfi_restore 31
 5843              		.cfi_def_cfa_offset 0
 5844              		.loc 1 1553 0
 5845 0036 0006     		se_bctr
 5846              	.LVL208:
 5847              	.L215:
 5848              	.LCFI261:
 5849              		.cfi_restore_state
 5850              		.loc 1 1550 0
 5851 0038 78000001 		e_bl irqSysHalt
 5852              	.LVL209:
 5853 003c 50FF0100 		e_lwz %r7,256(%r31)
 5854              		.loc 1 1552 0
 5855 0040 70DFE40A 		e_lis %r6,0xfc0a
 5856 0044 4805     		se_li %r5,0
 5857              		.loc 1 1553 0
 5858 0046 4C03     		se_li %r3,64
 5859              		.loc 1 1552 0
 5860 0048 34A6001C 		e_stb %r5,28(%r6)
 5861              		.loc 1 1556 0
 5862 004c C501     		se_lwz %r0,20(%r1)
 5863              		.loc 1 1553 0
 5864 004e C267     		se_lwz %r6,8(%r7)
 5865              		.loc 1 1556 0
 5866 0050 C3F1     		se_lwz %r31,12(%r1)
 5867              		.loc 1 1553 0
 5868 0052 C447     		se_lwz %r4,16(%r7)
 5869 0054 00B6     		se_mtctr %r6
 5870              		.loc 1 1556 0
 5871 0056 0090     		se_mtlr %r0
GAS LISTING C:\Users\bayra\AppData\Local\Temp\ccxOyyf6.s 			page 104


 5872              		.cfi_restore 65
 5873 0058 20F1     		se_addi %r1,16
 5874              	.LCFI262:
 5875              		.cfi_restore 31
 5876              		.cfi_def_cfa_offset 0
 5877              		.loc 1 1553 0
 5878 005a 0006     		se_bctr
 5879              	.LVL210:
 5880              		.cfi_endproc
 5881              	.LFE68:
 5882              		.size	vector117, .-vector117
 5883              		.section	.text.vector118,"axv",@progbits
 5884              		.align 1
 5885              		.p2align 4,,15
 5886              		.globl vector118
 5887              		.type	vector118, @function
 5888              	vector118:
 5889              	.LFB69:
 5890              		.loc 1 1566 0
 5891              		.cfi_startproc
 5892 0000 182106F0 		e_stwu %r1,-16(%r1)
 5893              	.LCFI263:
 5894              		.cfi_def_cfa_offset 16
 5895 0004 0080     		se_mflr %r0
 5896 0006 D3F1     		se_stw %r31,12(%r1)
 5897 0008 D501     		se_stw %r0,20(%r1)
 5898              		.cfi_offset 65, 4
 5899              		.cfi_offset 31, -4
 5900              		.loc 1 1570 0
 5901 000a 73E0E000 		e_lis %r31,.LANCHOR0@ha
 5902 000e 1FFF0000 		e_la %r31,.LANCHOR0@l(%r31)
 5903 0012 50FF0104 		e_lwz %r7,260(%r31)
 5904 0016 2A07     		se_cmpi %r7,0
 5905 0018 7A120020 		e_beq %cr0,.L218
 5906              		.loc 1 1573 0
 5907 001c 70DFE40A 		e_lis %r6,0xfc0a
 5908 0020 4815     		se_li %r5,1
 5909              		.loc 1 1574 0
 5910 0022 4C13     		se_li %r3,65
 5911              		.loc 1 1573 0
 5912 0024 34A6001C 		e_stb %r5,28(%r6)
 5913              		.loc 1 1577 0
 5914 0028 C501     		se_lwz %r0,20(%r1)
 5915              		.loc 1 1574 0
 5916 002a C267     		se_lwz %r6,8(%r7)
 5917              		.loc 1 1577 0
 5918 002c C3F1     		se_lwz %r31,12(%r1)
 5919              		.loc 1 1574 0
 5920 002e C447     		se_lwz %r4,16(%r7)
 5921 0030 00B6     		se_mtctr %r6
 5922              		.loc 1 1577 0
 5923 0032 0090     		se_mtlr %r0
 5924              		.cfi_remember_state
 5925              		.cfi_restore 65
 5926 0034 20F1     		se_addi %r1,16
 5927              	.LCFI264:
 5928              		.cfi_restore 31
GAS LISTING C:\Users\bayra\AppData\Local\Temp\ccxOyyf6.s 			page 105


 5929              		.cfi_def_cfa_offset 0
 5930              		.loc 1 1574 0
 5931 0036 0006     		se_bctr
 5932              	.LVL211:
 5933              	.L218:
 5934              	.LCFI265:
 5935              		.cfi_restore_state
 5936              		.loc 1 1571 0
 5937 0038 78000001 		e_bl irqSysHalt
 5938              	.LVL212:
 5939 003c 50FF0104 		e_lwz %r7,260(%r31)
 5940              		.loc 1 1573 0
 5941 0040 70DFE40A 		e_lis %r6,0xfc0a
 5942 0044 4815     		se_li %r5,1
 5943              		.loc 1 1574 0
 5944 0046 4C13     		se_li %r3,65
 5945              		.loc 1 1573 0
 5946 0048 34A6001C 		e_stb %r5,28(%r6)
 5947              		.loc 1 1577 0
 5948 004c C501     		se_lwz %r0,20(%r1)
 5949              		.loc 1 1574 0
 5950 004e C267     		se_lwz %r6,8(%r7)
 5951              		.loc 1 1577 0
 5952 0050 C3F1     		se_lwz %r31,12(%r1)
 5953              		.loc 1 1574 0
 5954 0052 C447     		se_lwz %r4,16(%r7)
 5955 0054 00B6     		se_mtctr %r6
 5956              		.loc 1 1577 0
 5957 0056 0090     		se_mtlr %r0
 5958              		.cfi_restore 65
 5959 0058 20F1     		se_addi %r1,16
 5960              	.LCFI266:
 5961              		.cfi_restore 31
 5962              		.cfi_def_cfa_offset 0
 5963              		.loc 1 1574 0
 5964 005a 0006     		se_bctr
 5965              	.LVL213:
 5966              		.cfi_endproc
 5967              	.LFE69:
 5968              		.size	vector118, .-vector118
 5969              		.section	.text.vector119,"axv",@progbits
 5970              		.align 1
 5971              		.p2align 4,,15
 5972              		.globl vector119
 5973              		.type	vector119, @function
 5974              	vector119:
 5975              	.LFB70:
 5976              		.loc 1 1587 0
 5977              		.cfi_startproc
 5978 0000 182106F0 		e_stwu %r1,-16(%r1)
 5979              	.LCFI267:
 5980              		.cfi_def_cfa_offset 16
 5981 0004 0080     		se_mflr %r0
 5982 0006 D3F1     		se_stw %r31,12(%r1)
 5983 0008 D501     		se_stw %r0,20(%r1)
 5984              		.cfi_offset 65, 4
 5985              		.cfi_offset 31, -4
GAS LISTING C:\Users\bayra\AppData\Local\Temp\ccxOyyf6.s 			page 106


 5986              		.loc 1 1591 0
 5987 000a 73E0E000 		e_lis %r31,.LANCHOR0@ha
 5988 000e 1FFF0000 		e_la %r31,.LANCHOR0@l(%r31)
 5989 0012 50FF0108 		e_lwz %r7,264(%r31)
 5990 0016 2A07     		se_cmpi %r7,0
 5991 0018 7A120020 		e_beq %cr0,.L221
 5992              		.loc 1 1594 0
 5993 001c 70DFE40A 		e_lis %r6,0xfc0a
 5994 0020 4825     		se_li %r5,2
 5995              		.loc 1 1595 0
 5996 0022 4C23     		se_li %r3,66
 5997              		.loc 1 1594 0
 5998 0024 34A6001C 		e_stb %r5,28(%r6)
 5999              		.loc 1 1598 0
 6000 0028 C501     		se_lwz %r0,20(%r1)
 6001              		.loc 1 1595 0
 6002 002a C267     		se_lwz %r6,8(%r7)
 6003              		.loc 1 1598 0
 6004 002c C3F1     		se_lwz %r31,12(%r1)
 6005              		.loc 1 1595 0
 6006 002e C447     		se_lwz %r4,16(%r7)
 6007 0030 00B6     		se_mtctr %r6
 6008              		.loc 1 1598 0
 6009 0032 0090     		se_mtlr %r0
 6010              		.cfi_remember_state
 6011              		.cfi_restore 65
 6012 0034 20F1     		se_addi %r1,16
 6013              	.LCFI268:
 6014              		.cfi_restore 31
 6015              		.cfi_def_cfa_offset 0
 6016              		.loc 1 1595 0
 6017 0036 0006     		se_bctr
 6018              	.LVL214:
 6019              	.L221:
 6020              	.LCFI269:
 6021              		.cfi_restore_state
 6022              		.loc 1 1592 0
 6023 0038 78000001 		e_bl irqSysHalt
 6024              	.LVL215:
 6025 003c 50FF0108 		e_lwz %r7,264(%r31)
 6026              		.loc 1 1594 0
 6027 0040 70DFE40A 		e_lis %r6,0xfc0a
 6028 0044 4825     		se_li %r5,2
 6029              		.loc 1 1595 0
 6030 0046 4C23     		se_li %r3,66
 6031              		.loc 1 1594 0
 6032 0048 34A6001C 		e_stb %r5,28(%r6)
 6033              		.loc 1 1598 0
 6034 004c C501     		se_lwz %r0,20(%r1)
 6035              		.loc 1 1595 0
 6036 004e C267     		se_lwz %r6,8(%r7)
 6037              		.loc 1 1598 0
 6038 0050 C3F1     		se_lwz %r31,12(%r1)
 6039              		.loc 1 1595 0
 6040 0052 C447     		se_lwz %r4,16(%r7)
 6041 0054 00B6     		se_mtctr %r6
 6042              		.loc 1 1598 0
GAS LISTING C:\Users\bayra\AppData\Local\Temp\ccxOyyf6.s 			page 107


 6043 0056 0090     		se_mtlr %r0
 6044              		.cfi_restore 65
 6045 0058 20F1     		se_addi %r1,16
 6046              	.LCFI270:
 6047              		.cfi_restore 31
 6048              		.cfi_def_cfa_offset 0
 6049              		.loc 1 1595 0
 6050 005a 0006     		se_bctr
 6051              	.LVL216:
 6052              		.cfi_endproc
 6053              	.LFE70:
 6054              		.size	vector119, .-vector119
 6055              		.section	.text.vector120,"axv",@progbits
 6056              		.align 1
 6057              		.p2align 4,,15
 6058              		.globl vector120
 6059              		.type	vector120, @function
 6060              	vector120:
 6061              	.LFB71:
 6062              		.loc 1 1608 0
 6063              		.cfi_startproc
 6064 0000 182106F0 		e_stwu %r1,-16(%r1)
 6065              	.LCFI271:
 6066              		.cfi_def_cfa_offset 16
 6067 0004 0080     		se_mflr %r0
 6068 0006 D3F1     		se_stw %r31,12(%r1)
 6069 0008 D501     		se_stw %r0,20(%r1)
 6070              		.cfi_offset 65, 4
 6071              		.cfi_offset 31, -4
 6072              		.loc 1 1612 0
 6073 000a 73E0E000 		e_lis %r31,.LANCHOR0@ha
 6074 000e 1FFF0000 		e_la %r31,.LANCHOR0@l(%r31)
 6075 0012 50FF010C 		e_lwz %r7,268(%r31)
 6076 0016 2A07     		se_cmpi %r7,0
 6077 0018 7A120020 		e_beq %cr0,.L224
 6078              		.loc 1 1615 0
 6079 001c 70DFE40A 		e_lis %r6,0xfc0a
 6080 0020 4835     		se_li %r5,3
 6081              		.loc 1 1616 0
 6082 0022 4C33     		se_li %r3,67
 6083              		.loc 1 1615 0
 6084 0024 34A6001C 		e_stb %r5,28(%r6)
 6085              		.loc 1 1619 0
 6086 0028 C501     		se_lwz %r0,20(%r1)
 6087              		.loc 1 1616 0
 6088 002a C267     		se_lwz %r6,8(%r7)
 6089              		.loc 1 1619 0
 6090 002c C3F1     		se_lwz %r31,12(%r1)
 6091              		.loc 1 1616 0
 6092 002e C447     		se_lwz %r4,16(%r7)
 6093 0030 00B6     		se_mtctr %r6
 6094              		.loc 1 1619 0
 6095 0032 0090     		se_mtlr %r0
 6096              		.cfi_remember_state
 6097              		.cfi_restore 65
 6098 0034 20F1     		se_addi %r1,16
 6099              	.LCFI272:
GAS LISTING C:\Users\bayra\AppData\Local\Temp\ccxOyyf6.s 			page 108


 6100              		.cfi_restore 31
 6101              		.cfi_def_cfa_offset 0
 6102              		.loc 1 1616 0
 6103 0036 0006     		se_bctr
 6104              	.LVL217:
 6105              	.L224:
 6106              	.LCFI273:
 6107              		.cfi_restore_state
 6108              		.loc 1 1613 0
 6109 0038 78000001 		e_bl irqSysHalt
 6110              	.LVL218:
 6111 003c 50FF010C 		e_lwz %r7,268(%r31)
 6112              		.loc 1 1615 0
 6113 0040 70DFE40A 		e_lis %r6,0xfc0a
 6114 0044 4835     		se_li %r5,3
 6115              		.loc 1 1616 0
 6116 0046 4C33     		se_li %r3,67
 6117              		.loc 1 1615 0
 6118 0048 34A6001C 		e_stb %r5,28(%r6)
 6119              		.loc 1 1619 0
 6120 004c C501     		se_lwz %r0,20(%r1)
 6121              		.loc 1 1616 0
 6122 004e C267     		se_lwz %r6,8(%r7)
 6123              		.loc 1 1619 0
 6124 0050 C3F1     		se_lwz %r31,12(%r1)
 6125              		.loc 1 1616 0
 6126 0052 C447     		se_lwz %r4,16(%r7)
 6127 0054 00B6     		se_mtctr %r6
 6128              		.loc 1 1619 0
 6129 0056 0090     		se_mtlr %r0
 6130              		.cfi_restore 65
 6131 0058 20F1     		se_addi %r1,16
 6132              	.LCFI274:
 6133              		.cfi_restore 31
 6134              		.cfi_def_cfa_offset 0
 6135              		.loc 1 1616 0
 6136 005a 0006     		se_bctr
 6137              	.LVL219:
 6138              		.cfi_endproc
 6139              	.LFE71:
 6140              		.size	vector120, .-vector120
 6141              		.section	.text.vector121,"axv",@progbits
 6142              		.align 1
 6143              		.p2align 4,,15
 6144              		.globl vector121
 6145              		.type	vector121, @function
 6146              	vector121:
 6147              	.LFB72:
 6148              		.loc 1 1629 0
 6149              		.cfi_startproc
 6150 0000 182106F0 		e_stwu %r1,-16(%r1)
 6151              	.LCFI275:
 6152              		.cfi_def_cfa_offset 16
 6153 0004 0080     		se_mflr %r0
 6154 0006 D3F1     		se_stw %r31,12(%r1)
 6155 0008 D501     		se_stw %r0,20(%r1)
 6156              		.cfi_offset 65, 4
GAS LISTING C:\Users\bayra\AppData\Local\Temp\ccxOyyf6.s 			page 109


 6157              		.cfi_offset 31, -4
 6158              		.loc 1 1633 0
 6159 000a 73E0E000 		e_lis %r31,.LANCHOR0@ha
 6160 000e 1FFF0000 		e_la %r31,.LANCHOR0@l(%r31)
 6161 0012 50FF0110 		e_lwz %r7,272(%r31)
 6162 0016 2A07     		se_cmpi %r7,0
 6163 0018 7A120020 		e_beq %cr0,.L227
 6164              		.loc 1 1636 0
 6165 001c 70DFE40A 		e_lis %r6,0xfc0a
 6166 0020 4845     		se_li %r5,4
 6167              		.loc 1 1637 0
 6168 0022 4C43     		se_li %r3,68
 6169              		.loc 1 1636 0
 6170 0024 34A6001C 		e_stb %r5,28(%r6)
 6171              		.loc 1 1640 0
 6172 0028 C501     		se_lwz %r0,20(%r1)
 6173              		.loc 1 1637 0
 6174 002a C267     		se_lwz %r6,8(%r7)
 6175              		.loc 1 1640 0
 6176 002c C3F1     		se_lwz %r31,12(%r1)
 6177              		.loc 1 1637 0
 6178 002e C447     		se_lwz %r4,16(%r7)
 6179 0030 00B6     		se_mtctr %r6
 6180              		.loc 1 1640 0
 6181 0032 0090     		se_mtlr %r0
 6182              		.cfi_remember_state
 6183              		.cfi_restore 65
 6184 0034 20F1     		se_addi %r1,16
 6185              	.LCFI276:
 6186              		.cfi_restore 31
 6187              		.cfi_def_cfa_offset 0
 6188              		.loc 1 1637 0
 6189 0036 0006     		se_bctr
 6190              	.LVL220:
 6191              	.L227:
 6192              	.LCFI277:
 6193              		.cfi_restore_state
 6194              		.loc 1 1634 0
 6195 0038 78000001 		e_bl irqSysHalt
 6196              	.LVL221:
 6197 003c 50FF0110 		e_lwz %r7,272(%r31)
 6198              		.loc 1 1636 0
 6199 0040 70DFE40A 		e_lis %r6,0xfc0a
 6200 0044 4845     		se_li %r5,4
 6201              		.loc 1 1637 0
 6202 0046 4C43     		se_li %r3,68
 6203              		.loc 1 1636 0
 6204 0048 34A6001C 		e_stb %r5,28(%r6)
 6205              		.loc 1 1640 0
 6206 004c C501     		se_lwz %r0,20(%r1)
 6207              		.loc 1 1637 0
 6208 004e C267     		se_lwz %r6,8(%r7)
 6209              		.loc 1 1640 0
 6210 0050 C3F1     		se_lwz %r31,12(%r1)
 6211              		.loc 1 1637 0
 6212 0052 C447     		se_lwz %r4,16(%r7)
 6213 0054 00B6     		se_mtctr %r6
GAS LISTING C:\Users\bayra\AppData\Local\Temp\ccxOyyf6.s 			page 110


 6214              		.loc 1 1640 0
 6215 0056 0090     		se_mtlr %r0
 6216              		.cfi_restore 65
 6217 0058 20F1     		se_addi %r1,16
 6218              	.LCFI278:
 6219              		.cfi_restore 31
 6220              		.cfi_def_cfa_offset 0
 6221              		.loc 1 1637 0
 6222 005a 0006     		se_bctr
 6223              	.LVL222:
 6224              		.cfi_endproc
 6225              	.LFE72:
 6226              		.size	vector121, .-vector121
 6227              		.section	.text.vector122,"axv",@progbits
 6228              		.align 1
 6229              		.p2align 4,,15
 6230              		.globl vector122
 6231              		.type	vector122, @function
 6232              	vector122:
 6233              	.LFB73:
 6234              		.loc 1 1650 0
 6235              		.cfi_startproc
 6236 0000 182106F0 		e_stwu %r1,-16(%r1)
 6237              	.LCFI279:
 6238              		.cfi_def_cfa_offset 16
 6239 0004 0080     		se_mflr %r0
 6240 0006 D3F1     		se_stw %r31,12(%r1)
 6241 0008 D501     		se_stw %r0,20(%r1)
 6242              		.cfi_offset 65, 4
 6243              		.cfi_offset 31, -4
 6244              		.loc 1 1654 0
 6245 000a 73E0E000 		e_lis %r31,.LANCHOR0@ha
 6246 000e 1FFF0000 		e_la %r31,.LANCHOR0@l(%r31)
 6247 0012 50FF0114 		e_lwz %r7,276(%r31)
 6248 0016 2A07     		se_cmpi %r7,0
 6249 0018 7A120020 		e_beq %cr0,.L230
 6250              		.loc 1 1657 0
 6251 001c 70DFE40A 		e_lis %r6,0xfc0a
 6252 0020 4855     		se_li %r5,5
 6253              		.loc 1 1658 0
 6254 0022 4C53     		se_li %r3,69
 6255              		.loc 1 1657 0
 6256 0024 34A6001C 		e_stb %r5,28(%r6)
 6257              		.loc 1 1661 0
 6258 0028 C501     		se_lwz %r0,20(%r1)
 6259              		.loc 1 1658 0
 6260 002a C267     		se_lwz %r6,8(%r7)
 6261              		.loc 1 1661 0
 6262 002c C3F1     		se_lwz %r31,12(%r1)
 6263              		.loc 1 1658 0
 6264 002e C447     		se_lwz %r4,16(%r7)
 6265 0030 00B6     		se_mtctr %r6
 6266              		.loc 1 1661 0
 6267 0032 0090     		se_mtlr %r0
 6268              		.cfi_remember_state
 6269              		.cfi_restore 65
 6270 0034 20F1     		se_addi %r1,16
GAS LISTING C:\Users\bayra\AppData\Local\Temp\ccxOyyf6.s 			page 111


 6271              	.LCFI280:
 6272              		.cfi_restore 31
 6273              		.cfi_def_cfa_offset 0
 6274              		.loc 1 1658 0
 6275 0036 0006     		se_bctr
 6276              	.LVL223:
 6277              	.L230:
 6278              	.LCFI281:
 6279              		.cfi_restore_state
 6280              		.loc 1 1655 0
 6281 0038 78000001 		e_bl irqSysHalt
 6282              	.LVL224:
 6283 003c 50FF0114 		e_lwz %r7,276(%r31)
 6284              		.loc 1 1657 0
 6285 0040 70DFE40A 		e_lis %r6,0xfc0a
 6286 0044 4855     		se_li %r5,5
 6287              		.loc 1 1658 0
 6288 0046 4C53     		se_li %r3,69
 6289              		.loc 1 1657 0
 6290 0048 34A6001C 		e_stb %r5,28(%r6)
 6291              		.loc 1 1661 0
 6292 004c C501     		se_lwz %r0,20(%r1)
 6293              		.loc 1 1658 0
 6294 004e C267     		se_lwz %r6,8(%r7)
 6295              		.loc 1 1661 0
 6296 0050 C3F1     		se_lwz %r31,12(%r1)
 6297              		.loc 1 1658 0
 6298 0052 C447     		se_lwz %r4,16(%r7)
 6299 0054 00B6     		se_mtctr %r6
 6300              		.loc 1 1661 0
 6301 0056 0090     		se_mtlr %r0
 6302              		.cfi_restore 65
 6303 0058 20F1     		se_addi %r1,16
 6304              	.LCFI282:
 6305              		.cfi_restore 31
 6306              		.cfi_def_cfa_offset 0
 6307              		.loc 1 1658 0
 6308 005a 0006     		se_bctr
 6309              	.LVL225:
 6310              		.cfi_endproc
 6311              	.LFE73:
 6312              		.size	vector122, .-vector122
 6313              		.section	.text.vector123,"axv",@progbits
 6314              		.align 1
 6315              		.p2align 4,,15
 6316              		.globl vector123
 6317              		.type	vector123, @function
 6318              	vector123:
 6319              	.LFB74:
 6320              		.loc 1 1671 0
 6321              		.cfi_startproc
 6322 0000 182106F0 		e_stwu %r1,-16(%r1)
 6323              	.LCFI283:
 6324              		.cfi_def_cfa_offset 16
 6325 0004 0080     		se_mflr %r0
 6326 0006 D3F1     		se_stw %r31,12(%r1)
 6327 0008 D501     		se_stw %r0,20(%r1)
GAS LISTING C:\Users\bayra\AppData\Local\Temp\ccxOyyf6.s 			page 112


 6328              		.cfi_offset 65, 4
 6329              		.cfi_offset 31, -4
 6330              		.loc 1 1675 0
 6331 000a 73E0E000 		e_lis %r31,.LANCHOR0@ha
 6332 000e 1FFF0000 		e_la %r31,.LANCHOR0@l(%r31)
 6333 0012 50FF0118 		e_lwz %r7,280(%r31)
 6334 0016 2A07     		se_cmpi %r7,0
 6335 0018 7A120020 		e_beq %cr0,.L233
 6336              		.loc 1 1678 0
 6337 001c 70DFE40A 		e_lis %r6,0xfc0a
 6338 0020 4865     		se_li %r5,6
 6339              		.loc 1 1679 0
 6340 0022 4C63     		se_li %r3,70
 6341              		.loc 1 1678 0
 6342 0024 34A6001C 		e_stb %r5,28(%r6)
 6343              		.loc 1 1682 0
 6344 0028 C501     		se_lwz %r0,20(%r1)
 6345              		.loc 1 1679 0
 6346 002a C267     		se_lwz %r6,8(%r7)
 6347              		.loc 1 1682 0
 6348 002c C3F1     		se_lwz %r31,12(%r1)
 6349              		.loc 1 1679 0
 6350 002e C447     		se_lwz %r4,16(%r7)
 6351 0030 00B6     		se_mtctr %r6
 6352              		.loc 1 1682 0
 6353 0032 0090     		se_mtlr %r0
 6354              		.cfi_remember_state
 6355              		.cfi_restore 65
 6356 0034 20F1     		se_addi %r1,16
 6357              	.LCFI284:
 6358              		.cfi_restore 31
 6359              		.cfi_def_cfa_offset 0
 6360              		.loc 1 1679 0
 6361 0036 0006     		se_bctr
 6362              	.LVL226:
 6363              	.L233:
 6364              	.LCFI285:
 6365              		.cfi_restore_state
 6366              		.loc 1 1676 0
 6367 0038 78000001 		e_bl irqSysHalt
 6368              	.LVL227:
 6369 003c 50FF0118 		e_lwz %r7,280(%r31)
 6370              		.loc 1 1678 0
 6371 0040 70DFE40A 		e_lis %r6,0xfc0a
 6372 0044 4865     		se_li %r5,6
 6373              		.loc 1 1679 0
 6374 0046 4C63     		se_li %r3,70
 6375              		.loc 1 1678 0
 6376 0048 34A6001C 		e_stb %r5,28(%r6)
 6377              		.loc 1 1682 0
 6378 004c C501     		se_lwz %r0,20(%r1)
 6379              		.loc 1 1679 0
 6380 004e C267     		se_lwz %r6,8(%r7)
 6381              		.loc 1 1682 0
 6382 0050 C3F1     		se_lwz %r31,12(%r1)
 6383              		.loc 1 1679 0
 6384 0052 C447     		se_lwz %r4,16(%r7)
GAS LISTING C:\Users\bayra\AppData\Local\Temp\ccxOyyf6.s 			page 113


 6385 0054 00B6     		se_mtctr %r6
 6386              		.loc 1 1682 0
 6387 0056 0090     		se_mtlr %r0
 6388              		.cfi_restore 65
 6389 0058 20F1     		se_addi %r1,16
 6390              	.LCFI286:
 6391              		.cfi_restore 31
 6392              		.cfi_def_cfa_offset 0
 6393              		.loc 1 1679 0
 6394 005a 0006     		se_bctr
 6395              	.LVL228:
 6396              		.cfi_endproc
 6397              	.LFE74:
 6398              		.size	vector123, .-vector123
 6399              		.section	.text.vector124,"axv",@progbits
 6400              		.align 1
 6401              		.p2align 4,,15
 6402              		.globl vector124
 6403              		.type	vector124, @function
 6404              	vector124:
 6405              	.LFB75:
 6406              		.loc 1 1692 0
 6407              		.cfi_startproc
 6408 0000 182106F0 		e_stwu %r1,-16(%r1)
 6409              	.LCFI287:
 6410              		.cfi_def_cfa_offset 16
 6411 0004 0080     		se_mflr %r0
 6412 0006 D3F1     		se_stw %r31,12(%r1)
 6413 0008 D501     		se_stw %r0,20(%r1)
 6414              		.cfi_offset 65, 4
 6415              		.cfi_offset 31, -4
 6416              		.loc 1 1696 0
 6417 000a 73E0E000 		e_lis %r31,.LANCHOR0@ha
 6418 000e 1FFF0000 		e_la %r31,.LANCHOR0@l(%r31)
 6419 0012 50FF011C 		e_lwz %r7,284(%r31)
 6420 0016 2A07     		se_cmpi %r7,0
 6421 0018 7A120020 		e_beq %cr0,.L236
 6422              		.loc 1 1699 0
 6423 001c 70DFE40A 		e_lis %r6,0xfc0a
 6424 0020 4875     		se_li %r5,7
 6425              		.loc 1 1700 0
 6426 0022 4C73     		se_li %r3,71
 6427              		.loc 1 1699 0
 6428 0024 34A6001C 		e_stb %r5,28(%r6)
 6429              		.loc 1 1703 0
 6430 0028 C501     		se_lwz %r0,20(%r1)
 6431              		.loc 1 1700 0
 6432 002a C267     		se_lwz %r6,8(%r7)
 6433              		.loc 1 1703 0
 6434 002c C3F1     		se_lwz %r31,12(%r1)
 6435              		.loc 1 1700 0
 6436 002e C447     		se_lwz %r4,16(%r7)
 6437 0030 00B6     		se_mtctr %r6
 6438              		.loc 1 1703 0
 6439 0032 0090     		se_mtlr %r0
 6440              		.cfi_remember_state
 6441              		.cfi_restore 65
GAS LISTING C:\Users\bayra\AppData\Local\Temp\ccxOyyf6.s 			page 114


 6442 0034 20F1     		se_addi %r1,16
 6443              	.LCFI288:
 6444              		.cfi_restore 31
 6445              		.cfi_def_cfa_offset 0
 6446              		.loc 1 1700 0
 6447 0036 0006     		se_bctr
 6448              	.LVL229:
 6449              	.L236:
 6450              	.LCFI289:
 6451              		.cfi_restore_state
 6452              		.loc 1 1697 0
 6453 0038 78000001 		e_bl irqSysHalt
 6454              	.LVL230:
 6455 003c 50FF011C 		e_lwz %r7,284(%r31)
 6456              		.loc 1 1699 0
 6457 0040 70DFE40A 		e_lis %r6,0xfc0a
 6458 0044 4875     		se_li %r5,7
 6459              		.loc 1 1700 0
 6460 0046 4C73     		se_li %r3,71
 6461              		.loc 1 1699 0
 6462 0048 34A6001C 		e_stb %r5,28(%r6)
 6463              		.loc 1 1703 0
 6464 004c C501     		se_lwz %r0,20(%r1)
 6465              		.loc 1 1700 0
 6466 004e C267     		se_lwz %r6,8(%r7)
 6467              		.loc 1 1703 0
 6468 0050 C3F1     		se_lwz %r31,12(%r1)
 6469              		.loc 1 1700 0
 6470 0052 C447     		se_lwz %r4,16(%r7)
 6471 0054 00B6     		se_mtctr %r6
 6472              		.loc 1 1703 0
 6473 0056 0090     		se_mtlr %r0
 6474              		.cfi_restore 65
 6475 0058 20F1     		se_addi %r1,16
 6476              	.LCFI290:
 6477              		.cfi_restore 31
 6478              		.cfi_def_cfa_offset 0
 6479              		.loc 1 1700 0
 6480 005a 0006     		se_bctr
 6481              	.LVL231:
 6482              		.cfi_endproc
 6483              	.LFE75:
 6484              		.size	vector124, .-vector124
 6485              		.section	.text.vector125,"axv",@progbits
 6486              		.align 1
 6487              		.p2align 4,,15
 6488              		.globl vector125
 6489              		.type	vector125, @function
 6490              	vector125:
 6491              	.LFB76:
 6492              		.loc 1 1713 0
 6493              		.cfi_startproc
 6494 0000 182106F0 		e_stwu %r1,-16(%r1)
 6495              	.LCFI291:
 6496              		.cfi_def_cfa_offset 16
 6497 0004 0080     		se_mflr %r0
 6498 0006 D3F1     		se_stw %r31,12(%r1)
GAS LISTING C:\Users\bayra\AppData\Local\Temp\ccxOyyf6.s 			page 115


 6499 0008 D501     		se_stw %r0,20(%r1)
 6500              		.cfi_offset 65, 4
 6501              		.cfi_offset 31, -4
 6502              		.loc 1 1717 0
 6503 000a 73E0E000 		e_lis %r31,.LANCHOR0@ha
 6504 000e 1FFF0000 		e_la %r31,.LANCHOR0@l(%r31)
 6505 0012 50FF0120 		e_lwz %r7,288(%r31)
 6506 0016 2A07     		se_cmpi %r7,0
 6507 0018 7A120020 		e_beq %cr0,.L239
 6508              		.loc 1 1720 0
 6509 001c 70DFE40A 		e_lis %r6,0xfc0a
 6510 0020 4885     		se_li %r5,8
 6511              		.loc 1 1721 0
 6512 0022 4C83     		se_li %r3,72
 6513              		.loc 1 1720 0
 6514 0024 34A6001C 		e_stb %r5,28(%r6)
 6515              		.loc 1 1724 0
 6516 0028 C501     		se_lwz %r0,20(%r1)
 6517              		.loc 1 1721 0
 6518 002a C267     		se_lwz %r6,8(%r7)
 6519              		.loc 1 1724 0
 6520 002c C3F1     		se_lwz %r31,12(%r1)
 6521              		.loc 1 1721 0
 6522 002e C447     		se_lwz %r4,16(%r7)
 6523 0030 00B6     		se_mtctr %r6
 6524              		.loc 1 1724 0
 6525 0032 0090     		se_mtlr %r0
 6526              		.cfi_remember_state
 6527              		.cfi_restore 65
 6528 0034 20F1     		se_addi %r1,16
 6529              	.LCFI292:
 6530              		.cfi_restore 31
 6531              		.cfi_def_cfa_offset 0
 6532              		.loc 1 1721 0
 6533 0036 0006     		se_bctr
 6534              	.LVL232:
 6535              	.L239:
 6536              	.LCFI293:
 6537              		.cfi_restore_state
 6538              		.loc 1 1718 0
 6539 0038 78000001 		e_bl irqSysHalt
 6540              	.LVL233:
 6541 003c 50FF0120 		e_lwz %r7,288(%r31)
 6542              		.loc 1 1720 0
 6543 0040 70DFE40A 		e_lis %r6,0xfc0a
 6544 0044 4885     		se_li %r5,8
 6545              		.loc 1 1721 0
 6546 0046 4C83     		se_li %r3,72
 6547              		.loc 1 1720 0
 6548 0048 34A6001C 		e_stb %r5,28(%r6)
 6549              		.loc 1 1724 0
 6550 004c C501     		se_lwz %r0,20(%r1)
 6551              		.loc 1 1721 0
 6552 004e C267     		se_lwz %r6,8(%r7)
 6553              		.loc 1 1724 0
 6554 0050 C3F1     		se_lwz %r31,12(%r1)
 6555              		.loc 1 1721 0
GAS LISTING C:\Users\bayra\AppData\Local\Temp\ccxOyyf6.s 			page 116


 6556 0052 C447     		se_lwz %r4,16(%r7)
 6557 0054 00B6     		se_mtctr %r6
 6558              		.loc 1 1724 0
 6559 0056 0090     		se_mtlr %r0
 6560              		.cfi_restore 65
 6561 0058 20F1     		se_addi %r1,16
 6562              	.LCFI294:
 6563              		.cfi_restore 31
 6564              		.cfi_def_cfa_offset 0
 6565              		.loc 1 1721 0
 6566 005a 0006     		se_bctr
 6567              	.LVL234:
 6568              		.cfi_endproc
 6569              	.LFE76:
 6570              		.size	vector125, .-vector125
 6571              		.section	.text.vector126,"axv",@progbits
 6572              		.align 1
 6573              		.p2align 4,,15
 6574              		.globl vector126
 6575              		.type	vector126, @function
 6576              	vector126:
 6577              	.LFB77:
 6578              		.loc 1 1734 0
 6579              		.cfi_startproc
 6580 0000 182106F0 		e_stwu %r1,-16(%r1)
 6581              	.LCFI295:
 6582              		.cfi_def_cfa_offset 16
 6583 0004 0080     		se_mflr %r0
 6584 0006 D3F1     		se_stw %r31,12(%r1)
 6585 0008 D501     		se_stw %r0,20(%r1)
 6586              		.cfi_offset 65, 4
 6587              		.cfi_offset 31, -4
 6588              		.loc 1 1738 0
 6589 000a 73E0E000 		e_lis %r31,.LANCHOR0@ha
 6590 000e 1FFF0000 		e_la %r31,.LANCHOR0@l(%r31)
 6591 0012 50FF0124 		e_lwz %r7,292(%r31)
 6592 0016 2A07     		se_cmpi %r7,0
 6593 0018 7A120020 		e_beq %cr0,.L242
 6594              		.loc 1 1741 0
 6595 001c 70DFE40A 		e_lis %r6,0xfc0a
 6596 0020 4895     		se_li %r5,9
 6597              		.loc 1 1742 0
 6598 0022 4C93     		se_li %r3,73
 6599              		.loc 1 1741 0
 6600 0024 34A6001C 		e_stb %r5,28(%r6)
 6601              		.loc 1 1745 0
 6602 0028 C501     		se_lwz %r0,20(%r1)
 6603              		.loc 1 1742 0
