Archive member included to satisfy reference by file (symbol)

c:/spc5studio-6.0/eclipse/plugins/com.st.tools.spc5.tools.gnu.gcc.ppcvle.win32_4.9.4.20200908161514/toolchain/bin/../lib/gcc/powerpc-eabivle/4.9.4/../../../../powerpc-eabivle/lib/e200z4\libc.a(lib_a-memcpy.o)
                              build/obj/can_lld.o (memcpy)
c:/spc5studio-6.0/eclipse/plugins/com.st.tools.spc5.tools.gnu.gcc.ppcvle.win32_4.9.4.20200908161514/toolchain/bin/../lib/gcc/powerpc-eabivle/4.9.4/../../../../powerpc-eabivle/lib/e200z4\libc.a(lib_a-memset.o)
                              build/obj/osal.o (memset)
c:/spc5studio-6.0/eclipse/plugins/com.st.tools.spc5.tools.gnu.gcc.ppcvle.win32_4.9.4.20200908161514/toolchain/bin/../lib/gcc/powerpc-eabivle/4.9.4/e200z4\libgcc.a(_fixunssfsi.o)
                              build/obj/CAN_tools.o (__fixunssfsi)
c:/spc5studio-6.0/eclipse/plugins/com.st.tools.spc5.tools.gnu.gcc.ppcvle.win32_4.9.4.20200908161514/toolchain/bin/../lib/gcc/powerpc-eabivle/4.9.4/e200z4\libgcc.a(_fixunsdfsi.o)
                              build/obj/h302.o (__fixunsdfsi)
c:/spc5studio-6.0/eclipse/plugins/com.st.tools.spc5.tools.gnu.gcc.ppcvle.win32_4.9.4.20200908161514/toolchain/bin/../lib/gcc/powerpc-eabivle/4.9.4/e200z4\libgcc.a(_addsub_sf.o)
                              build/obj/h302.o (__addsf3)
c:/spc5studio-6.0/eclipse/plugins/com.st.tools.spc5.tools.gnu.gcc.ppcvle.win32_4.9.4.20200908161514/toolchain/bin/../lib/gcc/powerpc-eabivle/4.9.4/e200z4\libgcc.a(_mul_sf.o)
                              build/obj/main.o (__mulsf3)
c:/spc5studio-6.0/eclipse/plugins/com.st.tools.spc5.tools.gnu.gcc.ppcvle.win32_4.9.4.20200908161514/toolchain/bin/../lib/gcc/powerpc-eabivle/4.9.4/e200z4\libgcc.a(_gt_sf.o)
                              build/obj/h302.o (__gtsf2)
c:/spc5studio-6.0/eclipse/plugins/com.st.tools.spc5.tools.gnu.gcc.ppcvle.win32_4.9.4.20200908161514/toolchain/bin/../lib/gcc/powerpc-eabivle/4.9.4/e200z4\libgcc.a(_ge_sf.o)
                              c:/spc5studio-6.0/eclipse/plugins/com.st.tools.spc5.tools.gnu.gcc.ppcvle.win32_4.9.4.20200908161514/toolchain/bin/../lib/gcc/powerpc-eabivle/4.9.4/e200z4\libgcc.a(_fixunssfsi.o) (__gesf2)
c:/spc5studio-6.0/eclipse/plugins/com.st.tools.spc5.tools.gnu.gcc.ppcvle.win32_4.9.4.20200908161514/toolchain/bin/../lib/gcc/powerpc-eabivle/4.9.4/e200z4\libgcc.a(_lt_sf.o)
                              build/obj/h302.o (__ltsf2)
c:/spc5studio-6.0/eclipse/plugins/com.st.tools.spc5.tools.gnu.gcc.ppcvle.win32_4.9.4.20200908161514/toolchain/bin/../lib/gcc/powerpc-eabivle/4.9.4/e200z4\libgcc.a(_si_to_sf.o)
                              build/obj/main.o (__floatsisf)
c:/spc5studio-6.0/eclipse/plugins/com.st.tools.spc5.tools.gnu.gcc.ppcvle.win32_4.9.4.20200908161514/toolchain/bin/../lib/gcc/powerpc-eabivle/4.9.4/e200z4\libgcc.a(_sf_to_si.o)
                              c:/spc5studio-6.0/eclipse/plugins/com.st.tools.spc5.tools.gnu.gcc.ppcvle.win32_4.9.4.20200908161514/toolchain/bin/../lib/gcc/powerpc-eabivle/4.9.4/e200z4\libgcc.a(_fixunssfsi.o) (__fixsfsi)
c:/spc5studio-6.0/eclipse/plugins/com.st.tools.spc5.tools.gnu.gcc.ppcvle.win32_4.9.4.20200908161514/toolchain/bin/../lib/gcc/powerpc-eabivle/4.9.4/e200z4\libgcc.a(_sf_to_df.o)
                              build/obj/h302.o (__extendsfdf2)
c:/spc5studio-6.0/eclipse/plugins/com.st.tools.spc5.tools.gnu.gcc.ppcvle.win32_4.9.4.20200908161514/toolchain/bin/../lib/gcc/powerpc-eabivle/4.9.4/e200z4\libgcc.a(_thenan_sf.o)
                              c:/spc5studio-6.0/eclipse/plugins/com.st.tools.spc5.tools.gnu.gcc.ppcvle.win32_4.9.4.20200908161514/toolchain/bin/../lib/gcc/powerpc-eabivle/4.9.4/e200z4\libgcc.a(_addsub_sf.o) (__thenan_sf)
c:/spc5studio-6.0/eclipse/plugins/com.st.tools.spc5.tools.gnu.gcc.ppcvle.win32_4.9.4.20200908161514/toolchain/bin/../lib/gcc/powerpc-eabivle/4.9.4/e200z4\libgcc.a(_usi_to_sf.o)
                              build/obj/CAN_tools.o (__floatunsisf)
c:/spc5studio-6.0/eclipse/plugins/com.st.tools.spc5.tools.gnu.gcc.ppcvle.win32_4.9.4.20200908161514/toolchain/bin/../lib/gcc/powerpc-eabivle/4.9.4/e200z4\libgcc.a(_addsub_df.o)
                              c:/spc5studio-6.0/eclipse/plugins/com.st.tools.spc5.tools.gnu.gcc.ppcvle.win32_4.9.4.20200908161514/toolchain/bin/../lib/gcc/powerpc-eabivle/4.9.4/e200z4\libgcc.a(_fixunsdfsi.o) (__subdf3)
c:/spc5studio-6.0/eclipse/plugins/com.st.tools.spc5.tools.gnu.gcc.ppcvle.win32_4.9.4.20200908161514/toolchain/bin/../lib/gcc/powerpc-eabivle/4.9.4/e200z4\libgcc.a(_div_df.o)
                              build/obj/h302.o (__divdf3)
c:/spc5studio-6.0/eclipse/plugins/com.st.tools.spc5.tools.gnu.gcc.ppcvle.win32_4.9.4.20200908161514/toolchain/bin/../lib/gcc/powerpc-eabivle/4.9.4/e200z4\libgcc.a(_ge_df.o)
                              c:/spc5studio-6.0/eclipse/plugins/com.st.tools.spc5.tools.gnu.gcc.ppcvle.win32_4.9.4.20200908161514/toolchain/bin/../lib/gcc/powerpc-eabivle/4.9.4/e200z4\libgcc.a(_fixunsdfsi.o) (__gedf2)
c:/spc5studio-6.0/eclipse/plugins/com.st.tools.spc5.tools.gnu.gcc.ppcvle.win32_4.9.4.20200908161514/toolchain/bin/../lib/gcc/powerpc-eabivle/4.9.4/e200z4\libgcc.a(_df_to_si.o)
                              c:/spc5studio-6.0/eclipse/plugins/com.st.tools.spc5.tools.gnu.gcc.ppcvle.win32_4.9.4.20200908161514/toolchain/bin/../lib/gcc/powerpc-eabivle/4.9.4/e200z4\libgcc.a(_fixunsdfsi.o) (__fixdfsi)
c:/spc5studio-6.0/eclipse/plugins/com.st.tools.spc5.tools.gnu.gcc.ppcvle.win32_4.9.4.20200908161514/toolchain/bin/../lib/gcc/powerpc-eabivle/4.9.4/e200z4\libgcc.a(_make_df.o)
                              c:/spc5studio-6.0/eclipse/plugins/com.st.tools.spc5.tools.gnu.gcc.ppcvle.win32_4.9.4.20200908161514/toolchain/bin/../lib/gcc/powerpc-eabivle/4.9.4/e200z4\libgcc.a(_sf_to_df.o) (__make_dp)
c:/spc5studio-6.0/eclipse/plugins/com.st.tools.spc5.tools.gnu.gcc.ppcvle.win32_4.9.4.20200908161514/toolchain/bin/../lib/gcc/powerpc-eabivle/4.9.4/e200z4\libgcc.a(_thenan_df.o)
                              c:/spc5studio-6.0/eclipse/plugins/com.st.tools.spc5.tools.gnu.gcc.ppcvle.win32_4.9.4.20200908161514/toolchain/bin/../lib/gcc/powerpc-eabivle/4.9.4/e200z4\libgcc.a(_addsub_df.o) (__thenan_df)
c:/spc5studio-6.0/eclipse/plugins/com.st.tools.spc5.tools.gnu.gcc.ppcvle.win32_4.9.4.20200908161514/toolchain/bin/../lib/gcc/powerpc-eabivle/4.9.4/e200z4\libgcc.a(_pack_sf.o)
                              c:/spc5studio-6.0/eclipse/plugins/com.st.tools.spc5.tools.gnu.gcc.ppcvle.win32_4.9.4.20200908161514/toolchain/bin/../lib/gcc/powerpc-eabivle/4.9.4/e200z4\libgcc.a(_addsub_sf.o) (__pack_f)
c:/spc5studio-6.0/eclipse/plugins/com.st.tools.spc5.tools.gnu.gcc.ppcvle.win32_4.9.4.20200908161514/toolchain/bin/../lib/gcc/powerpc-eabivle/4.9.4/e200z4\libgcc.a(_unpack_sf.o)
                              c:/spc5studio-6.0/eclipse/plugins/com.st.tools.spc5.tools.gnu.gcc.ppcvle.win32_4.9.4.20200908161514/toolchain/bin/../lib/gcc/powerpc-eabivle/4.9.4/e200z4\libgcc.a(_addsub_sf.o) (__unpack_f)
c:/spc5studio-6.0/eclipse/plugins/com.st.tools.spc5.tools.gnu.gcc.ppcvle.win32_4.9.4.20200908161514/toolchain/bin/../lib/gcc/powerpc-eabivle/4.9.4/e200z4\libgcc.a(_fpcmp_parts_sf.o)
                              c:/spc5studio-6.0/eclipse/plugins/com.st.tools.spc5.tools.gnu.gcc.ppcvle.win32_4.9.4.20200908161514/toolchain/bin/../lib/gcc/powerpc-eabivle/4.9.4/e200z4\libgcc.a(_gt_sf.o) (__fpcmp_parts_f)
c:/spc5studio-6.0/eclipse/plugins/com.st.tools.spc5.tools.gnu.gcc.ppcvle.win32_4.9.4.20200908161514/toolchain/bin/../lib/gcc/powerpc-eabivle/4.9.4/e200z4\libgcc.a(_pack_df.o)
                              c:/spc5studio-6.0/eclipse/plugins/com.st.tools.spc5.tools.gnu.gcc.ppcvle.win32_4.9.4.20200908161514/toolchain/bin/../lib/gcc/powerpc-eabivle/4.9.4/e200z4\libgcc.a(_addsub_df.o) (__pack_d)
c:/spc5studio-6.0/eclipse/plugins/com.st.tools.spc5.tools.gnu.gcc.ppcvle.win32_4.9.4.20200908161514/toolchain/bin/../lib/gcc/powerpc-eabivle/4.9.4/e200z4\libgcc.a(_unpack_df.o)
                              c:/spc5studio-6.0/eclipse/plugins/com.st.tools.spc5.tools.gnu.gcc.ppcvle.win32_4.9.4.20200908161514/toolchain/bin/../lib/gcc/powerpc-eabivle/4.9.4/e200z4\libgcc.a(_addsub_df.o) (__unpack_d)
c:/spc5studio-6.0/eclipse/plugins/com.st.tools.spc5.tools.gnu.gcc.ppcvle.win32_4.9.4.20200908161514/toolchain/bin/../lib/gcc/powerpc-eabivle/4.9.4/e200z4\libgcc.a(_fpcmp_parts_df.o)
                              c:/spc5studio-6.0/eclipse/plugins/com.st.tools.spc5.tools.gnu.gcc.ppcvle.win32_4.9.4.20200908161514/toolchain/bin/../lib/gcc/powerpc-eabivle/4.9.4/e200z4\libgcc.a(_ge_df.o) (__fpcmp_parts_d)

Discarded input sections

 .text          0x00000000        0x0 build/obj/boot.o
 .data          0x00000000        0x0 build/obj/boot.o
 .bss           0x00000000        0x0 build/obj/boot.o
 .text          0x00000000        0x0 build/obj/crt0.o
 .data          0x00000000        0x0 build/obj/crt0.o
 .bss           0x00000000        0x0 build/obj/crt0.o
 .text          0x00000000        0x0 build/obj/portasm.o
 .data          0x00000000        0x0 build/obj/portasm.o
 .bss           0x00000000        0x0 build/obj/portasm.o
 .text          0x00000000        0x0 build/obj/vectors.o
 .data          0x00000000        0x0 build/obj/vectors.o
 .bss           0x00000000        0x0 build/obj/vectors.o
 .text          0x00000000        0x0 build/obj/ivor.o
 .data          0x00000000        0x0 build/obj/ivor.o
 .bss           0x00000000        0x0 build/obj/ivor.o
 .text          0x00000000        0x0 build/obj/core0.o
 .data          0x00000000        0x0 build/obj/core0.o
 .bss           0x00000000        0x0 build/obj/core0.o
 .debug_info    0x00000000       0x6b build/obj/core0.o
 .debug_abbrev  0x00000000       0x26 build/obj/core0.o
 .debug_aranges
                0x00000000       0x18 build/obj/core0.o
 .debug_line    0x00000000       0x1d build/obj/core0.o
 .debug_str     0x00000000      0x234 build/obj/core0.o
 .comment       0x00000000       0x8f build/obj/core0.o
 .text          0x00000000        0x0 build/obj/core1.o
 .data          0x00000000        0x0 build/obj/core1.o
 .bss           0x00000000        0x0 build/obj/core1.o
 .debug_info    0x00000000       0x6b build/obj/core1.o
 .debug_abbrev  0x00000000       0x26 build/obj/core1.o
 .debug_aranges
                0x00000000       0x18 build/obj/core1.o
 .debug_line    0x00000000       0x1d build/obj/core1.o
 .debug_str     0x00000000      0x234 build/obj/core1.o
 .comment       0x00000000       0x8f build/obj/core1.o
 .text          0x00000000        0x0 build/obj/cache.o
 .data          0x00000000        0x0 build/obj/cache.o
 .bss           0x00000000        0x0 build/obj/cache.o
 .text.idc_exist
                0x00000000       0x38 build/obj/cache.o
 .text.idc_invalidate.constprop.1
                0x00000000       0xf4 build/obj/cache.o
 .text.cache_get_status
                0x00000000       0x42 build/obj/cache.o
 .text.cache_enable
                0x00000000       0x6a build/obj/cache.o
 .text.cache_set_control
                0x00000000       0x5a build/obj/cache.o
 .text.cache_disable
                0x00000000       0x64 build/obj/cache.o
 .text.cache_get_cfg
                0x00000000       0x2a build/obj/cache.o
 .text.cache_invalidate
                0x00000000       0x3e build/obj/cache.o
 .text.cache_flush_range
                0x00000000       0x26 build/obj/cache.o
 .text.cache_invalidate_range
                0x00000000       0x36 build/obj/cache.o
 .text          0x00000000        0x0 build/obj/spc5_lld.o
 .data          0x00000000        0x0 build/obj/spc5_lld.o
 .bss           0x00000000        0x0 build/obj/spc5_lld.o
 .text          0x00000000        0x0 build/obj/spc5_edma.o
 .data          0x00000000        0x0 build/obj/spc5_edma.o
 .bss           0x00000000        0x0 build/obj/spc5_edma.o
 .text.edmaChannelAllocate
                0x00000000      0x120 build/obj/spc5_edma.o
 .text.edmaChannelRelease
                0x00000000      0x122 build/obj/spc5_edma.o
 .text          0x00000000        0x0 build/obj/can_lld.o
 .data          0x00000000        0x0 build/obj/can_lld.o
 .bss           0x00000000        0x0 build/obj/can_lld.o
 .text.can_lld_stop
                0x00000000       0xba build/obj/can_lld.o
 .text.can_lld_receive
                0x00000000      0x1b4 build/obj/can_lld.o
 .text          0x00000000        0x0 build/obj/croutine.o
 .data          0x00000000        0x0 build/obj/croutine.o
 .bss           0x00000000        0x0 build/obj/croutine.o
 .debug_info    0x00000000       0x72 build/obj/croutine.o
 .debug_abbrev  0x00000000       0x26 build/obj/croutine.o
 .debug_aranges
                0x00000000       0x18 build/obj/croutine.o
 .debug_line    0x00000000       0x1d build/obj/croutine.o
 .debug_str     0x00000000      0x22a build/obj/croutine.o
 .comment       0x00000000       0x8f build/obj/croutine.o
 .text          0x00000000        0x0 build/obj/list.o
 .data          0x00000000        0x0 build/obj/list.o
 .bss           0x00000000        0x0 build/obj/list.o
 .text          0x00000000        0x0 build/obj/event_groups.o
 .data          0x00000000        0x0 build/obj/event_groups.o
 .bss           0x00000000        0x0 build/obj/event_groups.o
 .text.xEventGroupCreate
                0x00000000       0x30 build/obj/event_groups.o
 .text.xEventGroupWaitBits
                0x00000000       0xe6 build/obj/event_groups.o
 .text.xEventGroupClearBits
                0x00000000       0x2e build/obj/event_groups.o
 .text.xEventGroupGetBitsFromISR
                0x00000000        0x4 build/obj/event_groups.o
 .text.xEventGroupSetBits
                0x00000000       0x98 build/obj/event_groups.o
 .text.xEventGroupSync
                0x00000000       0xb4 build/obj/event_groups.o
 .text.vEventGroupDelete
                0x00000000       0x3a build/obj/event_groups.o
 .text.vEventGroupSetBitsCallback
                0x00000000        0x4 build/obj/event_groups.o
 .text.vEventGroupClearBitsCallback
                0x00000000       0x2a build/obj/event_groups.o
 .text          0x00000000        0x0 build/obj/queue.o
 .data          0x00000000        0x0 build/obj/queue.o
 .bss           0x00000000        0x0 build/obj/queue.o
 .text.xQueueGenericSend
                0x00000000      0x1ee build/obj/queue.o
 .text.xQueueCreateMutex
                0x00000000       0x3a build/obj/queue.o
 .text.xQueueGiveFromISR
                0x00000000       0x8a build/obj/queue.o
 .text.xQueueSemaphoreTake
                0x00000000      0x1be build/obj/queue.o
 .text.xQueuePeek
                0x00000000      0x16c build/obj/queue.o
 .text.xQueueReceiveFromISR
                0x00000000       0x84 build/obj/queue.o
 .text.xQueuePeekFromISR
                0x00000000       0x30 build/obj/queue.o
 .text.uxQueueMessagesWaiting
                0x00000000       0x22 build/obj/queue.o
 .text.uxQueueSpacesAvailable
                0x00000000       0x2a build/obj/queue.o
 .text.uxQueueMessagesWaitingFromISR
                0x00000000        0x4 build/obj/queue.o
 .text.vQueueDelete
                0x00000000       0x3c build/obj/queue.o
 .text.xQueueIsQueueEmptyFromISR
                0x00000000        0xe build/obj/queue.o
 .text.xQueueIsQueueFullFromISR
                0x00000000       0x10 build/obj/queue.o
 .text.vQueueAddToRegistry
                0x00000000       0x30 build/obj/queue.o
 .text.pcQueueGetName
                0x00000000       0x32 build/obj/queue.o
 .text.vQueueUnregisterQueue
                0x00000000       0x38 build/obj/queue.o
 .text.xQueueCreateSet
                0x00000000        0x8 build/obj/queue.o
 .text.xQueueAddToSet
                0x00000000       0x52 build/obj/queue.o
 .text.xQueueRemoveFromSet
                0x00000000       0x42 build/obj/queue.o
 .text.xQueueSelectFromSet
                0x00000000       0x20 build/obj/queue.o
 .text.xQueueSelectFromSetFromISR
                0x00000000       0x20 build/obj/queue.o
 .bss.xQueueRegistry
                0x00000000       0x28 build/obj/queue.o
 .text          0x00000000        0x0 build/obj/stream_buffer.o
 .data          0x00000000        0x0 build/obj/stream_buffer.o
 .bss           0x00000000        0x0 build/obj/stream_buffer.o
 .text.prvWriteBytesToBuffer
                0x00000000       0x7a build/obj/stream_buffer.o
 .text.prvWriteMessageToBuffer
                0x00000000       0x5c build/obj/stream_buffer.o
 .text.prvReadBytesFromBuffer
                0x00000000       0x78 build/obj/stream_buffer.o
 .text.xStreamBufferGenericCreate
                0x00000000       0x58 build/obj/stream_buffer.o
 .text.vStreamBufferDelete
                0x00000000       0x22 build/obj/stream_buffer.o
 .text.xStreamBufferReset
                0x00000000       0x4e build/obj/stream_buffer.o
 .text.xStreamBufferSetTriggerLevel
                0x00000000       0x1a build/obj/stream_buffer.o
 .text.xStreamBufferSpacesAvailable
                0x00000000       0x1c build/obj/stream_buffer.o
 .text.xStreamBufferBytesAvailable
                0x00000000       0x16 build/obj/stream_buffer.o
 .text.xStreamBufferSend
                0x00000000      0x124 build/obj/stream_buffer.o
 .text.xStreamBufferSendFromISR
                0x00000000       0x90 build/obj/stream_buffer.o
 .text.xStreamBufferReceive
                0x00000000      0x104 build/obj/stream_buffer.o
 .text.xStreamBufferNextMessageLengthBytes
                0x00000000       0x5e build/obj/stream_buffer.o
 .text.xStreamBufferReceiveFromISR
                0x00000000       0xb0 build/obj/stream_buffer.o
 .text.xStreamBufferIsEmpty
                0x00000000       0x10 build/obj/stream_buffer.o
 .text.xStreamBufferIsFull
                0x00000000       0x2e build/obj/stream_buffer.o
 .text.xStreamBufferSendCompletedFromISR
                0x00000000       0x38 build/obj/stream_buffer.o
 .text.xStreamBufferReceiveCompletedFromISR
                0x00000000       0x38 build/obj/stream_buffer.o
 .text          0x00000000        0x0 build/obj/tasks.o
 .data          0x00000000        0x0 build/obj/tasks.o
 .bss           0x00000000        0x0 build/obj/tasks.o
 .text.uxTaskPriorityGetFromISR
                0x00000000       0x16 build/obj/tasks.o
 .text.xTaskResumeFromISR
                0x00000000       0xc8 build/obj/tasks.o
 .text.vTaskEndScheduler
                0x00000000       0x12 build/obj/tasks.o
 .text.xTaskGetTickCountFromISR
                0x00000000        0xa build/obj/tasks.o
 .text.uxTaskGetNumberOfTasks
                0x00000000        0xa build/obj/tasks.o
 .text.pcTaskGetName
                0x00000000       0x1a build/obj/tasks.o
 .text.vTaskPlaceOnUnorderedEventList
                0x00000000       0x34 build/obj/tasks.o
 .text.vTaskRemoveFromUnorderedEventList
                0x00000000       0x76 build/obj/tasks.o
 .text.vTaskSetThreadLocalStoragePointer
                0x00000000       0x22 build/obj/tasks.o
 .text.pvTaskGetThreadLocalStoragePointer
                0x00000000       0x2c build/obj/tasks.o
 .text.xTaskGetCurrentTaskHandle
                0x00000000        0xa build/obj/tasks.o
 .text.xTaskPriorityInherit
                0x00000000       0xea build/obj/tasks.o
 .text.vTaskPriorityDisinheritAfterTimeout
                0x00000000       0xac build/obj/tasks.o
 .text.uxTaskPriorityGet
                0x00000000       0x5c build/obj/tasks.o
 .text.vTaskPrioritySet
                0x00000000      0x11a build/obj/tasks.o
 .text.vTaskSuspend
                0x00000000      0x144 build/obj/tasks.o
 .text.vTaskResume
                0x00000000       0xd8 build/obj/tasks.o
 .text.vTaskSetTimeOutState
                0x00000000       0x3c build/obj/tasks.o
 .text.uxTaskResetEventItemValue
                0x00000000       0x1c build/obj/tasks.o
 .text.pvTaskIncrementMutexHeldCount
                0x00000000       0x26 build/obj/tasks.o
 .text.ulTaskNotifyTake
                0x00000000       0xdc build/obj/tasks.o
 .text.xTaskNotifyWait
                0x00000000       0xe0 build/obj/tasks.o
 .text.xTaskGenericNotify
                0x00000000      0x100 build/obj/tasks.o
 .rodata.xTaskGenericNotify
                0x00000000       0x14 build/obj/tasks.o
 .text.xTaskGenericNotifyFromISR
                0x00000000      0x11c build/obj/tasks.o
 .rodata.xTaskGenericNotifyFromISR
                0x00000000       0x14 build/obj/tasks.o
 .text.vTaskNotifyGiveFromISR
                0x00000000       0xc2 build/obj/tasks.o
 .text.xTaskNotifyStateClear
                0x00000000       0x5a build/obj/tasks.o
 .text          0x00000000        0x0 build/obj/timers.o
 .data          0x00000000        0x0 build/obj/timers.o
 .bss           0x00000000        0x0 build/obj/timers.o
 .debug_info    0x00000000       0x72 build/obj/timers.o
 .debug_abbrev  0x00000000       0x26 build/obj/timers.o
 .debug_aranges
                0x00000000       0x18 build/obj/timers.o
 .debug_line    0x00000000       0x1d build/obj/timers.o
 .debug_str     0x00000000      0x228 build/obj/timers.o
 .comment       0x00000000       0x8f build/obj/timers.o
 .text          0x00000000        0x0 build/obj/port.o
 .data          0x00000000        0x0 build/obj/port.o
 .bss           0x00000000        0x0 build/obj/port.o
 .text.vPortEndScheduler
                0x00000000        0x4 build/obj/port.o
 .text.prvPortTimerSetup
                0x00000000        0x8 build/obj/port.o
 .text.vPortTimerReset
                0x00000000        0x4 build/obj/port.o
 .text          0x00000000        0x0 build/obj/heap_4.o
 .data          0x00000000        0x0 build/obj/heap_4.o
 .bss           0x00000000        0x0 build/obj/heap_4.o
 .text.xPortGetFreeHeapSize
                0x00000000        0xa build/obj/heap_4.o
 .text.xPortGetMinimumEverFreeHeapSize
                0x00000000        0xa build/obj/heap_4.o
 .text.vPortInitialiseBlocks
                0x00000000        0x2 build/obj/heap_4.o
 .text          0x00000000        0x0 build/obj/pal.o
 .data          0x00000000        0x0 build/obj/pal.o
 .bss           0x00000000        0x0 build/obj/pal.o
 .text._pal_readgroup
                0x00000000        0x4 build/obj/pal.o
 .text._pal_writegroup
                0x00000000        0x2 build/obj/pal.o
 .text._pal_setgroupmode
                0x00000000       0x28 build/obj/pal.o
 .text          0x00000000        0x0 build/obj/clock.o
 .data          0x00000000        0x0 build/obj/clock.o
 .bss           0x00000000        0x0 build/obj/clock.o
 .text.SPCSetRunMode
                0x00000000       0x2e build/obj/clock.o
 .text.SPCGetSystemClock
                0x00000000       0x80 build/obj/clock.o
 .rodata.SPCGetSystemClock
                0x00000000       0x14 build/obj/clock.o
 .text          0x00000000        0x0 build/obj/irq.o
 .data          0x00000000        0x0 build/obj/irq.o
 .bss           0x00000000        0x0 build/obj/irq.o
 .text          0x00000000        0x0 build/obj/eirq.o
 .data          0x00000000        0x0 build/obj/eirq.o
 .bss           0x00000000        0x0 build/obj/eirq.o
 .text.manage_eirq_interrupt
                0x00000000       0x80 build/obj/eirq.o
 .text          0x00000000        0x0 build/obj/swirq.o
 .data          0x00000000        0x0 build/obj/swirq.o
 .bss           0x00000000        0x0 build/obj/swirq.o
 .text.swirqInit
                0x00000000        0x4 build/obj/swirq.o
 .text.swirq_enable
                0x00000000       0x18 build/obj/swirq.o
 .text.swirq_disable
                0x00000000       0x16 build/obj/swirq.o
 .text.swirq_set
                0x00000000       0x12 build/obj/swirq.o
 .text.swirq_clear
                0x00000000       0x12 build/obj/swirq.o
 .text          0x00000000        0x0 build/obj/osal.o
 .data          0x00000000        0x0 build/obj/osal.o
 .bss           0x00000000        0x0 build/obj/osal.o
 .text.osalThreadDelaySeconds
                0x00000000       0x42 build/obj/osal.o
 .text.osalThreadDelayMilliseconds
                0x00000000       0x60 build/obj/osal.o
 .text.osalThreadDelayMicroseconds
                0x00000000       0x60 build/obj/osal.o
 .text.osalThreadGetSeconds
                0x00000000       0x46 build/obj/osal.o
 .text.osalThreadGetMilliseconds
                0x00000000       0x4a build/obj/osal.o
 .text.osalThreadGetMicroseconds
                0x00000000       0x50 build/obj/osal.o
 .text.osalEnterCritical
                0x00000000       0x3a build/obj/osal.o
 .text.osalExitCritical
                0x00000000       0x3a build/obj/osal.o
 .text.osalEnterCriticalFromISR
                0x00000000        0x2 build/obj/osal.o
 .text.osalExitCriticalFromISR
                0x00000000        0x2 build/obj/osal.o
 .text          0x00000000        0x0 build/obj/systimer.o
 .data          0x00000000        0x0 build/obj/systimer.o
 .bss           0x00000000        0x0 build/obj/systimer.o
 .text          0x00000000        0x0 build/obj/can_lld_cfg.o
 .data          0x00000000        0x0 build/obj/can_lld_cfg.o
 .bss           0x00000000        0x0 build/obj/can_lld_cfg.o
 .text          0x00000000        0x0 build/obj/board.o
 .data          0x00000000        0x0 build/obj/board.o
 .bss           0x00000000        0x0 build/obj/board.o
 .text          0x00000000        0x0 build/obj/irq_cfg.o
 .data          0x00000000        0x0 build/obj/irq_cfg.o
 .bss           0x00000000        0x0 build/obj/irq_cfg.o
 .text          0x00000000        0x0 build/obj/eirq_cfg.o
 .data          0x00000000        0x0 build/obj/eirq_cfg.o
 .bss           0x00000000        0x0 build/obj/eirq_cfg.o
 .text          0x00000000        0x0 build/obj/swirq_cfg.o
 .data          0x00000000        0x0 build/obj/swirq_cfg.o
 .bss           0x00000000        0x0 build/obj/swirq_cfg.o
 .text.swirq_init_prio
                0x00000000        0x2 build/obj/swirq_cfg.o
 .text          0x00000000        0x0 build/obj/main.o
 .data          0x00000000        0x0 build/obj/main.o
 .bss           0x00000000        0x0 build/obj/main.o
 .text.parseinterface
                0x00000000       0x46 build/obj/main.o
 .text          0x00000000        0x0 build/obj/h302.o
 .data          0x00000000        0x0 build/obj/h302.o
 .bss           0x00000000        0x0 build/obj/h302.o
 .text.rateLimitter
                0x00000000       0x74 build/obj/h302.o
 .text          0x00000000        0x0 build/obj/CAN_tools.o
 .data          0x00000000        0x0 build/obj/CAN_tools.o
 .bss           0x00000000        0x0 build/obj/CAN_tools.o
 .text.copyCANmsgs
                0x00000000       0x2e build/obj/CAN_tools.o
 .text.clearCANerrors
                0x00000000       0x3a build/obj/CAN_tools.o
 .text          0x00000000        0x0 build/obj/crc.o
 .data          0x00000000        0x0 build/obj/crc.o
 .bss           0x00000000        0x0 build/obj/crc.o
 .text.converto1byteorder
                0x00000000       0x34 build/obj/crc.o
 .text.converto4byteorder
                0x00000000       0x34 build/obj/crc.o
 .text          0x00000000        0x0 build/obj/components.o
 .data          0x00000000        0x0 build/obj/components.o
 .bss           0x00000000        0x0 build/obj/components.o
 .text          0x00000000        0x0 c:/spc5studio-6.0/eclipse/plugins/com.st.tools.spc5.tools.gnu.gcc.ppcvle.win32_4.9.4.20200908161514/toolchain/bin/../lib/gcc/powerpc-eabivle/4.9.4/../../../../powerpc-eabivle/lib/e200z4\libc.a(lib_a-memcpy.o)
 .data          0x00000000        0x0 c:/spc5studio-6.0/eclipse/plugins/com.st.tools.spc5.tools.gnu.gcc.ppcvle.win32_4.9.4.20200908161514/toolchain/bin/../lib/gcc/powerpc-eabivle/4.9.4/../../../../powerpc-eabivle/lib/e200z4\libc.a(lib_a-memcpy.o)
 .bss           0x00000000        0x0 c:/spc5studio-6.0/eclipse/plugins/com.st.tools.spc5.tools.gnu.gcc.ppcvle.win32_4.9.4.20200908161514/toolchain/bin/../lib/gcc/powerpc-eabivle/4.9.4/../../../../powerpc-eabivle/lib/e200z4\libc.a(lib_a-memcpy.o)
 .text          0x00000000        0x0 c:/spc5studio-6.0/eclipse/plugins/com.st.tools.spc5.tools.gnu.gcc.ppcvle.win32_4.9.4.20200908161514/toolchain/bin/../lib/gcc/powerpc-eabivle/4.9.4/../../../../powerpc-eabivle/lib/e200z4\libc.a(lib_a-memset.o)
 .data          0x00000000        0x0 c:/spc5studio-6.0/eclipse/plugins/com.st.tools.spc5.tools.gnu.gcc.ppcvle.win32_4.9.4.20200908161514/toolchain/bin/../lib/gcc/powerpc-eabivle/4.9.4/../../../../powerpc-eabivle/lib/e200z4\libc.a(lib_a-memset.o)
 .bss           0x00000000        0x0 c:/spc5studio-6.0/eclipse/plugins/com.st.tools.spc5.tools.gnu.gcc.ppcvle.win32_4.9.4.20200908161514/toolchain/bin/../lib/gcc/powerpc-eabivle/4.9.4/../../../../powerpc-eabivle/lib/e200z4\libc.a(lib_a-memset.o)
 .data          0x00000000        0x0 c:/spc5studio-6.0/eclipse/plugins/com.st.tools.spc5.tools.gnu.gcc.ppcvle.win32_4.9.4.20200908161514/toolchain/bin/../lib/gcc/powerpc-eabivle/4.9.4/e200z4\libgcc.a(_fixunssfsi.o)
 .bss           0x00000000        0x0 c:/spc5studio-6.0/eclipse/plugins/com.st.tools.spc5.tools.gnu.gcc.ppcvle.win32_4.9.4.20200908161514/toolchain/bin/../lib/gcc/powerpc-eabivle/4.9.4/e200z4\libgcc.a(_fixunssfsi.o)
 .data          0x00000000        0x0 c:/spc5studio-6.0/eclipse/plugins/com.st.tools.spc5.tools.gnu.gcc.ppcvle.win32_4.9.4.20200908161514/toolchain/bin/../lib/gcc/powerpc-eabivle/4.9.4/e200z4\libgcc.a(_fixunsdfsi.o)
 .bss           0x00000000        0x0 c:/spc5studio-6.0/eclipse/plugins/com.st.tools.spc5.tools.gnu.gcc.ppcvle.win32_4.9.4.20200908161514/toolchain/bin/../lib/gcc/powerpc-eabivle/4.9.4/e200z4\libgcc.a(_fixunsdfsi.o)
 .data          0x00000000        0x0 c:/spc5studio-6.0/eclipse/plugins/com.st.tools.spc5.tools.gnu.gcc.ppcvle.win32_4.9.4.20200908161514/toolchain/bin/../lib/gcc/powerpc-eabivle/4.9.4/e200z4\libgcc.a(_addsub_sf.o)
 .bss           0x00000000        0x0 c:/spc5studio-6.0/eclipse/plugins/com.st.tools.spc5.tools.gnu.gcc.ppcvle.win32_4.9.4.20200908161514/toolchain/bin/../lib/gcc/powerpc-eabivle/4.9.4/e200z4\libgcc.a(_addsub_sf.o)
 .data          0x00000000        0x0 c:/spc5studio-6.0/eclipse/plugins/com.st.tools.spc5.tools.gnu.gcc.ppcvle.win32_4.9.4.20200908161514/toolchain/bin/../lib/gcc/powerpc-eabivle/4.9.4/e200z4\libgcc.a(_mul_sf.o)
 .bss           0x00000000        0x0 c:/spc5studio-6.0/eclipse/plugins/com.st.tools.spc5.tools.gnu.gcc.ppcvle.win32_4.9.4.20200908161514/toolchain/bin/../lib/gcc/powerpc-eabivle/4.9.4/e200z4\libgcc.a(_mul_sf.o)
 .data          0x00000000        0x0 c:/spc5studio-6.0/eclipse/plugins/com.st.tools.spc5.tools.gnu.gcc.ppcvle.win32_4.9.4.20200908161514/toolchain/bin/../lib/gcc/powerpc-eabivle/4.9.4/e200z4\libgcc.a(_gt_sf.o)
 .bss           0x00000000        0x0 c:/spc5studio-6.0/eclipse/plugins/com.st.tools.spc5.tools.gnu.gcc.ppcvle.win32_4.9.4.20200908161514/toolchain/bin/../lib/gcc/powerpc-eabivle/4.9.4/e200z4\libgcc.a(_gt_sf.o)
 .data          0x00000000        0x0 c:/spc5studio-6.0/eclipse/plugins/com.st.tools.spc5.tools.gnu.gcc.ppcvle.win32_4.9.4.20200908161514/toolchain/bin/../lib/gcc/powerpc-eabivle/4.9.4/e200z4\libgcc.a(_ge_sf.o)
 .bss           0x00000000        0x0 c:/spc5studio-6.0/eclipse/plugins/com.st.tools.spc5.tools.gnu.gcc.ppcvle.win32_4.9.4.20200908161514/toolchain/bin/../lib/gcc/powerpc-eabivle/4.9.4/e200z4\libgcc.a(_ge_sf.o)
 .data          0x00000000        0x0 c:/spc5studio-6.0/eclipse/plugins/com.st.tools.spc5.tools.gnu.gcc.ppcvle.win32_4.9.4.20200908161514/toolchain/bin/../lib/gcc/powerpc-eabivle/4.9.4/e200z4\libgcc.a(_lt_sf.o)
 .bss           0x00000000        0x0 c:/spc5studio-6.0/eclipse/plugins/com.st.tools.spc5.tools.gnu.gcc.ppcvle.win32_4.9.4.20200908161514/toolchain/bin/../lib/gcc/powerpc-eabivle/4.9.4/e200z4\libgcc.a(_lt_sf.o)
 .data          0x00000000        0x0 c:/spc5studio-6.0/eclipse/plugins/com.st.tools.spc5.tools.gnu.gcc.ppcvle.win32_4.9.4.20200908161514/toolchain/bin/../lib/gcc/powerpc-eabivle/4.9.4/e200z4\libgcc.a(_si_to_sf.o)
 .bss           0x00000000        0x0 c:/spc5studio-6.0/eclipse/plugins/com.st.tools.spc5.tools.gnu.gcc.ppcvle.win32_4.9.4.20200908161514/toolchain/bin/../lib/gcc/powerpc-eabivle/4.9.4/e200z4\libgcc.a(_si_to_sf.o)
 .data          0x00000000        0x0 c:/spc5studio-6.0/eclipse/plugins/com.st.tools.spc5.tools.gnu.gcc.ppcvle.win32_4.9.4.20200908161514/toolchain/bin/../lib/gcc/powerpc-eabivle/4.9.4/e200z4\libgcc.a(_sf_to_si.o)
 .bss           0x00000000        0x0 c:/spc5studio-6.0/eclipse/plugins/com.st.tools.spc5.tools.gnu.gcc.ppcvle.win32_4.9.4.20200908161514/toolchain/bin/../lib/gcc/powerpc-eabivle/4.9.4/e200z4\libgcc.a(_sf_to_si.o)
 .data          0x00000000        0x0 c:/spc5studio-6.0/eclipse/plugins/com.st.tools.spc5.tools.gnu.gcc.ppcvle.win32_4.9.4.20200908161514/toolchain/bin/../lib/gcc/powerpc-eabivle/4.9.4/e200z4\libgcc.a(_sf_to_df.o)
 .bss           0x00000000        0x0 c:/spc5studio-6.0/eclipse/plugins/com.st.tools.spc5.tools.gnu.gcc.ppcvle.win32_4.9.4.20200908161514/toolchain/bin/../lib/gcc/powerpc-eabivle/4.9.4/e200z4\libgcc.a(_sf_to_df.o)
 .text          0x00000000        0x0 c:/spc5studio-6.0/eclipse/plugins/com.st.tools.spc5.tools.gnu.gcc.ppcvle.win32_4.9.4.20200908161514/toolchain/bin/../lib/gcc/powerpc-eabivle/4.9.4/e200z4\libgcc.a(_thenan_sf.o)
 .data          0x00000000        0x0 c:/spc5studio-6.0/eclipse/plugins/com.st.tools.spc5.tools.gnu.gcc.ppcvle.win32_4.9.4.20200908161514/toolchain/bin/../lib/gcc/powerpc-eabivle/4.9.4/e200z4\libgcc.a(_thenan_sf.o)
 .bss           0x00000000        0x0 c:/spc5studio-6.0/eclipse/plugins/com.st.tools.spc5.tools.gnu.gcc.ppcvle.win32_4.9.4.20200908161514/toolchain/bin/../lib/gcc/powerpc-eabivle/4.9.4/e200z4\libgcc.a(_thenan_sf.o)
 .data          0x00000000        0x0 c:/spc5studio-6.0/eclipse/plugins/com.st.tools.spc5.tools.gnu.gcc.ppcvle.win32_4.9.4.20200908161514/toolchain/bin/../lib/gcc/powerpc-eabivle/4.9.4/e200z4\libgcc.a(_usi_to_sf.o)
 .bss           0x00000000        0x0 c:/spc5studio-6.0/eclipse/plugins/com.st.tools.spc5.tools.gnu.gcc.ppcvle.win32_4.9.4.20200908161514/toolchain/bin/../lib/gcc/powerpc-eabivle/4.9.4/e200z4\libgcc.a(_usi_to_sf.o)
 .data          0x00000000        0x0 c:/spc5studio-6.0/eclipse/plugins/com.st.tools.spc5.tools.gnu.gcc.ppcvle.win32_4.9.4.20200908161514/toolchain/bin/../lib/gcc/powerpc-eabivle/4.9.4/e200z4\libgcc.a(_addsub_df.o)
 .bss           0x00000000        0x0 c:/spc5studio-6.0/eclipse/plugins/com.st.tools.spc5.tools.gnu.gcc.ppcvle.win32_4.9.4.20200908161514/toolchain/bin/../lib/gcc/powerpc-eabivle/4.9.4/e200z4\libgcc.a(_addsub_df.o)
 .data          0x00000000        0x0 c:/spc5studio-6.0/eclipse/plugins/com.st.tools.spc5.tools.gnu.gcc.ppcvle.win32_4.9.4.20200908161514/toolchain/bin/../lib/gcc/powerpc-eabivle/4.9.4/e200z4\libgcc.a(_div_df.o)
 .bss           0x00000000        0x0 c:/spc5studio-6.0/eclipse/plugins/com.st.tools.spc5.tools.gnu.gcc.ppcvle.win32_4.9.4.20200908161514/toolchain/bin/../lib/gcc/powerpc-eabivle/4.9.4/e200z4\libgcc.a(_div_df.o)
 .data          0x00000000        0x0 c:/spc5studio-6.0/eclipse/plugins/com.st.tools.spc5.tools.gnu.gcc.ppcvle.win32_4.9.4.20200908161514/toolchain/bin/../lib/gcc/powerpc-eabivle/4.9.4/e200z4\libgcc.a(_ge_df.o)
 .bss           0x00000000        0x0 c:/spc5studio-6.0/eclipse/plugins/com.st.tools.spc5.tools.gnu.gcc.ppcvle.win32_4.9.4.20200908161514/toolchain/bin/../lib/gcc/powerpc-eabivle/4.9.4/e200z4\libgcc.a(_ge_df.o)
 .data          0x00000000        0x0 c:/spc5studio-6.0/eclipse/plugins/com.st.tools.spc5.tools.gnu.gcc.ppcvle.win32_4.9.4.20200908161514/toolchain/bin/../lib/gcc/powerpc-eabivle/4.9.4/e200z4\libgcc.a(_df_to_si.o)
 .bss           0x00000000        0x0 c:/spc5studio-6.0/eclipse/plugins/com.st.tools.spc5.tools.gnu.gcc.ppcvle.win32_4.9.4.20200908161514/toolchain/bin/../lib/gcc/powerpc-eabivle/4.9.4/e200z4\libgcc.a(_df_to_si.o)
 .data          0x00000000        0x0 c:/spc5studio-6.0/eclipse/plugins/com.st.tools.spc5.tools.gnu.gcc.ppcvle.win32_4.9.4.20200908161514/toolchain/bin/../lib/gcc/powerpc-eabivle/4.9.4/e200z4\libgcc.a(_make_df.o)
 .bss           0x00000000        0x0 c:/spc5studio-6.0/eclipse/plugins/com.st.tools.spc5.tools.gnu.gcc.ppcvle.win32_4.9.4.20200908161514/toolchain/bin/../lib/gcc/powerpc-eabivle/4.9.4/e200z4\libgcc.a(_make_df.o)
 .text          0x00000000        0x0 c:/spc5studio-6.0/eclipse/plugins/com.st.tools.spc5.tools.gnu.gcc.ppcvle.win32_4.9.4.20200908161514/toolchain/bin/../lib/gcc/powerpc-eabivle/4.9.4/e200z4\libgcc.a(_thenan_df.o)
 .data          0x00000000        0x0 c:/spc5studio-6.0/eclipse/plugins/com.st.tools.spc5.tools.gnu.gcc.ppcvle.win32_4.9.4.20200908161514/toolchain/bin/../lib/gcc/powerpc-eabivle/4.9.4/e200z4\libgcc.a(_thenan_df.o)
 .bss           0x00000000        0x0 c:/spc5studio-6.0/eclipse/plugins/com.st.tools.spc5.tools.gnu.gcc.ppcvle.win32_4.9.4.20200908161514/toolchain/bin/../lib/gcc/powerpc-eabivle/4.9.4/e200z4\libgcc.a(_thenan_df.o)
 .data          0x00000000        0x0 c:/spc5studio-6.0/eclipse/plugins/com.st.tools.spc5.tools.gnu.gcc.ppcvle.win32_4.9.4.20200908161514/toolchain/bin/../lib/gcc/powerpc-eabivle/4.9.4/e200z4\libgcc.a(_pack_sf.o)
 .bss           0x00000000        0x0 c:/spc5studio-6.0/eclipse/plugins/com.st.tools.spc5.tools.gnu.gcc.ppcvle.win32_4.9.4.20200908161514/toolchain/bin/../lib/gcc/powerpc-eabivle/4.9.4/e200z4\libgcc.a(_pack_sf.o)
 .data          0x00000000        0x0 c:/spc5studio-6.0/eclipse/plugins/com.st.tools.spc5.tools.gnu.gcc.ppcvle.win32_4.9.4.20200908161514/toolchain/bin/../lib/gcc/powerpc-eabivle/4.9.4/e200z4\libgcc.a(_unpack_sf.o)
 .bss           0x00000000        0x0 c:/spc5studio-6.0/eclipse/plugins/com.st.tools.spc5.tools.gnu.gcc.ppcvle.win32_4.9.4.20200908161514/toolchain/bin/../lib/gcc/powerpc-eabivle/4.9.4/e200z4\libgcc.a(_unpack_sf.o)
 .data          0x00000000        0x0 c:/spc5studio-6.0/eclipse/plugins/com.st.tools.spc5.tools.gnu.gcc.ppcvle.win32_4.9.4.20200908161514/toolchain/bin/../lib/gcc/powerpc-eabivle/4.9.4/e200z4\libgcc.a(_fpcmp_parts_sf.o)
 .bss           0x00000000        0x0 c:/spc5studio-6.0/eclipse/plugins/com.st.tools.spc5.tools.gnu.gcc.ppcvle.win32_4.9.4.20200908161514/toolchain/bin/../lib/gcc/powerpc-eabivle/4.9.4/e200z4\libgcc.a(_fpcmp_parts_sf.o)
 .data          0x00000000        0x0 c:/spc5studio-6.0/eclipse/plugins/com.st.tools.spc5.tools.gnu.gcc.ppcvle.win32_4.9.4.20200908161514/toolchain/bin/../lib/gcc/powerpc-eabivle/4.9.4/e200z4\libgcc.a(_pack_df.o)
 .bss           0x00000000        0x0 c:/spc5studio-6.0/eclipse/plugins/com.st.tools.spc5.tools.gnu.gcc.ppcvle.win32_4.9.4.20200908161514/toolchain/bin/../lib/gcc/powerpc-eabivle/4.9.4/e200z4\libgcc.a(_pack_df.o)
 .data          0x00000000        0x0 c:/spc5studio-6.0/eclipse/plugins/com.st.tools.spc5.tools.gnu.gcc.ppcvle.win32_4.9.4.20200908161514/toolchain/bin/../lib/gcc/powerpc-eabivle/4.9.4/e200z4\libgcc.a(_unpack_df.o)
 .bss           0x00000000        0x0 c:/spc5studio-6.0/eclipse/plugins/com.st.tools.spc5.tools.gnu.gcc.ppcvle.win32_4.9.4.20200908161514/toolchain/bin/../lib/gcc/powerpc-eabivle/4.9.4/e200z4\libgcc.a(_unpack_df.o)
 .data          0x00000000        0x0 c:/spc5studio-6.0/eclipse/plugins/com.st.tools.spc5.tools.gnu.gcc.ppcvle.win32_4.9.4.20200908161514/toolchain/bin/../lib/gcc/powerpc-eabivle/4.9.4/e200z4\libgcc.a(_fpcmp_parts_df.o)
 .bss           0x00000000        0x0 c:/spc5studio-6.0/eclipse/plugins/com.st.tools.spc5.tools.gnu.gcc.ppcvle.win32_4.9.4.20200908161514/toolchain/bin/../lib/gcc/powerpc-eabivle/4.9.4/e200z4\libgcc.a(_fpcmp_parts_df.o)

Memory Configuration

Name             Origin             Length             Attributes
dataflash        0x00800000         0x00040000
flash            0x01000000         0x003c0000
ram              0x40060000         0x00098000
iram0            0x50000000         0x00004000
iram1            0x51000000         0x00004000
iram2            0x52000000         0x00004000
dram0            0x50800000         0x00010000
dram1            0x51800000         0x00010000
dram2            0x52800000         0x00008000
*default*        0x00000000         0xffffffff

Linker script and memory map

LOAD build/obj/boot.o
LOAD build/obj/crt0.o
LOAD build/obj/portasm.o
LOAD build/obj/vectors.o
LOAD build/obj/ivor.o
LOAD build/obj/core0.o
LOAD build/obj/core1.o
LOAD build/obj/cache.o
LOAD build/obj/spc5_lld.o
LOAD build/obj/spc5_edma.o
LOAD build/obj/can_lld.o
LOAD build/obj/croutine.o
LOAD build/obj/list.o
LOAD build/obj/event_groups.o
LOAD build/obj/queue.o
LOAD build/obj/stream_buffer.o
LOAD build/obj/tasks.o
LOAD build/obj/timers.o
LOAD build/obj/port.o
LOAD build/obj/heap_4.o
LOAD build/obj/pal.o
LOAD build/obj/clock.o
LOAD build/obj/irq.o
LOAD build/obj/eirq.o
LOAD build/obj/swirq.o
LOAD build/obj/osal.o
LOAD build/obj/systimer.o
LOAD build/obj/can_lld_cfg.o
LOAD build/obj/board.o
LOAD build/obj/irq_cfg.o
LOAD build/obj/eirq_cfg.o
LOAD build/obj/swirq_cfg.o
LOAD build/obj/main.o
LOAD build/obj/h302.o
LOAD build/obj/CAN_tools.o
LOAD build/obj/crc.o
LOAD build/obj/components.o
LOAD c:/spc5studio-6.0/eclipse/plugins/com.st.tools.spc5.tools.gnu.gcc.ppcvle.win32_4.9.4.20200908161514/toolchain/bin/../lib/gcc/powerpc-eabivle/4.9.4/../../../../powerpc-eabivle/lib/e200z4\libm.a
LOAD c:/spc5studio-6.0/eclipse/plugins/com.st.tools.spc5.tools.gnu.gcc.ppcvle.win32_4.9.4.20200908161514/toolchain/bin/../lib/gcc/powerpc-eabivle/4.9.4/../../../../powerpc-eabivle/lib/e200z4\libc.a
                0x00000000                __irq_stack_size__ = 0x0
                0x00001000                __process_stack_size__ = 0x1000
                0x00000000                __core0_irq_stack_size__ = 0x0
                0x00000800                __core0_process_stack_size__ = 0x800
                0x00000000                __core1_irq_stack_size__ = 0x0
                0x00000800                __core1_process_stack_size__ = 0x800
                0x003c0000                __flash_size__ = LENGTH (flash)
                0x01000000                __flash_start__ = ORIGIN (flash)
                0x013c0000                __flash_end__ = (ORIGIN (flash) + LENGTH (flash))
                0x00098000                __ram_size__ = LENGTH (ram)
                0x40060000                __ram_start__ = ORIGIN (ram)
                0x400f8000                __ram_end__ = (ORIGIN (ram) + LENGTH (ram))
                0x00004000                __iram0_size__ = LENGTH (iram0)
                0x50000000                __iram0_start__ = ORIGIN (iram0)
                0x50004000                __iram0_end__ = (ORIGIN (iram0) + LENGTH (iram0))
                0x00004000                __iram1_size__ = LENGTH (iram1)
                0x51000000                __iram1_start__ = ORIGIN (iram1)
                0x51004000                __iram1_end__ = (ORIGIN (iram1) + LENGTH (iram1))
                0x00004000                __iram2_size__ = LENGTH (iram2)
                0x52000000                __iram2_start__ = ORIGIN (iram2)
                0x52004000                __iram2_end__ = (ORIGIN (iram2) + LENGTH (iram2))
                0x00010000                __dram0_size__ = LENGTH (dram0)
                0x50800000                __dram0_start__ = ORIGIN (dram0)
                0x50810000                __dram0_end__ = (ORIGIN (dram0) + LENGTH (dram0))
                0x00010000                __dram1_size__ = LENGTH (dram1)
                0x51800000                __dram1_start__ = ORIGIN (dram1)
                0x51810000                __dram1_end__ = (ORIGIN (dram1) + LENGTH (dram1))
                0x00008000                __dram2_size__ = LENGTH (dram2)
                0x52800000                __dram2_start__ = ORIGIN (dram2)
                0x52808000                __dram2_end__ = (ORIGIN (dram2) + LENGTH (dram2))
                0x01000000                . = ORIGIN (flash)

.boot0          0x01000000      0x562
 *(.boot)
 .boot          0x01000000      0x2f6 build/obj/boot.o
                0x01000010                _reset_address0
                0x01000038                _reset_address1
                0x01000060                _reset_address2
                0x01000090                _boot_address0
                0x01000090                _boot_address1
 *(.handlers)
 *fill*         0x010002f6        0xa 
 .handlers      0x01000300        0xa build/obj/boot.o
                0x01000300                _C0_IVOR15
                0x01000300                _C0_IVOR3
                0x01000300                _C0_IVOR9
                0x01000300                _C0_IVOR2
                0x01000300                _C0_IVOR11
                0x01000300                _C0_IVOR7
                0x01000300                _C0_IVOR12
                0x01000300                _C0_IVOR1
                0x01000300                _C0_IVOR8
                0x01000300                _unhandled_exception0
                0x01000300                _C0_IVOR13
                0x01000300                _C0_IVOR0
                0x01000300                _C0_IVOR5
                0x01000300                _C0_IVOR14
                0x01000300                _C0_IVOR6
                0x01000304                _C1_IVOR11
                0x01000304                _C1_IVOR8
                0x01000304                _C1_IVOR12
                0x01000304                _C1_IVOR6
                0x01000304                _C1_IVOR14
                0x01000304                _C1_IVOR7
                0x01000304                _C1_IVOR5
                0x01000304                _C1_IVOR1
                0x01000304                _unhandled_exception1
                0x01000304                _C1_IVOR15
                0x01000304                _C1_IVOR2
                0x01000304                _C1_IVOR13
                0x01000304                _C1_IVOR0
                0x01000304                _C1_IVOR3
                0x01000304                _C1_IVOR9
                0x01000308                _IVOR9
                0x01000308                _IVOR12
                0x01000308                _IVOR1
                0x01000308                _unhandled_exception2
                0x01000308                _IVOR3
                0x01000308                _IVOR6
                0x01000308                _IVOR14
                0x01000308                _IVOR2
                0x01000308                _IVOR13
                0x01000308                _IVOR11
                0x01000308                _IVOR15
                0x01000308                _IVOR0
                0x01000308                _IVOR7
                0x01000308                _IVOR5
 *fill*         0x0100030a        0x6 
 .handlers      0x01000310      0x1c2 build/obj/portasm.o
                0x01000310                _IVOR8
                0x010003b0                _IVOR4
                0x01000480                vPortStartFirstTask
 *(.crt0)
 *fill*         0x010004d2        0xe 
 .crt0          0x010004e0       0x82 build/obj/crt0.o
                0x010004e0                _boot_address
                0x01000558                _main_exit_handler
                0x0100055e                __late_init
                0x01000560                __eabi

.boot1          0x01000570     0x1a92
                0x01000600                . = ALIGN (0x100)
 *fill*         0x01000570       0x90 
                0x01000600                __ivpr0_base__ = .
 *(.core0_ivors)
 .core0_ivors   0x01000600       0xf4 build/obj/boot.o
                0x01000600                C0_IVORS
                0x01000700                . = ALIGN (0x100)
 *fill*         0x010006f4        0xc 
                0x01000700                __ivpr1_base__ = .
 *(.core1_ivors)
 .core1_ivors   0x01000700       0xf4 build/obj/boot.o
                0x01000700                C1_IVORS
                0x01000800                . = ALIGN (0x100)
 *fill*         0x010007f4        0xc 
                0x01000800                __ivpr2_base__ = .
 *(.core2_ivors)
 .core2_ivors   0x01000800       0xf4 build/obj/boot.o
                0x01000800                IVORS
                0x01001000                . = ALIGN (0x1000)
 *fill*         0x010008f4      0x70c 
 *(.vectors)
 .vectors       0x01001000     0x1002 build/obj/vectors.o
                0x01001000                _vectors
                0x01002000                vector646
                0x01002000                vector276
                0x01002000                vector827
                0x01002000                vector403
                0x01002000                vector444
                0x01002000                vector971
                0x01002000                vector198
                0x01002000                vector689
                0x01002000                vector25
                0x01002000                vector710
                0x01002000                vector548
                0x01002000                vector464
                0x01002000                vector837
                0x01002000                vector937
                0x01002000                vector725
                0x01002000                vector722
                0x01002000                vector769
                0x01002000                vector569
                0x01002000                vector664
                0x01002000                vector487
                0x01002000                vector151
                0x01002000                vector50
                0x01002000                vector15
                0x01002000                vector848
                0x01002000                vector1017
                0x01002000                vector501
                0x01002000                vector234
                0x01002000                vector723
                0x01002000                vector604
                0x01002000                vector387
                0x01002000                vector933
                0x01002000                vector602
                0x01002000                vector232
                0x01002000                vector635
                0x01002000                vector878
                0x01002000                vector407
                0x01002000                vector757
                0x01002000                vector772
                0x01002000                vector729
                0x01002000                vector342
                0x01002000                vector149
                0x01002000                vector265
                0x01002000                vector880
                0x01002000                vector163
                0x01002000                vector1003
                0x01002000                vector759
                0x01002000                vector982
                0x01002000                vector774
                0x01002000                vector513
                0x01002000                vector421
                0x01002000                vector401
                0x01002000                vector351
                0x01002000                vector481
                0x01002000                vector220
                0x01002000                vector835
                0x01002000                vector294
                0x01002000                vector529
                0x01002000                vector179
                0x01002000                vector886
                0x01002000                vector909
                0x01002000                vector308
                0x01002000                vector537
                0x01002000                vector187
                0x01002000                vector225
                0x01002000                vector680
                0x01002000                vector494
                0x01002000                vector599
                0x01002000                vector424
                0x01002000                vector843
                0x01002000                vector467
                0x01002000                vector1015
                0x01002000                vector804
                0x01002000                vector883
                0x01002000                vector551
                0x01002000                vector1009
                0x01002000                vector814
                0x01002000                vector542
                0x01002000                vector382
                0x01002000                vector841
                0x01002000                vector370
                0x01002000                vector337
                0x01002000                vector739
                0x01002000                vector302
                0x01002000                vector30
                0x01002000                vector556
                0x01002000                vector386
                0x01002000                vector367
                0x01002000                vector46
                0x01002000                vector988
                0x01002000                vector743
                0x01002000                vector437
                0x01002000                vector1023
                0x01002000                vector34
                0x01002000                vector268
                0x01002000                vector764
                0x01002000                vector990
                0x01002000                vector786
                0x01002000                vector794
                0x01002000                vector638
                0x01002000                vector223
                0x01002000                vector881
                0x01002000                vector218
                0x01002000                vector994
                0x01002000                vector662
                0x01002000                vector292
                0x01002000                vector325
                0x01002000                vector341
                0x01002000                vector713
                0x01002000                vector945
                0x01002000                vector892
                0x01002000                vector410
                0x01002000                vector322
                0x01002000                vector888
                0x01002000                vector393
                0x01002000                vector8
                0x01002000                vector582
                0x01002000                vector916
                0x01002000                vector842
                0x01002000                vector510
                0x01002000                vector160
                0x01002000                vector344
                0x01002000                vector264
                0x01002000                vector634
                0x01002000                vector472
                0x01002000                vector628
                0x01002000                vector258
                0x01002000                vector927
                0x01002000                vector887
                0x01002000                vector559
                0x01002000                vector215
                0x01002000                vector727
                0x01002000                vector423
                0x01002000                vector995
                0x01002000                vector826
                0x01002000                vector532
                0x01002000                vector490
                0x01002000                vector416
                0x01002000                vector352
                0x01002000                vector347
                0x01002000                vector389
                0x01002000                vector507
                0x01002000                vector157
                0x01002000                vector161
                0x01002000                vector511
                0x01002000                vector908
                0x01002000                vector904
                0x01002000                vector850
                0x01002000                vector502
                0x01002000                vector152
                0x01002000                vector838
                0x01002000                vector681
                0x01002000                vector555
                0x01002000                vector455
                0x01002000                vector920
                0x01002000                vector547
                0x01002000                vector197
                0x01002000                vector596
                0x01002000                vector972
                0x01002000                vector598
                0x01002000                vector868
                0x01002000                vector37
                0x01002000                vector690
                0x01002000                vector364
                0x01002000                vector205
                0x01002000                vector823
                0x01002000                vector459
                0x01002000                vector600
                0x01002000                vector230
                0x01002000                vector761
                0x01002000                vector415
                0x01002000                vector339
                0x01002000                vector182
                0x01002000                vector466
                0x01002000                vector469
                0x01002000                vector273
                0x01002000                vector523
                0x01002000                vector173
                0x01002000                vector637
                0x01002000                vector643
                0x01002000                vector44
                0x01002000                vector731
                0x01002000                vector830
                0x01002000                vector991
                0x01002000                vector670
                0x01002000                vector49
                0x01002000                vector267
                0x01002000                vector566
                0x01002000                vector485
                0x01002000                vector675
                0x01002000                vector704
                0x01002000                vector222
                0x01002000                vector978
                0x01002000                vector426
                0x01002000                vector379
                0x01002000                vector956
                0x01002000                vector442
                0x01002000                vector911
                0x01002000                vector336
                0x01002000                vector686
                0x01002000                vector943
                0x01002000                vector818
                0x01002000                vector572
                0x01002000                vector321
                0x01002000                vector575
                0x01002000                vector1002
                0x01002000                vector383
                0x01002000                vector20
                0x01002000                vector712
                0x01002000                vector309
                0x01002000                vector950
                0x01002000                vector1000
                0x01002000                vector12
                0x01002000                vector1007
                0x01002000                vector719
                0x01002000                vector986
                0x01002000                vector863
                0x01002000                vector18
                0x01002000                vector366
                0x01002000                vector776
                0x01002000                vector491
                0x01002000                vector456
                0x01002000                vector417
                0x01002000                vector286
                0x01002000                vector319
                0x01002000                vector907
                0x01002000                vector873
                0x01002000                vector656
                0x01002000                vector303
                0x01002000                vector192
                0x01002000                vector516
                0x01002000                vector166
                0x01002000                vector489
                0x01002000                vector931
                0x01002000                vector658
                0x01002000                vector288
                0x01002000                vector564
                0x01002000                vector861
                0x01002000                vector906
                0x01002000                vector184
                0x01002000                vector577
                0x01002000                vector683
                0x01002000                vector358
                0x01002000                vector446
                0x01002000                vector326
                0x01002000                vector207
                0x01002000                vector188
                0x01002000                vector585
                0x01002000                vector636
                0x01002000                vector266
                0x01002000                vector411
                0x01002000                vector538
                0x01002000                vector567
                0x01002000                vector915
                0x01002000                vector540
                0x01002000                vector190
                0x01002000                vector609
                0x01002000                vector239
                0x01002000                vector534
                0x01002000                vector360
                0x01002000                vector17
                0x01002000                vector654
                0x01002000                vector284
                0x01002000                vector452
                0x01002000                vector782
                0x01002000                vector768
                0x01002000                vector1005
                0x01002000                vector831
                0x01002000                vector633
                0x01002000                vector263
                0x01002000                vector581
                0x01002000                vector882
                0x01002000                vector685
                0x01002000                vector869
                0x01002000                vector992
                0x01002000                vector315
                0x01002000                vector976
                0x01002000                vector640
                0x01002000                vector270
                0x01002000                vector717
                0x01002000                vector755
                0x01002000                vector735
                0x01002000                vector699
                0x01002000                vector439
                0x01002000                vector721
                0x01002000                vector497
                0x01002000                vector824
                0x01002000                vector847
                0x01002000                vector48
                0x01002000                vector781
                0x01002000                vector984
                0x01002000                vector462
                0x01002000                vector586
                0x01002000                vector350
                0x01002000                vector926
                0x01002000                vector299
                0x01002000                vector897
                0x01002000                vector815
                0x01002000                vector541
                0x01002000                vector191
                0x01002000                vector669
                0x01002000                vector997
                0x01002000                vector854
                0x01002000                vector447
                0x01002000                vector11
                0x01002000                vector14
                0x01002000                vector952
                0x01002000                vector499
                0x01002000                vector480
                0x01002000                vector397
                0x01002000                vector941
                0x01002000                vector454
                0x01002000                vector708
                0x01002000                vector679
                0x01002000                vector406
                0x01002000                vector969
                0x01002000                vector338
                0x01002000                vector385
                0x01002000                vector936
                0x01002000                vector221
                0x01002000                vector912
                0x01002000                vector353
                0x01002000                vector521
                0x01002000                vector219
                0x01002000                vector310
                0x01002000                vector659
                0x01002000                vector289
                0x01002000                vector663
                0x01002000                vector293
                0x01002000                vector957
                0x01002000                vector171
                0x01002000                vector504
                0x01002000                vector340
                0x01002000                vector851
                0x01002000                vector449
                0x01002000                vector405
                0x01002000                vector800
                0x01002000                vector716
                0x01002000                vector849
                0x01002000                vector154
                0x01002000                vector36
                0x01002000                vector894
                0x01002000                vector605
                0x01002000                vector235
                0x01002000                vector766
                0x01002000                vector874
                0x01002000                vector272
                0x01002000                vector914
                0x01002000                vector563
                0x01002000                vector902
                0x01002000                vector949
                0x01002000                vector867
                0x01002000                vector879
                0x01002000                vector1012
                0x01002000                vector503
                0x01002000                vector153
                0x01002000                vector514
                0x01002000                vector164
                0x01002000                vector973
                0x01002000                vector754
                0x01002000                vector5
                0x01002000                vector619
                0x01002000                vector249
                0x01002000                vector938
                0x01002000                vector836
                0x01002000                vector318
                0x01002000                vector822
                0x01002000                vector155
                0x01002000                vector320
                0x01002000                vector517
                0x01002000                vector167
                0x01002000                vector944
                0x01002000                vector505
                0x01002000                vector987
                0x01002000                vector684
                0x01002000                vector959
                0x01002000                vector150
                0x01002000                vector304
                0x01002000                vector618
                0x01002000                vector248
                0x01002000                vector479
                0x01002000                vector500
                0x01002000                vector587
                0x01002000                vector434
                0x01002000                vector594
                0x01002000                vector590
                0x01002000                vector545
                0x01002000                vector195
                0x01002000                vector343
                0x01002000                vector865
                0x01002000                vector939
                0x01002000                vector31
                0x01002000                vector388
                0x01002000                vector799
                0x01002000                vector203
                0x01002000                vector820
                0x01002000                vector271
                0x01002000                vector665
                0x01002000                vector295
                0x01002000                vector427
                0x01002000                vector891
                0x01002000                vector641
                0x01002000                vector365
                0x01002000                vector620
                0x01002000                vector471
                0x01002000                vector28
                0x01002000                vector703
                0x01002000                vector550
                0x01002000                vector519
                0x01002000                vector785
                0x01002000                vector910
                0x01002000                vector323
                0x01002000                vector744
                0x01002000                vector955
                0x01002000                vector368
                0x01002000                vector934
                0x01002000                vector169
                0x01002000                vector809
                0x01002000                vector413
                0x01002000                vector866
                0x01002000                vector821
                0x01002000                vector457
                0x01002000                vector642
                0x01002000                vector780
                0x01002000                vector742
                0x01002000                vector392
                0x01002000                vector474
                0x01002000                vector603
                0x01002000                vector233
                0x01002000                vector593
                0x01002000                vector202
                0x01002000                vector373
                0x01002000                vector1019
                0x01002000                vector441
                0x01002000                vector756
                0x01002000                vector787
                0x01002000                vector749
                0x01002000                vector966
                0x01002000                vector698
                0x01002000                vector204
                0x01002000                vector250
                0x01002000                vector591
                0x01002000                vector653
                0x01002000                vector283
                0x01002000                vector726
                0x01002000                vector484
                0x01002000                vector630
                0x01002000                vector668
                0x01002000                vector298
                0x01002000                vector657
                0x01002000                vector287
                0x01002000                vector22
                0x01002000                vector247
                0x01002000                vector617
                0x01002000                vector260
                0x01002000                vector979
                0x01002000                vector330
                0x01002000                vector561
                0x01002000                vector923
                0x01002000                vector553
                0x01002000                vector893
                0x01002000                vector6
                0x01002000                vector277
                0x01002000                vector607
                0x01002000                vector237
                0x01002000                vector27
                0x01002000                vector468
                0x01002000                vector647
                0x01002000                vector579
                0x01002000                vector177
                0x01002000                vector425
                0x01002000                vector328
                0x01002000                vector918
                0x01002000                vector477
                0x01002000                vector701
                0x01002000                vector312
                0x01002000                vector217
                0x01002000                vector355
                0x01002000                vector661
                0x01002000                vector291
                0x01002000                vector970
                0x01002000                vector1013
                0x01002000                vector186
                0x01002000                vector372
                0x01002000                vector583
                0x01002000                vector807
                0x01002000                vector390
                0x01002000                vector536
                0x01002000                vector527
                0x01002000                vector803
                0x01002000                vector21
                0x01002000                vector316
                0x01002000                vector905
                0x01002000                vector375
                0x01002000                vector1022
                0x01002000                vector335
                0x01002000                vector671
                0x01002000                vector210
                0x01002000                vector332
                0x01002000                vector227
                0x01002000                vector834
                0x01002000                vector363
                0x01002000                vector983
                0x01002000                vector307
                0x01002000                vector1011
                0x01002000                vector41
                0x01002000                vector872
                0x01002000                vector432
                0x01002000                vector1018
                0x01002000                vector728
                0x01002000                vector378
                0x01002000                vector738
                0x01002000                vector224
                0x01002000                vector790
                0x01002000                vector381
                0x01002000                vector346
                0x01002000                vector940
                0x01002000                vector998
                0x01002000                vector436
                0x01002000                vector993
                0x01002000                vector613
                0x01002000                vector492
                0x01002000                vector495
                0x01002000                vector753
                0x01002000                vector924
                0x01002000                vector174
                0x01002000                vector211
                0x01002000                vector418
                0x01002000                vector889
                0x01002000                vector450
                0x01002000                vector524
                0x01002000                vector844
                0x01002000                vector552
                0x01002000                vector960
                0x01002000                vector714
                0x01002000                vector595
                0x01002000                vector946
                0x01002000                vector839
                0x01002000                vector16
                0x01002000                vector51
                0x01002000                vector765
                0x01002000                vector1008
                0x01002000                vector677
                0x01002000                vector13
                0x01002000                vector460
                0x01002000                vector362
                0x01002000                vector798
                0x01002000                vector300
                0x01002000                vector953
                0x01002000                vector652
                0x01002000                vector282
                0x01002000                vector608
                0x01002000                vector238
                0x01002000                vector38
                0x01002000                vector178
                0x01002000                vector650
                0x01002000                vector280
                0x01002000                vector980
                0x01002000                vector1
                0x01002000                vector528
                0x01002000                vector557
                0x01002000                vector311
                0x01002000                vector354
                0x01002000                vector624
                0x01002000                vector254
                0x01002000                vector763
                0x01002000                vector1001
                0x01002000                vector349
                0x01002000                vector929
                0x01002000                vector644
                0x01002000                vector274
                0x01002000                vector737
                0x01002000                vector967
                0x01002000                vector687
                0x01002000                vector269
                0x01002000                vector639
                0x01002000                vector568
                0x01002000                vector571
                0x01002000                vector535
                0x01002000                vector185
                0x01002000                vector760
                0x01002000                vector942
                0x01002000                vector165
                0x01002000                vector515
                0x01002000                vector451
                0x01002000                vector900
                0x01002000                vector750
                0x01002000                vector435
                0x01002000                vector496
                0x01002000                vector748
                0x01002000                vector580
                0x01002000                vector398
                0x01002000                vector430
                0x01002000                vector506
                0x01002000                vector156
                0x01002000                vector975
                0x01002000                vector709
                0x01002000                vector676
                0x01002000                vector333
                0x01002000                vector817
                0x01002000                vector578
                0x01002000                vector376
                0x01002000                vector412
                0x01002000                vector682
                0x01002000                vector43
                0x01002000                vector493
                0x01002000                vector621
                0x01002000                vector251
                0x01002000                vector429
                0x01002000                _unhandled_irq
                0x01002000                vector584
                0x01002000                vector256
                0x01002000                vector626
                0x01002000                vector767
                0x01002000                vector612
                0x01002000                vector242
                0x01002000                vector829
                0x01002000                vector720
                0x01002000                vector345
                0x01002000                vector718
                0x01002000                vector296
                0x01002000                vector715
                0x01002000                vector213
                0x01002000                vector985
                0x01002000                vector947
                0x01002000                vector666
                0x01002000                vector419
                0x01002000                vector762
                0x01002000                vector795
                0x01002000                vector33
                0x01002000                vector512
                0x01002000                vector162
                0x01002000                vector615
                0x01002000                vector245
                0x01002000                vector812
                0x01002000                vector859
                0x01002000                vector961
                0x01002000                vector740
                0x01002000                vector919
                0x01002000                vector348
                0x01002000                vector404
                0x01002000                vector783
                0x01002000                vector214
                0x01002000                vector870
                0x01002000                vector770
                0x01002000                vector954
                0x01002000                vector522
                0x01002000                vector172
                0x01002000                vector3
                0x01002000                vector2
                0x01002000                vector359
                0x01002000                vector833
                0x01002000                vector565
                0x01002000                vector253
                0x01002000                vector623
                0x01002000                vector877
                0x01002000                vector461
                0x01002000                vector611
                0x01002000                vector241
                0x01002000                vector876
                0x01002000                vector819
                0x01002000                vector999
                0x01002000                vector257
                0x01002000                vector802
                0x01002000                vector431
                0x01002000                vector380
                0x01002000                vector862
                0x01002000                vector24
                0x01002000                vector7
                0x01002000                vector189
                0x01002000                vector816
                0x01002000                vector306
                0x01002000                vector1014
                0x01002000                vector539
                0x01002000                vector475
                0x01002000                vector711
                0x01002000                vector930
                0x01002000                vector974
                0x01002000                vector562
                0x01002000                vector773
                0x01002000                vector864
                0x01002000                vector627
                0x01002000                vector928
                0x01002000                vector736
                0x01002000                vector200
                0x01002000                vector655
                0x01002000                vector285
                0x01002000                vector414
                0x01002000                vector476
                0x01002000                vector989
                0x01002000                vector610
                0x01002000                vector240
                0x01002000                vector384
                0x01002000                vector734
                0x01002000                vector601
                0x01002000                vector231
                0x01002000                vector968
                0x01002000                vector278
                0x01002000                vector648
                0x01002000                vector329
                0x01002000                vector747
                0x01002000                vector606
                0x01002000                vector236
                0x01002000                vector1020
                0x01002000                vector29
                0x01002000                vector796
                0x01002000                vector463
                0x01002000                vector180
                0x01002000                vector632
                0x01002000                vector262
                0x01002000                vector996
                0x01002000                vector530
                0x01002000                vector408
                0x01002000                vector420
                0x01002000                vector314
                0x01002000                vector771
                0x01002000                vector357
                0x01002000                vector925
                0x01002000                vector932
                0x01002000                vector488
                0x01002000                vector779
                0x01002000                vector554
                0x01002000                vector327
                0x01002000                vector374
                0x01002000                vector201
                0x01002000                vector745
                0x01002000                vector903
                0x01002000                vector962
                0x01002000                vector9
                0x01002000                vector860
                0x01002000                vector458
                0x01002000                vector394
                0x01002000                vector811
                0x01002000                vector935
                0x01002000                vector792
                0x01002000                vector470
                0x01002000                vector758
                0x01002000                vector977
                0x01002000                vector473
                0x01002000                vector23
                0x01002000                vector678
                0x01002000                vector445
                0x01002000                vector597
                0x01002000                vector361
                0x01002000                vector845
                0x01002000                vector631
                0x01002000                vector261
                0x01002000                vector751
                0x01002000                vector208
                0x01002000                vector443
                0x01002000                vector777
                0x01002000                vector964
                0x01002000                vector40
                0x01002000                vector732
                0x01002000                vector853
                0x01002000                vector422
                0x01002000                vector651
                0x01002000                vector281
                0x01002000                vector805
                0x01002000                vector1021
                0x01002000                vector570
                0x01002000                vector486
                0x01002000                vector465
                0x01002000                vector746
                0x01002000                vector855
                0x01002000                vector963
                0x01002000                vector649
                0x01002000                vector279
                0x01002000                vector724
                0x01002000                vector1010
                0x01002000                vector898
                0x01002000                vector789
                0x01002000                vector301
                0x01002000                vector700
                0x01002000                vector921
                0x01002000                vector896
                0x01002000                vector730
                0x01002000                vector297
                0x01002000                vector526
                0x01002000                vector176
                0x01002000                vector857
                0x01002000                vector544
                0x01002000                vector194
                0x01002000                vector396
                0x01002000                vector402
                0x01002000                vector482
                0x01002000                vector438
                0x01002000                vector573
                0x01002000                vector707
                0x01002000                vector784
                0x01002000                vector32
                0x01002000                vector951
                0x01002000                vector622
                0x01002000                vector252
                0x01002000                vector0
                0x01002000                vector828
                0x01002000                vector667
                0x01002000                vector775
                0x01002000                vector589
                0x01002000                vector810
                0x01002000                vector549
                0x01002000                vector199
                0x01002000                vector741
                0x01002000                vector448
                0x01002000                vector331
                0x01002000                vector705
                0x01002000                vector858
                0x01002000                vector483
                0x01002000                vector813
                0x01002000                vector702
                0x01002000                vector391
                0x01002000                vector324
                0x01002000                vector895
                0x01002000                vector313
                0x01002000                vector793
                0x01002000                vector440
                0x01002000                vector840
                0x01002000                vector409
                0x01002000                vector688
                0x01002000                vector981
                0x01002000                vector356
                0x01002000                vector588
                0x01002000                vector660
                0x01002000                vector290
                0x01002000                vector629
                0x01002000                vector259
                0x01002000                vector196
                0x01002000                vector546
                0x01002000                vector216
                0x01002000                vector26
                0x01002000                vector875
                0x01002000                vector543
                0x01002000                vector193
                0x01002000                vector275
                0x01002000                vector645
                0x01002000                vector1016
                0x01002000                vector614
                0x01002000                vector1006
                0x01002000                vector498
                0x01002000                vector806
                0x01002000                vector797
                0x01002000                vector778
                0x01002000                vector733
                0x01002000                vector791
                0x01002000                vector19
                0x01002000                vector453
                0x01002000                vector846
                0x01002000                vector305
                0x01002000                vector45
                0x01002000                vector229
                0x01002000                vector168
                0x01002000                vector592
                0x01002000                vector871
                0x01002000                vector35
                0x01002000                vector885
                0x01002000                vector518
                0x01002000                vector39
                0x01002000                vector508
                0x01002000                vector158
                0x01002000                vector752
                0x01002000                vector673
                0x01002000                vector428
                0x01002000                vector209
                0x01002000                vector369
                0x01002000                vector856
                0x01002000                vector672
                0x01002000                vector576
                0x01002000                vector899
                0x01002000                vector47
                0x01002000                vector212
                0x01002000                vector159
                0x01002000                vector574
                0x01002000                vector825
                0x01002000                vector533
                0x01002000                vector183
                0x01002000                vector509
                0x01002000                vector948
                0x01002000                vector228
                0x01002000                vector958
                0x01002000                vector377
                0x01002000                vector788
                0x01002000                vector616
                0x01002000                vector246
                0x01002000                vector913
                0x01002000                vector175
                0x01002000                vector42
                0x01002000                vector334
                0x01002000                vector901
                0x01002000                vector674
                0x01002000                vector525
                0x01002000                vector558
                0x01002000                vector801
                0x01002000                vector890
                0x01002000                vector706
                0x01002000                vector399
                0x01002000                vector1004
                0x01002000                vector832
                0x01002000                vector395
                0x01002000                vector4
                0x01002000                vector691
                0x01002000                vector433
                0x01002000                vector917
                0x01002000                vector852
                0x01002000                vector478
                0x01002000                vector965
                0x01002000                vector520
                0x01002000                vector170
                0x01002000                vector400
                0x01002000                vector317
                0x01002000                vector371
                0x01002000                vector531
                0x01002000                vector181
                0x01002000                vector255
                0x01002000                vector625
                0x01002000                vector10
                0x01002000                vector808
                0x01002000                vector206
                0x01002000                vector560
                0x01002000                vector922
                0x01002000                vector884

constructors    0x01002004        0x0
                [!provide]                PROVIDE (__init_array_start, .)
 *(SORT(.init_array.*))
 *(.init_array)
                [!provide]                PROVIDE (__init_array_end, .)

destructors     0x01002004        0x0
                [!provide]                PROVIDE (__fini_array_start, .)
 *(.fini_array)
 *(SORT(.fini_array.*))
                [!provide]                PROVIDE (__fini_array_end, .)

.text_vle
 *(.text_vle)
 *(.text_vle.*)
 *(.gnu.linkonce.t_vle.*)

.text           0x01002010     0x7c76
 *(.text)
 .text          0x01002010       0x44 c:/spc5studio-6.0/eclipse/plugins/com.st.tools.spc5.tools.gnu.gcc.ppcvle.win32_4.9.4.20200908161514/toolchain/bin/../lib/gcc/powerpc-eabivle/4.9.4/e200z4\libgcc.a(_fixunssfsi.o)
                0x01002010                __fixunssfsi
 *fill*         0x01002054        0xc 
 .text          0x01002060       0x56 c:/spc5studio-6.0/eclipse/plugins/com.st.tools.spc5.tools.gnu.gcc.ppcvle.win32_4.9.4.20200908161514/toolchain/bin/../lib/gcc/powerpc-eabivle/4.9.4/e200z4\libgcc.a(_fixunsdfsi.o)
                0x01002060                __fixunsdfsi
 *fill*         0x010020b6        0xa 
 .text          0x010020c0      0x242 c:/spc5studio-6.0/eclipse/plugins/com.st.tools.spc5.tools.gnu.gcc.ppcvle.win32_4.9.4.20200908161514/toolchain/bin/../lib/gcc/powerpc-eabivle/4.9.4/e200z4\libgcc.a(_addsub_sf.o)
                0x01002264                __addsf3
                0x010022b0                __subsf3
 *fill*         0x01002302        0xe 
 .text          0x01002310      0x17e c:/spc5studio-6.0/eclipse/plugins/com.st.tools.spc5.tools.gnu.gcc.ppcvle.win32_4.9.4.20200908161514/toolchain/bin/../lib/gcc/powerpc-eabivle/4.9.4/e200z4\libgcc.a(_mul_sf.o)
                0x01002310                __mulsf3
 *fill*         0x0100248e        0x2 
 .text          0x01002490       0x5a c:/spc5studio-6.0/eclipse/plugins/com.st.tools.spc5.tools.gnu.gcc.ppcvle.win32_4.9.4.20200908161514/toolchain/bin/../lib/gcc/powerpc-eabivle/4.9.4/e200z4\libgcc.a(_gt_sf.o)
                0x01002490                __gtsf2
 *fill*         0x010024ea        0x6 
 .text          0x010024f0       0x5a c:/spc5studio-6.0/eclipse/plugins/com.st.tools.spc5.tools.gnu.gcc.ppcvle.win32_4.9.4.20200908161514/toolchain/bin/../lib/gcc/powerpc-eabivle/4.9.4/e200z4\libgcc.a(_ge_sf.o)
                0x010024f0                __gesf2
 *fill*         0x0100254a        0x6 
 .text          0x01002550       0x5a c:/spc5studio-6.0/eclipse/plugins/com.st.tools.spc5.tools.gnu.gcc.ppcvle.win32_4.9.4.20200908161514/toolchain/bin/../lib/gcc/powerpc-eabivle/4.9.4/e200z4\libgcc.a(_lt_sf.o)
                0x01002550                __ltsf2
 *fill*         0x010025aa        0x6 
 .text          0x010025b0       0x6a c:/spc5studio-6.0/eclipse/plugins/com.st.tools.spc5.tools.gnu.gcc.ppcvle.win32_4.9.4.20200908161514/toolchain/bin/../lib/gcc/powerpc-eabivle/4.9.4/e200z4\libgcc.a(_si_to_sf.o)
                0x010025b0                __floatsisf
 *fill*         0x0100261a        0x6 
 .text          0x01002620       0x88 c:/spc5studio-6.0/eclipse/plugins/com.st.tools.spc5.tools.gnu.gcc.ppcvle.win32_4.9.4.20200908161514/toolchain/bin/../lib/gcc/powerpc-eabivle/4.9.4/e200z4\libgcc.a(_sf_to_si.o)
                0x01002620                __fixsfsi
 *fill*         0x010026a8        0x8 
 .text          0x010026b0       0x38 c:/spc5studio-6.0/eclipse/plugins/com.st.tools.spc5.tools.gnu.gcc.ppcvle.win32_4.9.4.20200908161514/toolchain/bin/../lib/gcc/powerpc-eabivle/4.9.4/e200z4\libgcc.a(_sf_to_df.o)
                0x010026b0                __extendsfdf2
 *fill*         0x010026e8        0x8 
 .text          0x010026f0       0x84 c:/spc5studio-6.0/eclipse/plugins/com.st.tools.spc5.tools.gnu.gcc.ppcvle.win32_4.9.4.20200908161514/toolchain/bin/../lib/gcc/powerpc-eabivle/4.9.4/e200z4\libgcc.a(_usi_to_sf.o)
                0x010026f0                __floatunsisf
 *fill*         0x01002774        0xc 
 .text          0x01002780      0x376 c:/spc5studio-6.0/eclipse/plugins/com.st.tools.spc5.tools.gnu.gcc.ppcvle.win32_4.9.4.20200908161514/toolchain/bin/../lib/gcc/powerpc-eabivle/4.9.4/e200z4\libgcc.a(_addsub_df.o)
                0x01002a38                __adddf3
                0x01002a94                __subdf3
 *fill*         0x01002af6        0xa 
 .text          0x01002b00      0x17e c:/spc5studio-6.0/eclipse/plugins/com.st.tools.spc5.tools.gnu.gcc.ppcvle.win32_4.9.4.20200908161514/toolchain/bin/../lib/gcc/powerpc-eabivle/4.9.4/e200z4\libgcc.a(_div_df.o)
                0x01002b00                __divdf3
 *fill*         0x01002c7e        0x2 
 .text          0x01002c80       0x64 c:/spc5studio-6.0/eclipse/plugins/com.st.tools.spc5.tools.gnu.gcc.ppcvle.win32_4.9.4.20200908161514/toolchain/bin/../lib/gcc/powerpc-eabivle/4.9.4/e200z4\libgcc.a(_ge_df.o)
                0x01002c80                __gedf2
 *fill*         0x01002ce4        0xc 
 .text          0x01002cf0       0xa4 c:/spc5studio-6.0/eclipse/plugins/com.st.tools.spc5.tools.gnu.gcc.ppcvle.win32_4.9.4.20200908161514/toolchain/bin/../lib/gcc/powerpc-eabivle/4.9.4/e200z4\libgcc.a(_df_to_si.o)
                0x01002cf0                __fixdfsi
 *fill*         0x01002d94        0xc 
 .text          0x01002da0       0x26 c:/spc5studio-6.0/eclipse/plugins/com.st.tools.spc5.tools.gnu.gcc.ppcvle.win32_4.9.4.20200908161514/toolchain/bin/../lib/gcc/powerpc-eabivle/4.9.4/e200z4\libgcc.a(_make_df.o)
                0x01002da0                __make_dp
 *fill*         0x01002dc6        0xa 
 .text          0x01002dd0      0x118 c:/spc5studio-6.0/eclipse/plugins/com.st.tools.spc5.tools.gnu.gcc.ppcvle.win32_4.9.4.20200908161514/toolchain/bin/../lib/gcc/powerpc-eabivle/4.9.4/e200z4\libgcc.a(_pack_sf.o)
                0x01002dd0                __pack_f
 *fill*         0x01002ee8        0x8 
 .text          0x01002ef0       0x80 c:/spc5studio-6.0/eclipse/plugins/com.st.tools.spc5.tools.gnu.gcc.ppcvle.win32_4.9.4.20200908161514/toolchain/bin/../lib/gcc/powerpc-eabivle/4.9.4/e200z4\libgcc.a(_unpack_sf.o)
                0x01002ef0                __unpack_f
 .text          0x01002f70       0xa2 c:/spc5studio-6.0/eclipse/plugins/com.st.tools.spc5.tools.gnu.gcc.ppcvle.win32_4.9.4.20200908161514/toolchain/bin/../lib/gcc/powerpc-eabivle/4.9.4/e200z4\libgcc.a(_fpcmp_parts_sf.o)
                0x01002f70                __fpcmp_parts_f
 *fill*         0x01003012        0xe 
 .text          0x01003020      0x1fc c:/spc5studio-6.0/eclipse/plugins/com.st.tools.spc5.tools.gnu.gcc.ppcvle.win32_4.9.4.20200908161514/toolchain/bin/../lib/gcc/powerpc-eabivle/4.9.4/e200z4\libgcc.a(_pack_df.o)
                0x01003020                __pack_d
 *fill*         0x0100321c        0x4 
 .text          0x01003220       0xb0 c:/spc5studio-6.0/eclipse/plugins/com.st.tools.spc5.tools.gnu.gcc.ppcvle.win32_4.9.4.20200908161514/toolchain/bin/../lib/gcc/powerpc-eabivle/4.9.4/e200z4\libgcc.a(_unpack_df.o)
                0x01003220                __unpack_d
 .text          0x010032d0       0xba c:/spc5studio-6.0/eclipse/plugins/com.st.tools.spc5.tools.gnu.gcc.ppcvle.win32_4.9.4.20200908161514/toolchain/bin/../lib/gcc/powerpc-eabivle/4.9.4/e200z4\libgcc.a(_fpcmp_parts_df.o)
                0x010032d0                __fpcmp_parts_d
 *(.text.*)
 *fill*         0x0100338a        0x6 
 .text.spc5LLDInit
                0x01003390       0x16 build/obj/spc5_lld.o
                0x01003390                spc5LLDInit
 *fill*         0x010033a6        0xa 
 .text.vector52
                0x010033b0       0xda build/obj/spc5_edma.o
                0x010033b0                vector52
 *fill*         0x0100348a        0x6 
 .text.vector53
                0x01003490       0x5c build/obj/spc5_edma.o
                0x01003490                vector53
 *fill*         0x010034ec        0x4 
 .text.vector54
                0x010034f0       0x5c build/obj/spc5_edma.o
                0x010034f0                vector54
 *fill*         0x0100354c        0x4 
 .text.vector55
                0x01003550       0x5c build/obj/spc5_edma.o
                0x01003550                vector55
 *fill*         0x010035ac        0x4 
 .text.vector56
                0x010035b0       0x5c build/obj/spc5_edma.o
                0x010035b0                vector56
 *fill*         0x0100360c        0x4 
 .text.vector57
                0x01003610       0x5c build/obj/spc5_edma.o
                0x01003610                vector57
 *fill*         0x0100366c        0x4 
 .text.vector58
                0x01003670       0x5c build/obj/spc5_edma.o
                0x01003670                vector58
 *fill*         0x010036cc        0x4 
 .text.vector59
                0x010036d0       0x5c build/obj/spc5_edma.o
                0x010036d0                vector59
 *fill*         0x0100372c        0x4 
 .text.vector60
                0x01003730       0x5c build/obj/spc5_edma.o
                0x01003730                vector60
 *fill*         0x0100378c        0x4 
 .text.vector61
                0x01003790       0x5c build/obj/spc5_edma.o
                0x01003790                vector61
 *fill*         0x010037ec        0x4 
 .text.vector62
                0x010037f0       0x5c build/obj/spc5_edma.o
                0x010037f0                vector62
 *fill*         0x0100384c        0x4 
 .text.vector63
                0x01003850       0x5c build/obj/spc5_edma.o
                0x01003850                vector63
 *fill*         0x010038ac        0x4 
 .text.vector64
                0x010038b0       0x5c build/obj/spc5_edma.o
                0x010038b0                vector64
 *fill*         0x0100390c        0x4 
 .text.vector65
                0x01003910       0x5c build/obj/spc5_edma.o
                0x01003910                vector65
 *fill*         0x0100396c        0x4 
 .text.vector66
                0x01003970       0x5c build/obj/spc5_edma.o
                0x01003970                vector66
 *fill*         0x010039cc        0x4 
 .text.vector67
                0x010039d0       0x5c build/obj/spc5_edma.o
                0x010039d0                vector67
 *fill*         0x01003a2c        0x4 
 .text.vector68
                0x01003a30       0x5c build/obj/spc5_edma.o
                0x01003a30                vector68
 *fill*         0x01003a8c        0x4 
 .text.vector69
                0x01003a90       0x60 build/obj/spc5_edma.o
                0x01003a90                vector69
 .text.vector70
                0x01003af0       0x60 build/obj/spc5_edma.o
                0x01003af0                vector70
 .text.vector71
                0x01003b50       0x60 build/obj/spc5_edma.o
                0x01003b50                vector71
 .text.vector72
                0x01003bb0       0x60 build/obj/spc5_edma.o
                0x01003bb0                vector72
 .text.vector73
                0x01003c10       0x60 build/obj/spc5_edma.o
                0x01003c10                vector73
 .text.vector74
                0x01003c70       0x60 build/obj/spc5_edma.o
                0x01003c70                vector74
 .text.vector75
                0x01003cd0       0x60 build/obj/spc5_edma.o
                0x01003cd0                vector75
 .text.vector76
                0x01003d30       0x60 build/obj/spc5_edma.o
                0x01003d30                vector76
 .text.vector77
                0x01003d90       0x60 build/obj/spc5_edma.o
                0x01003d90                vector77
 .text.vector78
                0x01003df0       0x60 build/obj/spc5_edma.o
                0x01003df0                vector78
 .text.vector79
                0x01003e50       0x60 build/obj/spc5_edma.o
                0x01003e50                vector79
 .text.vector80
                0x01003eb0       0x60 build/obj/spc5_edma.o
                0x01003eb0                vector80
 .text.vector81
                0x01003f10       0x60 build/obj/spc5_edma.o
                0x01003f10                vector81
 .text.vector82
                0x01003f70       0x60 build/obj/spc5_edma.o
                0x01003f70                vector82
 .text.vector83
                0x01003fd0       0x60 build/obj/spc5_edma.o
                0x01003fd0                vector83
 .text.vector84
                0x01004030       0x60 build/obj/spc5_edma.o
                0x01004030                vector84
 .text.vector85
                0x01004090       0x60 build/obj/spc5_edma.o
                0x01004090                vector85
 .text.vector86
                0x010040f0       0x60 build/obj/spc5_edma.o
                0x010040f0                vector86
 .text.vector87
                0x01004150       0x60 build/obj/spc5_edma.o
                0x01004150                vector87
 .text.vector88
                0x010041b0       0x60 build/obj/spc5_edma.o
                0x010041b0                vector88
 .text.vector89
                0x01004210       0x60 build/obj/spc5_edma.o
                0x01004210                vector89
 .text.vector90
                0x01004270       0x60 build/obj/spc5_edma.o
                0x01004270                vector90
 .text.vector91
                0x010042d0       0x60 build/obj/spc5_edma.o
                0x010042d0                vector91
 .text.vector92
                0x01004330       0x60 build/obj/spc5_edma.o
                0x01004330                vector92
 .text.vector93
                0x01004390       0x60 build/obj/spc5_edma.o
                0x01004390                vector93
 .text.vector94
                0x010043f0       0x60 build/obj/spc5_edma.o
                0x010043f0                vector94
 .text.vector95
                0x01004450       0x60 build/obj/spc5_edma.o
                0x01004450                vector95
 .text.vector96
                0x010044b0       0x60 build/obj/spc5_edma.o
                0x010044b0                vector96
 .text.vector97
                0x01004510       0x60 build/obj/spc5_edma.o
                0x01004510                vector97
 .text.vector98
                0x01004570       0x60 build/obj/spc5_edma.o
                0x01004570                vector98
 .text.vector99
                0x010045d0       0x60 build/obj/spc5_edma.o
                0x010045d0                vector99
 .text.vector100
                0x01004630       0x60 build/obj/spc5_edma.o
                0x01004630                vector100
 .text.vector101
                0x01004690       0x60 build/obj/spc5_edma.o
                0x01004690                vector101
 .text.vector102
                0x010046f0       0x60 build/obj/spc5_edma.o
                0x010046f0                vector102
 .text.vector103
                0x01004750       0x60 build/obj/spc5_edma.o
                0x01004750                vector103
 .text.vector104
                0x010047b0       0x60 build/obj/spc5_edma.o
                0x010047b0                vector104
 .text.vector105
                0x01004810       0x60 build/obj/spc5_edma.o
                0x01004810                vector105
 .text.vector106
                0x01004870       0x60 build/obj/spc5_edma.o
                0x01004870                vector106
 .text.vector107
                0x010048d0       0x60 build/obj/spc5_edma.o
                0x010048d0                vector107
 .text.vector108
                0x01004930       0x60 build/obj/spc5_edma.o
                0x01004930                vector108
 .text.vector109
                0x01004990       0x60 build/obj/spc5_edma.o
                0x01004990                vector109
 .text.vector110
                0x010049f0       0x60 build/obj/spc5_edma.o
                0x010049f0                vector110
 .text.vector111
                0x01004a50       0x60 build/obj/spc5_edma.o
                0x01004a50                vector111
 .text.vector112
                0x01004ab0       0x60 build/obj/spc5_edma.o
                0x01004ab0                vector112
 .text.vector113
                0x01004b10       0x60 build/obj/spc5_edma.o
                0x01004b10                vector113
 .text.vector114
                0x01004b70       0x60 build/obj/spc5_edma.o
                0x01004b70                vector114
 .text.vector115
                0x01004bd0       0x60 build/obj/spc5_edma.o
                0x01004bd0                vector115
 .text.vector116
                0x01004c30       0x60 build/obj/spc5_edma.o
                0x01004c30                vector116
 .text.vector117
                0x01004c90       0x5c build/obj/spc5_edma.o
                0x01004c90                vector117
 *fill*         0x01004cec        0x4 
 .text.vector118
                0x01004cf0       0x5c build/obj/spc5_edma.o
                0x01004cf0                vector118
 *fill*         0x01004d4c        0x4 
 .text.vector119
                0x01004d50       0x5c build/obj/spc5_edma.o
                0x01004d50                vector119
 *fill*         0x01004dac        0x4 
 .text.vector120
                0x01004db0       0x5c build/obj/spc5_edma.o
                0x01004db0                vector120
 *fill*         0x01004e0c        0x4 
 .text.vector121
                0x01004e10       0x5c build/obj/spc5_edma.o
                0x01004e10                vector121
 *fill*         0x01004e6c        0x4 
 .text.vector122
                0x01004e70       0x5c build/obj/spc5_edma.o
                0x01004e70                vector122
 *fill*         0x01004ecc        0x4 
 .text.vector123
                0x01004ed0       0x5c build/obj/spc5_edma.o
                0x01004ed0                vector123
 *fill*         0x01004f2c        0x4 
 .text.vector124
                0x01004f30       0x5c build/obj/spc5_edma.o
                0x01004f30                vector124
 *fill*         0x01004f8c        0x4 
 .text.vector125
                0x01004f90       0x5c build/obj/spc5_edma.o
                0x01004f90                vector125
 *fill*         0x01004fec        0x4 
 .text.vector126
                0x01004ff0       0x5c build/obj/spc5_edma.o
                0x01004ff0                vector126
 *fill*         0x0100504c        0x4 
 .text.vector127
                0x01005050       0x5c build/obj/spc5_edma.o
                0x01005050                vector127
 *fill*         0x010050ac        0x4 
 .text.vector128
                0x010050b0       0x5c build/obj/spc5_edma.o
                0x010050b0                vector128
 *fill*         0x0100510c        0x4 
 .text.vector129
                0x01005110       0x5c build/obj/spc5_edma.o
                0x01005110                vector129
 *fill*         0x0100516c        0x4 
 .text.vector130
                0x01005170       0x5c build/obj/spc5_edma.o
                0x01005170                vector130
 *fill*         0x010051cc        0x4 
 .text.vector131
                0x010051d0       0x5c build/obj/spc5_edma.o
                0x010051d0                vector131
 *fill*         0x0100522c        0x4 
 .text.vector132
                0x01005230       0x5c build/obj/spc5_edma.o
                0x01005230                vector132
 *fill*         0x0100528c        0x4 
 .text.vector133
                0x01005290       0x5c build/obj/spc5_edma.o
                0x01005290                vector133
 *fill*         0x010052ec        0x4 
 .text.vector134
                0x010052f0       0x5c build/obj/spc5_edma.o
                0x010052f0                vector134
 *fill*         0x0100534c        0x4 
 .text.vector135
                0x01005350       0x5c build/obj/spc5_edma.o
                0x01005350                vector135
 *fill*         0x010053ac        0x4 
 .text.vector136
                0x010053b0       0x5c build/obj/spc5_edma.o
                0x010053b0                vector136
 *fill*         0x0100540c        0x4 
 .text.vector137
                0x01005410       0x5c build/obj/spc5_edma.o
                0x01005410                vector137
 *fill*         0x0100546c        0x4 
 .text.vector138
                0x01005470       0x5c build/obj/spc5_edma.o
                0x01005470                vector138
 *fill*         0x010054cc        0x4 
 .text.vector139
                0x010054d0       0x5c build/obj/spc5_edma.o
                0x010054d0                vector139
 *fill*         0x0100552c        0x4 
 .text.vector140
                0x01005530       0x5c build/obj/spc5_edma.o
                0x01005530                vector140
 *fill*         0x0100558c        0x4 
 .text.vector141
                0x01005590       0x5c build/obj/spc5_edma.o
                0x01005590                vector141
 *fill*         0x010055ec        0x4 
 .text.vector142
                0x010055f0       0x5c build/obj/spc5_edma.o
                0x010055f0                vector142
 *fill*         0x0100564c        0x4 
 .text.vector143
                0x01005650       0x5c build/obj/spc5_edma.o
                0x01005650                vector143
 *fill*         0x010056ac        0x4 
 .text.vector144
                0x010056b0       0x5c build/obj/spc5_edma.o
                0x010056b0                vector144
 *fill*         0x0100570c        0x4 
 .text.vector145
                0x01005710       0x5c build/obj/spc5_edma.o
                0x01005710                vector145
 *fill*         0x0100576c        0x4 
 .text.vector146
                0x01005770       0x5c build/obj/spc5_edma.o
                0x01005770                vector146
 *fill*         0x010057cc        0x4 
 .text.vector147
                0x010057d0       0x5c build/obj/spc5_edma.o
                0x010057d0                vector147
 *fill*         0x0100582c        0x4 
 .text.vector148
                0x01005830       0x5c build/obj/spc5_edma.o
                0x01005830                vector148
 *fill*         0x0100588c        0x4 
 .text.edmaInit
                0x01005890      0x11c build/obj/spc5_edma.o
                0x01005890                edmaInit
 *fill*         0x010059ac        0x4 
 .text.can_lld_getframesize
                0x010059b0       0x3e build/obj/can_lld.o
                0x010059b0                can_lld_getframesize
 *fill*         0x010059ee        0x2 
 .text.can_lld_readBuffer
                0x010059f0      0x12a build/obj/can_lld.o
                0x010059f0                can_lld_readBuffer
 *fill*         0x01005b1a        0x6 
 .text.can_lld_l1_handler
                0x01005b20      0x410 build/obj/can_lld.o
 .text.can_lld_getDLC
                0x01005f30       0x48 build/obj/can_lld.o
                0x01005f30                can_lld_getDLC
 *fill*         0x01005f78        0x8 
 .text.can_lld_writeTxBuffer
                0x01005f80      0x118 build/obj/can_lld.o
                0x01005f80                can_lld_writeTxBuffer
 *fill*         0x01006098        0x8 
 .text.vector692
                0x010060a0       0x40 build/obj/can_lld.o
                0x010060a0                vector692
 .text.vector693
                0x010060e0        0xc build/obj/can_lld.o
                0x010060e0                vector693
 *fill*         0x010060ec        0x4 
 .text.vector694
                0x010060f0       0x40 build/obj/can_lld.o
                0x010060f0                vector694
 .text.vector695
                0x01006130        0xc build/obj/can_lld.o
                0x01006130                vector695
 *fill*         0x0100613c        0x4 
 .text.vector696
                0x01006140      0x4ae build/obj/can_lld.o
                0x01006140                vector696
 *fill*         0x010065ee        0x2 
 .text.vector697
                0x010065f0        0xc build/obj/can_lld.o
                0x010065f0                vector697
 *fill*         0x010065fc        0x4 
 .text.can_lld_init
                0x01006600       0xc2 build/obj/can_lld.o
                0x01006600                can_lld_init
 *fill*         0x010066c2        0xe 
 .text.can_lld_start
                0x010066d0      0x76c build/obj/can_lld.o
                0x010066d0                can_lld_start
 *fill*         0x01006e3c        0x4 
 .text.can_lld_transmit
                0x01006e40      0x120 build/obj/can_lld.o
                0x01006e40                can_lld_transmit
 .text.vListInitialise
                0x01006f60       0x14 build/obj/list.o
                0x01006f60                vListInitialise
 *fill*         0x01006f74        0xc 
 .text.vListInitialiseItem
                0x01006f80        0x6 build/obj/list.o
                0x01006f80                vListInitialiseItem
 *fill*         0x01006f86        0xa 
 .text.vListInsertEnd
                0x01006f90       0x18 build/obj/list.o
                0x01006f90                vListInsertEnd
 *fill*         0x01006fa8        0x8 
 .text.vListInsert
                0x01006fb0       0x46 build/obj/list.o
                0x01006fb0                vListInsert
 *fill*         0x01006ff6        0xa 
 .text.uxListRemove
                0x01007000       0x36 build/obj/list.o
                0x01007000                uxListRemove
 *fill*         0x01007036        0xa 
 .text.prvCopyDataToQueue
                0x01007040       0xb0 build/obj/queue.o
 .text.prvNotifyQueueSetContainer
                0x010070f0       0x7c build/obj/queue.o
 *fill*         0x0100716c        0x4 
 .text.prvCopyDataFromQueue
                0x01007170       0x26 build/obj/queue.o
 *fill*         0x01007196        0xa 
 .text.prvUnlockQueue
                0x010071a0       0xf0 build/obj/queue.o
 .text.xQueueGenericReset
                0x01007290       0xa0 build/obj/queue.o
                0x01007290                xQueueGenericReset
 .text.xQueueGenericCreate
                0x01007330       0x66 build/obj/queue.o
                0x01007330                xQueueGenericCreate
 *fill*         0x01007396        0xa 
 .text.xQueueGenericSendFromISR
                0x010073a0       0xaa build/obj/queue.o
                0x010073a0                xQueueGenericSendFromISR
 *fill*         0x0100744a        0x6 
 .text.xQueueReceive
                0x01007450      0x16e build/obj/queue.o
                0x01007450                xQueueReceive
 *fill*         0x010075be        0x2 
 .text.prvIdleTask
                0x010075c0       0x16 build/obj/tasks.o
 *fill*         0x010075d6        0xa 
 .text.prvResetNextTaskUnblockTime.part.1
                0x010075e0       0x18 build/obj/tasks.o
 *fill*         0x010075f8        0x8 
 .text.prvAddCurrentTaskToDelayedList
                0x01007600       0xae build/obj/tasks.o
 *fill*         0x010076ae        0x2 
 .text.vTaskSwitchContext.part.4
                0x010076b0       0x98 build/obj/tasks.o
 *fill*         0x01007748        0x8 
 .text.vTaskEnterCritical.part.5
                0x01007750       0x1c build/obj/tasks.o
 *fill*         0x0100776c        0x4 
 .text.vTaskSuspendAll
                0x01007770       0x10 build/obj/tasks.o
                0x01007770                vTaskSuspendAll
 .text.xTaskIncrementTick
                0x01007780      0x190 build/obj/tasks.o
                0x01007780                xTaskIncrementTick
 .text.vTaskSwitchContext
                0x01007910       0x1e build/obj/tasks.o
                0x01007910                vTaskSwitchContext
 *fill*         0x0100792e        0x2 
 .text.vTaskPlaceOnEventList
                0x01007930       0x2a build/obj/tasks.o
                0x01007930                vTaskPlaceOnEventList
 *fill*         0x0100795a        0x6 
 .text.xTaskRemoveFromEventList
                0x01007960       0xa2 build/obj/tasks.o
                0x01007960                xTaskRemoveFromEventList
 *fill*         0x01007a02        0xe 
 .text.vTaskInternalSetTimeOutState
                0x01007a10       0x16 build/obj/tasks.o
                0x01007a10                vTaskInternalSetTimeOutState
 *fill*         0x01007a26        0xa 
 .text.vTaskMissedYield
                0x01007a30        0xc build/obj/tasks.o
                0x01007a30                vTaskMissedYield
 *fill*         0x01007a3c        0x4 
 .text.xTaskPriorityDisinherit
                0x01007a40       0x90 build/obj/tasks.o
                0x01007a40                xTaskPriorityDisinherit
 .text.vTaskEnterCritical
                0x01007ad0       0x14 build/obj/tasks.o
                0x01007ad0                vTaskEnterCritical
 *fill*         0x01007ae4        0xc 
 .text.vTaskExitCritical
                0x01007af0       0x44 build/obj/tasks.o
                0x01007af0                vTaskExitCritical
 *fill*         0x01007b34        0xc 
 .text.xTaskCreate
                0x01007b40      0x23e build/obj/tasks.o
                0x01007b40                xTaskCreate
 *fill*         0x01007d7e        0x2 
 .text.vTaskStartScheduler
                0x01007d80       0x62 build/obj/tasks.o
                0x01007d80                vTaskStartScheduler
 *fill*         0x01007de2        0xe 
 .text.xTaskResumeAll
                0x01007df0      0x164 build/obj/tasks.o
                0x01007df0                xTaskResumeAll
 *fill*         0x01007f54        0xc 
 .text.vTaskDelayUntil
                0x01007f60       0x62 build/obj/tasks.o
                0x01007f60                vTaskDelayUntil
 *fill*         0x01007fc2        0xe 
 .text.vTaskDelay
                0x01007fd0       0x3e build/obj/tasks.o
                0x01007fd0                vTaskDelay
 *fill*         0x0100800e        0x2 
 .text.xTaskGetTickCount
                0x01008010       0x34 build/obj/tasks.o
                0x01008010                xTaskGetTickCount
 *fill*         0x01008044        0xc 
 .text.xTaskCheckForTimeOut
                0x01008050       0xc4 build/obj/tasks.o
                0x01008050                xTaskCheckForTimeOut
 *fill*         0x01008114        0xc 
 .text.pxPortInitialiseStack
                0x01008120      0x122 build/obj/port.o
                0x01008120                pxPortInitialiseStack
 *fill*         0x01008242        0xe 
 .text.xPortStartScheduler
                0x01008250       0x1e build/obj/port.o
                0x01008250                xPortStartScheduler
 *fill*         0x0100826e        0x2 
 .text.vector226
                0x01008270       0x1a build/obj/port.o
                0x01008270                vector226
 *fill*         0x0100828a        0x6 
 .text.prvInsertBlockIntoFreeList
                0x01008290       0x62 build/obj/heap_4.o
 *fill*         0x010082f2        0xe 
 .text.pvPortMalloc
                0x01008300      0x146 build/obj/heap_4.o
                0x01008300                pvPortMalloc
 *fill*         0x01008446        0xa 
 .text.vPortFree
                0x01008450       0x6c build/obj/heap_4.o
                0x01008450                vPortFree
 *fill*         0x010084bc        0x4 
 .text.pal_init
                0x010084c0      0x104 build/obj/pal.o
                0x010084c0                pal_init
 *fill*         0x010085c4        0xc 
 .text.clockInit
                0x010085d0       0x32 build/obj/clock.o
                0x010085d0                clockInit
 *fill*         0x01008602        0xe 
 .text.spc_clock_init
                0x01008610      0x360 build/obj/clock.o
                0x01008610                spc_clock_init
 .text.__early_init
                0x01008970        0x4 build/obj/clock.o
                0x01008970                __early_init
 *fill*         0x01008974        0xc 
 .text.SPCSetPeripheralClockMode
                0x01008980       0x40 build/obj/clock.o
                0x01008980                SPCSetPeripheralClockMode
 .text.irqInit  0x010089c0       0x2a build/obj/irq.o
                0x010089c0                irqInit
 *fill*         0x010089ea        0x6 
 .text.irqSysHalt
                0x010089f0        0x8 build/obj/irq.o
                0x010089f0                irqSysHalt
 *fill*         0x010089f8        0x8 
 .text.vector243
                0x01008a00       0xa6 build/obj/eirq.o
                0x01008a00                vector243
 *fill*         0x01008aa6        0xa 
 .text.vector244
                0x01008ab0       0xa6 build/obj/eirq.o
                0x01008ab0                vector244
 *fill*         0x01008b56        0xa 
 .text.eirqInit
                0x01008b60       0xf0 build/obj/eirq.o
                0x01008b60                eirqInit
 .text.osalSysTimeSetup
                0x01008c50       0x24 build/obj/osal.o
                0x01008c50                osalSysTimeSetup
 *fill*         0x01008c74        0xc 
 .text.osalSysTimeReset
                0x01008c80        0x4 build/obj/osal.o
                0x01008c80                osalSysTimeReset
 *fill*         0x01008c84        0xc 
 .text.osalInit
                0x01008c90       0x4e build/obj/osal.o
                0x01008c90                osalInit
 *fill*         0x01008cde        0x2 
 .text.sysTimeSetup
                0x01008ce0       0x58 build/obj/systimer.o
                0x01008ce0                sysTimeSetup
 *fill*         0x01008d38        0x8 
 .text.sysTimeReset
                0x01008d40       0x18 build/obj/systimer.o
                0x01008d40                sysTimeReset
 *fill*         0x01008d58        0x8 
 .text.boardInit
                0x01008d60        0xc build/obj/board.o
                0x01008d60                boardInit
 *fill*         0x01008d6c        0x4 
 .text.irq_cfg_init
                0x01008d70        0x2 build/obj/irq_cfg.o
                0x01008d70                irq_cfg_init
 *fill*         0x01008d72        0xe 
 .text.vTaskCAN5
                0x01008d80       0xf6 build/obj/main.o
                0x01008d80                vTaskCAN5
 *fill*         0x01008e76        0xa 
 .text.vTaskParkAssist
                0x01008e80       0xf4 build/obj/main.o
                0x01008e80                vTaskParkAssist
 *fill*         0x01008f74        0xc 
 .text.vTaskmain
                0x01008f80       0xc6 build/obj/main.o
                0x01008f80                vTaskmain
 *fill*         0x01009046        0xa 
 .text.startup.main
                0x01009050       0x3a build/obj/main.o
                0x01009050                main
 *fill*         0x0100908a        0x6 
 .text.Steering_assist
                0x01009090      0x100 build/obj/h302.o
                0x01009090                Steering_assist
 .text.can3_rx  0x01009190      0x208 build/obj/CAN_tools.o
                0x01009190                can3_rx
 *fill*         0x01009398        0x8 
 .text.can4_rx  0x010093a0      0x1b8 build/obj/CAN_tools.o
                0x010093a0                can4_rx
 *fill*         0x01009558        0x8 
 .text.can5_rx  0x01009560       0xbc build/obj/CAN_tools.o
                0x01009560                can5_rx
 *fill*         0x0100961c        0x4 
 .text.Crc_CalculateCRC8H2F
                0x01009620      0x5f6 build/obj/crc.o
                0x01009620                Crc_CalculateCRC8H2F
 *fill*         0x01009c16        0xa 
 .text.componentsInit
                0x01009c20       0x26 build/obj/components.o
                0x01009c20                componentsInit
 *fill*         0x01009c46        0xa 
 .text.memcpy   0x01009c50       0x1a c:/spc5studio-6.0/eclipse/plugins/com.st.tools.spc5.tools.gnu.gcc.ppcvle.win32_4.9.4.20200908161514/toolchain/bin/../lib/gcc/powerpc-eabivle/4.9.4/../../../../powerpc-eabivle/lib/e200z4\libc.a(lib_a-memcpy.o)
                0x01009c50                memcpy
                0x01009c50                largememcpy
 *fill*         0x01009c6a        0x6 
 .text.memset   0x01009c70       0x16 c:/spc5studio-6.0/eclipse/plugins/com.st.tools.spc5.tools.gnu.gcc.ppcvle.win32_4.9.4.20200908161514/toolchain/bin/../lib/gcc/powerpc-eabivle/4.9.4/../../../../powerpc-eabivle/lib/e200z4\libc.a(lib_a-memset.o)
                0x01009c70                memset
 *(.gnu.linkonce.t.*)

.glink          0x01009c86        0x0
 .glink         0x01009c86        0x0 build/obj/boot.o

.rodata         0x01009c90      0x340
 *(.glue_7t)
 *(.glue_7)
 *(.gcc*)
 *(.rodata)
 .rodata        0x01009c90      0x170 build/obj/crc.o
 .rodata        0x01009e00       0x10 c:/spc5studio-6.0/eclipse/plugins/com.st.tools.spc5.tools.gnu.gcc.ppcvle.win32_4.9.4.20200908161514/toolchain/bin/../lib/gcc/powerpc-eabivle/4.9.4/e200z4\libgcc.a(_thenan_sf.o)
                0x01009e00                __thenan_sf
 .rodata        0x01009e10       0x18 c:/spc5studio-6.0/eclipse/plugins/com.st.tools.spc5.tools.gnu.gcc.ppcvle.win32_4.9.4.20200908161514/toolchain/bin/../lib/gcc/powerpc-eabivle/4.9.4/e200z4\libgcc.a(_thenan_df.o)
                0x01009e10                __thenan_df
 *(.rodata.*)
 *fill*         0x01009e28        0x8 
 .rodata.dma0_g1
                0x01009e30       0x10 build/obj/spc5_edma.o
 .rodata.dma0_g0
                0x01009e40       0x10 build/obj/spc5_edma.o
 .rodata.dma1_g0
                0x01009e50       0x10 build/obj/spc5_edma.o
 .rodata.dma1_g1
                0x01009e60       0x10 build/obj/spc5_edma.o
 .rodata.dma1_g2
                0x01009e70       0x10 build/obj/spc5_edma.o
 .rodata.dma1_g3
                0x01009e80       0x10 build/obj/spc5_edma.o
 .rodata.can_lld_getframesize
                0x01009e90       0x1c build/obj/can_lld.o
 *fill*         0x01009eac        0x4 
 .rodata.str1.4
                0x01009eb0        0x5 build/obj/tasks.o
 *fill*         0x01009eb5        0xb 
 .rodata.str1.4
                0x01009ec0        0x8 build/obj/main.o
 *fill*         0x01009ec8        0x8 
 .rodata.crc8H2F_tab
                0x01009ed0      0x100 build/obj/crc.o
 *(.rodata1)

.sdata2         0x01009fd0        0x0
                0x01011fd0                __sdata2_start__ = (. + 0x8000)
 *(.sdata2)
 .sdata2        0x01009fd0        0x0 build/obj/boot.o
 *(.sdata2.*)
 *(.gnu.linkonce.s2.*)
 *(.sbss2)
 *(.sbss2.*)
 *(.gnu.linkonce.sb2.*)

.eh_frame_hdr
 *(.eh_frame_hdr)

.eh_frame       0x01009fd0        0x0
 *(.eh_frame)
 .eh_frame      0x01009fd0        0x0 build/obj/boot.o

.rela.dyn       0x01009fd0        0x0
 .rela.iplt     0x01009fd0        0x0 build/obj/boot.o
 .rela.vectors  0x01009fd0        0x0 build/obj/boot.o
 .rela.text.pxPortInitialiseStack
                0x01009fd0        0x0 build/obj/boot.o
 .rela.text.manage_eirq_interrupt
                0x01009fd0        0x0 build/obj/boot.o
 .rela.text.vector243
                0x01009fd0        0x0 build/obj/boot.o
 .rela.text.vector244
                0x01009fd0        0x0 build/obj/boot.o
 .rela.text.eirqInit
                0x01009fd0        0x0 build/obj/boot.o
 .rela.data.can_config_can5
                0x01009fd0        0x0 build/obj/boot.o
 .rela.data.can_config_can3
                0x01009fd0        0x0 build/obj/boot.o
 .rela.data.can_config_can4
                0x01009fd0        0x0 build/obj/boot.o
 .rela.text     0x01009fd0        0x0 build/obj/boot.o

.romdata        0x01009fd0        0x0
                0x01009fd0                __romdata_start__ = .

.core0_stacks   0x50800000      0x800
                0x50800000                . = ALIGN (0x8)
                0x50800000                __core0_irq_stack_base__ = .
                0x50800000                . = (. + __core0_irq_stack_size__)
                0x50800000                . = ALIGN (0x8)
                0x50800000                __core0_irq_stack_end__ = .
                0x50800000                __core0_process_stack_base__ = .
                0x50800000                __core0_main_thread_stack_base__ = .
                0x50800800                . = (. + __core0_process_stack_size__)
 *fill*         0x50800000      0x800 
                0x50800800                . = ALIGN (0x8)
                0x50800800                __core0_process_stack_end__ = .
                0x50800800                __core0_main_thread_stack_end__ = .

.core1_stacks   0x51800000      0x800
                0x51800000                . = ALIGN (0x8)
                0x51800000                __core1_irq_stack_base__ = .
                0x51800000                . = (. + __core1_irq_stack_size__)
                0x51800000                . = ALIGN (0x8)
                0x51800000                __core1_irq_stack_end__ = .
                0x51800000                __core1_process_stack_base__ = .
                0x51800000                __core1_main_thread_stack_base__ = .
                0x51800800                . = (. + __core1_process_stack_size__)
 *fill*         0x51800000      0x800 
                0x51800800                . = ALIGN (0x8)
                0x51800800                __core1_process_stack_end__ = .
                0x51800800                __core1_main_thread_stack_end__ = .

.core2_stacks   0x52800000     0x1000
                0x52800000                . = ALIGN (0x8)
                0x52800000                __irq_stack_base__ = .
                0x52800000                . = (. + __irq_stack_size__)
                0x52800000                . = ALIGN (0x8)
                0x52800000                __irq_stack_end__ = .
                0x52800000                __process_stack_base__ = .
                0x52800000                __main_thread_stack_base__ = .
                0x52801000                . = (. + __process_stack_size__)
 *fill*         0x52800000     0x1000 
                0x52801000                . = ALIGN (0x8)
                0x52801000                __process_stack_end__ = .
                0x52801000                __main_thread_stack_end__ = .

.data           0x40060000      0x2dc load address 0x01009fd0
                0x40060000                . = ALIGN (0x4)
                0x40060000                __data_start__ = .
 *(.data)
 *(.data.*)
 .data.can_config_can5
                0x40060000       0xac build/obj/can_lld_cfg.o
                0x40060000                can_config_can5
 .data.can_config_can3
                0x400600ac       0xac build/obj/can_lld_cfg.o
                0x400600ac                can_config_can3
 .data.can_config_can4
                0x40060158       0xac build/obj/can_lld_cfg.o
                0x40060158                can_config_can4
 .data.spc_mscr_io_init
                0x40060204       0xa8 build/obj/board.o
 .data.pal_default_config
                0x400602ac        0x8 build/obj/board.o
 .data.spc_mscr_mux_init
                0x400602b4       0x20 build/obj/board.o
 .data.eirqconf
                0x400602d4        0x8 build/obj/eirq_cfg.o
                0x400602d4                eirqconf
 *(.gnu.linkonce.d.*)

.sdata          0x400602dc        0x0 load address 0x0100a2ac
                0x400602dc                . = ALIGN (0x4)
                0x400682dc                __sdata_start__ = (. + 0x8000)
 *(.sdata)
 .sdata         0x400602dc        0x0 build/obj/boot.o
                0x400682dc                _SDA_BASE_
 *(.sdata.*)
 *(.gnu.linkonce.s.*)
                0x400602dc                __data_end__ = .

.sbss           0x400602dc        0x0
                0x400602dc                __bss_start__ = .
 *(.sbss)
 *(.sbss.*)
 *(.gnu.linkonce.sb.*)
 *(.scommon)

.bss            0x400602dc    0x202e8 load address 0x0100a2ac
 *(.bss)
 *(.bss.*)
 .bss.channels  0x400602dc      0x180 build/obj/spc5_edma.o
 .bss.CAND4     0x4006045c       0x10 build/obj/can_lld.o
                0x4006045c                CAND4
 .bss.CAND7     0x4006046c       0x10 build/obj/can_lld.o
                0x4006046c                CAND7
 .bss.CAND8     0x4006047c       0x10 build/obj/can_lld.o
                0x4006047c                CAND8
 .bss.pxDelayedTaskList
                0x4006048c        0x4 build/obj/tasks.o
 .bss.xNumOfOverflows
                0x40060490        0x4 build/obj/tasks.o
 .bss.uxPendedTicks
                0x40060494        0x4 build/obj/tasks.o
 .bss.pxReadyTasksLists
                0x40060498       0x50 build/obj/tasks.o
 .bss.uxSchedulerSuspended
                0x400604e8        0x4 build/obj/tasks.o
 .bss.uxCurrentNumberOfTasks
                0x400604ec        0x4 build/obj/tasks.o
 .bss.pxCurrentTCB
                0x400604f0        0x4 build/obj/tasks.o
                0x400604f0                pxCurrentTCB
 .bss.xNextTaskUnblockTime
                0x400604f4        0x4 build/obj/tasks.o
 .bss.xDelayedTaskList1
                0x400604f8       0x14 build/obj/tasks.o
 .bss.xTickCount
                0x4006050c        0x4 build/obj/tasks.o
 .bss.pxOverflowDelayedTaskList
                0x40060510        0x4 build/obj/tasks.o
 .bss.xPendingReadyList
                0x40060514       0x14 build/obj/tasks.o
 .bss.uxTaskNumber
                0x40060528        0x4 build/obj/tasks.o
 .bss.xSchedulerRunning
                0x4006052c        0x4 build/obj/tasks.o
 .bss.xDelayedTaskList2
                0x40060530       0x14 build/obj/tasks.o
 .bss.xIdleTaskHandle
                0x40060544        0x4 build/obj/tasks.o
 .bss.xSuspendedTaskList
                0x40060548       0x14 build/obj/tasks.o
 .bss.uxTopReadyPriority
                0x4006055c        0x4 build/obj/tasks.o
 .bss.xYieldPending
                0x40060560        0x4 build/obj/tasks.o
 .bss.xFreeBytesRemaining
                0x40060564        0x4 build/obj/heap_4.o
 .bss.pxEnd     0x40060568        0x4 build/obj/heap_4.o
 .bss.xStart    0x4006056c        0x8 build/obj/heap_4.o
 .bss.ucHeap    0x40060574    0x20000 build/obj/heap_4.o
 .bss.xBlockAllocatedBit
                0x40080574        0x4 build/obj/heap_4.o
 .bss.xMinimumEverFreeBytesRemaining
                0x40080578        0x4 build/obj/heap_4.o
 .bss.osalsystime
                0x4008057c        0x4 build/obj/osal.o
 .bss.osal_ticks_per_sec
                0x40080580        0x4 build/obj/osal.o
 .bss.osalTimeOps
                0x40080584       0x30 build/obj/osal.o
 .bss.Relay     0x400805b4        0x1 build/obj/main.o
                0x400805b4                Relay
 .bss.autonom   0x400805b5        0x1 build/obj/main.o
                0x400805b5                autonom
 .bss.life_signal.26548
                0x400805b6        0x1 build/obj/main.o
 *fill*         0x400805b7        0x1 
 .bss.xQueue_CAN5
                0x400805b8        0x4 build/obj/main.o
                0x400805b8                xQueue_CAN5
 .bss.setTorque
                0x400805bc        0x1 build/obj/main.o
                0x400805bc                setTorque
 .bss.preautonom.26554
                0x400805bd        0x1 build/obj/main.o
 *fill*         0x400805be        0x2 
 .bss.Setsteer  0x400805c0        0x4 build/obj/main.o
                0x400805c0                Setsteer
 *(.gnu.linkonce.b.*)
 *(COMMON)
                0x400805c4                __bss_end__ = .
                0x400805c4                __heap_base__ = __bss_end__
                0x400f8000                __heap_end__ = __ram_end__
LOAD c:/spc5studio-6.0/eclipse/plugins/com.st.tools.spc5.tools.gnu.gcc.ppcvle.win32_4.9.4.20200908161514/toolchain/bin/../lib/gcc/powerpc-eabivle/4.9.4/e200z4\libgcc.a
LOAD c:/spc5studio-6.0/eclipse/plugins/com.st.tools.spc5.tools.gnu.gcc.ppcvle.win32_4.9.4.20200908161514/toolchain/bin/../lib/gcc/powerpc-eabivle/4.9.4/../../../../powerpc-eabivle/lib/e200z4\libc.a
LOAD c:/spc5studio-6.0/eclipse/plugins/com.st.tools.spc5.tools.gnu.gcc.ppcvle.win32_4.9.4.20200908161514/toolchain/bin/../lib/gcc/powerpc-eabivle/4.9.4/e200z4\libgcc.a
OUTPUT(build/out.elf elf32-powerpc)

.iplt           0x400805d0        0x0 load address 0x0102a5a0
 .iplt          0x400805d0        0x0 build/obj/boot.o

.PPC.EMB.apuinfo
                0x00000000       0x1c
 .PPC.EMB.apuinfo
                0x00000000       0x18 build/obj/boot.o
 .PPC.EMB.apuinfo
                0x00000018       0x18 build/obj/crt0.o
 .PPC.EMB.apuinfo
                0x00000030       0x18 build/obj/portasm.o
 .PPC.EMB.apuinfo
                0x00000048       0x18 build/obj/vectors.o
 .PPC.EMB.apuinfo
                0x00000060       0x1c build/obj/cache.o
 .PPC.EMB.apuinfo
                0x0000007c       0x18 build/obj/spc5_lld.o
 .PPC.EMB.apuinfo
                0x00000094       0x18 build/obj/spc5_edma.o
 .PPC.EMB.apuinfo
                0x000000ac       0x1c build/obj/can_lld.o
 .PPC.EMB.apuinfo
                0x000000c8       0x18 build/obj/list.o
 .PPC.EMB.apuinfo
                0x000000e0       0x1c build/obj/event_groups.o
 .PPC.EMB.apuinfo
                0x000000fc       0x1c build/obj/queue.o
 .PPC.EMB.apuinfo
                0x00000118       0x1c build/obj/stream_buffer.o
 .PPC.EMB.apuinfo
                0x00000134       0x1c build/obj/tasks.o
 .PPC.EMB.apuinfo
                0x00000150       0x18 build/obj/port.o
 .PPC.EMB.apuinfo
                0x00000168       0x18 build/obj/heap_4.o
 .PPC.EMB.apuinfo
                0x00000180       0x18 build/obj/pal.o
 .PPC.EMB.apuinfo
                0x00000198       0x18 build/obj/clock.o
 .PPC.EMB.apuinfo
                0x000001b0       0x18 build/obj/irq.o
 .PPC.EMB.apuinfo
                0x000001c8       0x18 build/obj/eirq.o
 .PPC.EMB.apuinfo
                0x000001e0       0x18 build/obj/swirq.o
 .PPC.EMB.apuinfo
                0x000001f8       0x18 build/obj/osal.o
 .PPC.EMB.apuinfo
                0x00000210       0x18 build/obj/systimer.o
 .PPC.EMB.apuinfo
                0x00000228       0x18 build/obj/board.o
 .PPC.EMB.apuinfo
                0x00000240       0x18 build/obj/irq_cfg.o
 .PPC.EMB.apuinfo
                0x00000258       0x18 build/obj/swirq_cfg.o
 .PPC.EMB.apuinfo
                0x00000270       0x18 build/obj/main.o
 .PPC.EMB.apuinfo
                0x00000288       0x18 build/obj/h302.o
 .PPC.EMB.apuinfo
                0x000002a0       0x18 build/obj/CAN_tools.o
 .PPC.EMB.apuinfo
                0x000002b8       0x18 build/obj/crc.o
 .PPC.EMB.apuinfo
                0x000002d0       0x18 build/obj/components.o
 .PPC.EMB.apuinfo
                0x000002e8       0x18 c:/spc5studio-6.0/eclipse/plugins/com.st.tools.spc5.tools.gnu.gcc.ppcvle.win32_4.9.4.20200908161514/toolchain/bin/../lib/gcc/powerpc-eabivle/4.9.4/../../../../powerpc-eabivle/lib/e200z4\libc.a(lib_a-memcpy.o)
 .PPC.EMB.apuinfo
                0x00000300       0x18 c:/spc5studio-6.0/eclipse/plugins/com.st.tools.spc5.tools.gnu.gcc.ppcvle.win32_4.9.4.20200908161514/toolchain/bin/../lib/gcc/powerpc-eabivle/4.9.4/../../../../powerpc-eabivle/lib/e200z4\libc.a(lib_a-memset.o)
 .PPC.EMB.apuinfo
                0x00000318       0x18 c:/spc5studio-6.0/eclipse/plugins/com.st.tools.spc5.tools.gnu.gcc.ppcvle.win32_4.9.4.20200908161514/toolchain/bin/../lib/gcc/powerpc-eabivle/4.9.4/e200z4\libgcc.a(_fixunssfsi.o)
 .PPC.EMB.apuinfo
                0x00000330       0x18 c:/spc5studio-6.0/eclipse/plugins/com.st.tools.spc5.tools.gnu.gcc.ppcvle.win32_4.9.4.20200908161514/toolchain/bin/../lib/gcc/powerpc-eabivle/4.9.4/e200z4\libgcc.a(_fixunsdfsi.o)
 .PPC.EMB.apuinfo
                0x00000348       0x1c c:/spc5studio-6.0/eclipse/plugins/com.st.tools.spc5.tools.gnu.gcc.ppcvle.win32_4.9.4.20200908161514/toolchain/bin/../lib/gcc/powerpc-eabivle/4.9.4/e200z4\libgcc.a(_addsub_sf.o)
 .PPC.EMB.apuinfo
                0x00000364       0x1c c:/spc5studio-6.0/eclipse/plugins/com.st.tools.spc5.tools.gnu.gcc.ppcvle.win32_4.9.4.20200908161514/toolchain/bin/../lib/gcc/powerpc-eabivle/4.9.4/e200z4\libgcc.a(_mul_sf.o)
 .PPC.EMB.apuinfo
                0x00000380       0x18 c:/spc5studio-6.0/eclipse/plugins/com.st.tools.spc5.tools.gnu.gcc.ppcvle.win32_4.9.4.20200908161514/toolchain/bin/../lib/gcc/powerpc-eabivle/4.9.4/e200z4\libgcc.a(_gt_sf.o)
 .PPC.EMB.apuinfo
                0x00000398       0x18 c:/spc5studio-6.0/eclipse/plugins/com.st.tools.spc5.tools.gnu.gcc.ppcvle.win32_4.9.4.20200908161514/toolchain/bin/../lib/gcc/powerpc-eabivle/4.9.4/e200z4\libgcc.a(_ge_sf.o)
 .PPC.EMB.apuinfo
                0x000003b0       0x18 c:/spc5studio-6.0/eclipse/plugins/com.st.tools.spc5.tools.gnu.gcc.ppcvle.win32_4.9.4.20200908161514/toolchain/bin/../lib/gcc/powerpc-eabivle/4.9.4/e200z4\libgcc.a(_lt_sf.o)
 .PPC.EMB.apuinfo
                0x000003c8       0x18 c:/spc5studio-6.0/eclipse/plugins/com.st.tools.spc5.tools.gnu.gcc.ppcvle.win32_4.9.4.20200908161514/toolchain/bin/../lib/gcc/powerpc-eabivle/4.9.4/e200z4\libgcc.a(_si_to_sf.o)
 .PPC.EMB.apuinfo
                0x000003e0       0x1c c:/spc5studio-6.0/eclipse/plugins/com.st.tools.spc5.tools.gnu.gcc.ppcvle.win32_4.9.4.20200908161514/toolchain/bin/../lib/gcc/powerpc-eabivle/4.9.4/e200z4\libgcc.a(_sf_to_si.o)
 .PPC.EMB.apuinfo
                0x000003fc       0x18 c:/spc5studio-6.0/eclipse/plugins/com.st.tools.spc5.tools.gnu.gcc.ppcvle.win32_4.9.4.20200908161514/toolchain/bin/../lib/gcc/powerpc-eabivle/4.9.4/e200z4\libgcc.a(_sf_to_df.o)
 .PPC.EMB.apuinfo
                0x00000414       0x18 c:/spc5studio-6.0/eclipse/plugins/com.st.tools.spc5.tools.gnu.gcc.ppcvle.win32_4.9.4.20200908161514/toolchain/bin/../lib/gcc/powerpc-eabivle/4.9.4/e200z4\libgcc.a(_usi_to_sf.o)
 .PPC.EMB.apuinfo
                0x0000042c       0x1c c:/spc5studio-6.0/eclipse/plugins/com.st.tools.spc5.tools.gnu.gcc.ppcvle.win32_4.9.4.20200908161514/toolchain/bin/../lib/gcc/powerpc-eabivle/4.9.4/e200z4\libgcc.a(_addsub_df.o)
 .PPC.EMB.apuinfo
                0x00000448       0x18 c:/spc5studio-6.0/eclipse/plugins/com.st.tools.spc5.tools.gnu.gcc.ppcvle.win32_4.9.4.20200908161514/toolchain/bin/../lib/gcc/powerpc-eabivle/4.9.4/e200z4\libgcc.a(_div_df.o)
 .PPC.EMB.apuinfo
                0x00000460       0x18 c:/spc5studio-6.0/eclipse/plugins/com.st.tools.spc5.tools.gnu.gcc.ppcvle.win32_4.9.4.20200908161514/toolchain/bin/../lib/gcc/powerpc-eabivle/4.9.4/e200z4\libgcc.a(_ge_df.o)
 .PPC.EMB.apuinfo
                0x00000478       0x1c c:/spc5studio-6.0/eclipse/plugins/com.st.tools.spc5.tools.gnu.gcc.ppcvle.win32_4.9.4.20200908161514/toolchain/bin/../lib/gcc/powerpc-eabivle/4.9.4/e200z4\libgcc.a(_df_to_si.o)
 .PPC.EMB.apuinfo
                0x00000494       0x18 c:/spc5studio-6.0/eclipse/plugins/com.st.tools.spc5.tools.gnu.gcc.ppcvle.win32_4.9.4.20200908161514/toolchain/bin/../lib/gcc/powerpc-eabivle/4.9.4/e200z4\libgcc.a(_make_df.o)
 .PPC.EMB.apuinfo
                0x000004ac       0x18 c:/spc5studio-6.0/eclipse/plugins/com.st.tools.spc5.tools.gnu.gcc.ppcvle.win32_4.9.4.20200908161514/toolchain/bin/../lib/gcc/powerpc-eabivle/4.9.4/e200z4\libgcc.a(_pack_sf.o)
 .PPC.EMB.apuinfo
                0x000004c4       0x18 c:/spc5studio-6.0/eclipse/plugins/com.st.tools.spc5.tools.gnu.gcc.ppcvle.win32_4.9.4.20200908161514/toolchain/bin/../lib/gcc/powerpc-eabivle/4.9.4/e200z4\libgcc.a(_unpack_sf.o)
 .PPC.EMB.apuinfo
                0x000004dc       0x1c c:/spc5studio-6.0/eclipse/plugins/com.st.tools.spc5.tools.gnu.gcc.ppcvle.win32_4.9.4.20200908161514/toolchain/bin/../lib/gcc/powerpc-eabivle/4.9.4/e200z4\libgcc.a(_fpcmp_parts_sf.o)
 .PPC.EMB.apuinfo
                0x000004f8       0x1c c:/spc5studio-6.0/eclipse/plugins/com.st.tools.spc5.tools.gnu.gcc.ppcvle.win32_4.9.4.20200908161514/toolchain/bin/../lib/gcc/powerpc-eabivle/4.9.4/e200z4\libgcc.a(_pack_df.o)
 .PPC.EMB.apuinfo
                0x00000514       0x18 c:/spc5studio-6.0/eclipse/plugins/com.st.tools.spc5.tools.gnu.gcc.ppcvle.win32_4.9.4.20200908161514/toolchain/bin/../lib/gcc/powerpc-eabivle/4.9.4/e200z4\libgcc.a(_unpack_df.o)
 .PPC.EMB.apuinfo
                0x0000052c       0x1c c:/spc5studio-6.0/eclipse/plugins/com.st.tools.spc5.tools.gnu.gcc.ppcvle.win32_4.9.4.20200908161514/toolchain/bin/../lib/gcc/powerpc-eabivle/4.9.4/e200z4\libgcc.a(_fpcmp_parts_df.o)

.comment        0x00000000       0x8e
 .comment       0x00000000       0x8e build/obj/cache.o
                                 0x8f (size before relaxing)
 .comment       0x0000008e       0x8f build/obj/spc5_lld.o
 .comment       0x0000008e       0x8f build/obj/spc5_edma.o
 .comment       0x0000008e       0x8f build/obj/can_lld.o
 .comment       0x0000008e       0x8f build/obj/list.o
 .comment       0x0000008e       0x8f build/obj/event_groups.o
 .comment       0x0000008e       0x8f build/obj/queue.o
 .comment       0x0000008e       0x8f build/obj/stream_buffer.o
 .comment       0x0000008e       0x8f build/obj/tasks.o
 .comment       0x0000008e       0x8f build/obj/port.o
 .comment       0x0000008e       0x8f build/obj/heap_4.o
 .comment       0x0000008e       0x8f build/obj/pal.o
 .comment       0x0000008e       0x8f build/obj/clock.o
 .comment       0x0000008e       0x8f build/obj/irq.o
 .comment       0x0000008e       0x8f build/obj/eirq.o
 .comment       0x0000008e       0x8f build/obj/swirq.o
 .comment       0x0000008e       0x8f build/obj/osal.o
 .comment       0x0000008e       0x8f build/obj/systimer.o
 .comment       0x0000008e       0x8f build/obj/can_lld_cfg.o
 .comment       0x0000008e       0x8f build/obj/board.o
 .comment       0x0000008e       0x8f build/obj/irq_cfg.o
 .comment       0x0000008e       0x8f build/obj/eirq_cfg.o
 .comment       0x0000008e       0x8f build/obj/swirq_cfg.o
 .comment       0x0000008e       0x8f build/obj/main.o
 .comment       0x0000008e       0x8f build/obj/h302.o
 .comment       0x0000008e       0x8f build/obj/CAN_tools.o
 .comment       0x0000008e       0x8f build/obj/crc.o
 .comment       0x0000008e       0x8f build/obj/components.o

.gnu.attributes
                0x00000000       0x10
 .gnu.attributes
                0x00000000       0x10 build/obj/main.o
 .gnu.attributes
                0x00000010       0x10 build/obj/h302.o
 .gnu.attributes
                0x00000020       0x10 build/obj/CAN_tools.o
 .gnu.attributes
                0x00000030       0x10 c:/spc5studio-6.0/eclipse/plugins/com.st.tools.spc5.tools.gnu.gcc.ppcvle.win32_4.9.4.20200908161514/toolchain/bin/../lib/gcc/powerpc-eabivle/4.9.4/e200z4\libgcc.a(_fixunssfsi.o)
 .gnu.attributes
                0x00000040       0x10 c:/spc5studio-6.0/eclipse/plugins/com.st.tools.spc5.tools.gnu.gcc.ppcvle.win32_4.9.4.20200908161514/toolchain/bin/../lib/gcc/powerpc-eabivle/4.9.4/e200z4\libgcc.a(_fixunsdfsi.o)
 .gnu.attributes
                0x00000050       0x10 c:/spc5studio-6.0/eclipse/plugins/com.st.tools.spc5.tools.gnu.gcc.ppcvle.win32_4.9.4.20200908161514/toolchain/bin/../lib/gcc/powerpc-eabivle/4.9.4/e200z4\libgcc.a(_addsub_sf.o)
 .gnu.attributes
                0x00000060       0x10 c:/spc5studio-6.0/eclipse/plugins/com.st.tools.spc5.tools.gnu.gcc.ppcvle.win32_4.9.4.20200908161514/toolchain/bin/../lib/gcc/powerpc-eabivle/4.9.4/e200z4\libgcc.a(_mul_sf.o)
 .gnu.attributes
                0x00000070       0x10 c:/spc5studio-6.0/eclipse/plugins/com.st.tools.spc5.tools.gnu.gcc.ppcvle.win32_4.9.4.20200908161514/toolchain/bin/../lib/gcc/powerpc-eabivle/4.9.4/e200z4\libgcc.a(_gt_sf.o)
 .gnu.attributes
                0x00000080       0x10 c:/spc5studio-6.0/eclipse/plugins/com.st.tools.spc5.tools.gnu.gcc.ppcvle.win32_4.9.4.20200908161514/toolchain/bin/../lib/gcc/powerpc-eabivle/4.9.4/e200z4\libgcc.a(_ge_sf.o)
 .gnu.attributes
                0x00000090       0x10 c:/spc5studio-6.0/eclipse/plugins/com.st.tools.spc5.tools.gnu.gcc.ppcvle.win32_4.9.4.20200908161514/toolchain/bin/../lib/gcc/powerpc-eabivle/4.9.4/e200z4\libgcc.a(_lt_sf.o)
 .gnu.attributes
                0x000000a0       0x10 c:/spc5studio-6.0/eclipse/plugins/com.st.tools.spc5.tools.gnu.gcc.ppcvle.win32_4.9.4.20200908161514/toolchain/bin/../lib/gcc/powerpc-eabivle/4.9.4/e200z4\libgcc.a(_si_to_sf.o)
 .gnu.attributes
                0x000000b0       0x10 c:/spc5studio-6.0/eclipse/plugins/com.st.tools.spc5.tools.gnu.gcc.ppcvle.win32_4.9.4.20200908161514/toolchain/bin/../lib/gcc/powerpc-eabivle/4.9.4/e200z4\libgcc.a(_sf_to_si.o)
 .gnu.attributes
                0x000000c0       0x10 c:/spc5studio-6.0/eclipse/plugins/com.st.tools.spc5.tools.gnu.gcc.ppcvle.win32_4.9.4.20200908161514/toolchain/bin/../lib/gcc/powerpc-eabivle/4.9.4/e200z4\libgcc.a(_sf_to_df.o)
 .gnu.attributes
                0x000000d0       0x10 c:/spc5studio-6.0/eclipse/plugins/com.st.tools.spc5.tools.gnu.gcc.ppcvle.win32_4.9.4.20200908161514/toolchain/bin/../lib/gcc/powerpc-eabivle/4.9.4/e200z4\libgcc.a(_usi_to_sf.o)
 .gnu.attributes
                0x000000e0       0x10 c:/spc5studio-6.0/eclipse/plugins/com.st.tools.spc5.tools.gnu.gcc.ppcvle.win32_4.9.4.20200908161514/toolchain/bin/../lib/gcc/powerpc-eabivle/4.9.4/e200z4\libgcc.a(_addsub_df.o)
 .gnu.attributes
                0x000000f0       0x10 c:/spc5studio-6.0/eclipse/plugins/com.st.tools.spc5.tools.gnu.gcc.ppcvle.win32_4.9.4.20200908161514/toolchain/bin/../lib/gcc/powerpc-eabivle/4.9.4/e200z4\libgcc.a(_div_df.o)
 .gnu.attributes
                0x00000100       0x10 c:/spc5studio-6.0/eclipse/plugins/com.st.tools.spc5.tools.gnu.gcc.ppcvle.win32_4.9.4.20200908161514/toolchain/bin/../lib/gcc/powerpc-eabivle/4.9.4/e200z4\libgcc.a(_ge_df.o)
 .gnu.attributes
                0x00000110       0x10 c:/spc5studio-6.0/eclipse/plugins/com.st.tools.spc5.tools.gnu.gcc.ppcvle.win32_4.9.4.20200908161514/toolchain/bin/../lib/gcc/powerpc-eabivle/4.9.4/e200z4\libgcc.a(_df_to_si.o)
 .gnu.attributes
                0x00000120       0x10 c:/spc5studio-6.0/eclipse/plugins/com.st.tools.spc5.tools.gnu.gcc.ppcvle.win32_4.9.4.20200908161514/toolchain/bin/../lib/gcc/powerpc-eabivle/4.9.4/e200z4\libgcc.a(_make_df.o)
 .gnu.attributes
                0x00000130       0x10 c:/spc5studio-6.0/eclipse/plugins/com.st.tools.spc5.tools.gnu.gcc.ppcvle.win32_4.9.4.20200908161514/toolchain/bin/../lib/gcc/powerpc-eabivle/4.9.4/e200z4\libgcc.a(_pack_sf.o)
 .gnu.attributes
                0x00000140       0x10 c:/spc5studio-6.0/eclipse/plugins/com.st.tools.spc5.tools.gnu.gcc.ppcvle.win32_4.9.4.20200908161514/toolchain/bin/../lib/gcc/powerpc-eabivle/4.9.4/e200z4\libgcc.a(_pack_df.o)

.debug_info     0x00000000    0x2a49c
 .debug_info    0x00000000      0x673 build/obj/cache.o
 .debug_info    0x00000673       0xbb build/obj/spc5_lld.o
 .debug_info    0x0000072e     0x3e36 build/obj/spc5_edma.o
 .debug_info    0x00004564     0x4934 build/obj/can_lld.o
 .debug_info    0x00008e98      0x2b9 build/obj/list.o
 .debug_info    0x00009151      0x9cb build/obj/event_groups.o
 .debug_info    0x00009b1c     0x1e0b build/obj/queue.o
 .debug_info    0x0000b927     0x13fd build/obj/stream_buffer.o
 .debug_info    0x0000cd24     0x208e build/obj/tasks.o
 .debug_info    0x0000edb2      0x299 build/obj/port.o
 .debug_info    0x0000f04b      0x3a8 build/obj/heap_4.o
 .debug_info    0x0000f3f3     0x14be build/obj/pal.o
 .debug_info    0x000108b1     0xa608 build/obj/clock.o
 .debug_info    0x0001aeb9      0x104 build/obj/irq.o
 .debug_info    0x0001afbd     0x142e build/obj/eirq.o
 .debug_info    0x0001c3eb      0x1a7 build/obj/swirq.o
 .debug_info    0x0001c592      0x645 build/obj/osal.o
 .debug_info    0x0001cbd7      0x5bf build/obj/systimer.o
 .debug_info    0x0001d196     0x38a8 build/obj/can_lld_cfg.o
 .debug_info    0x00020a3e      0x20a build/obj/board.o
 .debug_info    0x00020c48       0x8c build/obj/irq_cfg.o
 .debug_info    0x00020cd4      0x126 build/obj/eirq_cfg.o
 .debug_info    0x00020dfa       0x8c build/obj/swirq_cfg.o
 .debug_info    0x00020e86     0x51c7 build/obj/main.o
 .debug_info    0x0002604d      0x1c7 build/obj/h302.o
 .debug_info    0x00026214     0x3f5e build/obj/CAN_tools.o
 .debug_info    0x0002a172      0x224 build/obj/crc.o
 .debug_info    0x0002a396      0x106 build/obj/components.o

.debug_abbrev   0x00000000     0x3243
 .debug_abbrev  0x00000000      0x257 build/obj/cache.o
 .debug_abbrev  0x00000257       0x70 build/obj/spc5_lld.o
 .debug_abbrev  0x000002c7      0x334 build/obj/spc5_edma.o
 .debug_abbrev  0x000005fb      0x376 build/obj/can_lld.o
 .debug_abbrev  0x00000971       0xe5 build/obj/list.o
 .debug_abbrev  0x00000a56      0x2a7 build/obj/event_groups.o
 .debug_abbrev  0x00000cfd      0x3f5 build/obj/queue.o
 .debug_abbrev  0x000010f2      0x364 build/obj/stream_buffer.o
 .debug_abbrev  0x00001456      0x410 build/obj/tasks.o
 .debug_abbrev  0x00001866      0x1f2 build/obj/port.o
 .debug_abbrev  0x00001a58      0x221 build/obj/heap_4.o
 .debug_abbrev  0x00001c79      0x1b9 build/obj/pal.o
 .debug_abbrev  0x00001e32      0x25e build/obj/clock.o
 .debug_abbrev  0x00002090       0xaa build/obj/irq.o
 .debug_abbrev  0x0000213a      0x1cc build/obj/eirq.o
 .debug_abbrev  0x00002306       0x9f build/obj/swirq.o
 .debug_abbrev  0x000023a5      0x247 build/obj/osal.o
 .debug_abbrev  0x000025ec      0x14f build/obj/systimer.o
 .debug_abbrev  0x0000273b      0x11e build/obj/can_lld_cfg.o
 .debug_abbrev  0x00002859       0xcd build/obj/board.o
 .debug_abbrev  0x00002926       0x44 build/obj/irq_cfg.o
 .debug_abbrev  0x0000296a       0x82 build/obj/eirq_cfg.o
 .debug_abbrev  0x000029ec       0x44 build/obj/swirq_cfg.o
 .debug_abbrev  0x00002a30      0x312 build/obj/main.o
 .debug_abbrev  0x00002d42       0xb5 build/obj/h302.o
 .debug_abbrev  0x00002df7      0x2df build/obj/CAN_tools.o
 .debug_abbrev  0x000030d6       0xec build/obj/crc.o
 .debug_abbrev  0x000031c2       0x81 build/obj/components.o

.debug_loc      0x00000000     0xc6b9
 .debug_loc     0x00000000      0x9a6 build/obj/cache.o
 .debug_loc     0x000009a6       0x2c build/obj/spc5_lld.o
 .debug_loc     0x000009d2     0x1b80 build/obj/spc5_edma.o
 .debug_loc     0x00002552     0x1194 build/obj/can_lld.o
 .debug_loc     0x000036e6       0x58 build/obj/list.o
 .debug_loc     0x0000373e      0xea9 build/obj/event_groups.o
 .debug_loc     0x000045e7     0x20a6 build/obj/queue.o
 .debug_loc     0x0000668d     0x1c0b build/obj/stream_buffer.o
 .debug_loc     0x00008298     0x22dd build/obj/tasks.o
 .debug_loc     0x0000a575      0x162 build/obj/port.o
 .debug_loc     0x0000a6d7      0x2ad build/obj/heap_4.o
 .debug_loc     0x0000a984       0xbb build/obj/pal.o
 .debug_loc     0x0000aa3f      0x165 build/obj/clock.o
 .debug_loc     0x0000aba4       0x2c build/obj/irq.o
 .debug_loc     0x0000abd0      0x257 build/obj/eirq.o
 .debug_loc     0x0000ae27       0xe9 build/obj/swirq.o
 .debug_loc     0x0000af10      0x2d8 build/obj/osal.o
 .debug_loc     0x0000b1e8       0x58 build/obj/systimer.o
 .debug_loc     0x0000b240      0x287 build/obj/main.o
 .debug_loc     0x0000b4c7      0x3f6 build/obj/h302.o
 .debug_loc     0x0000b8bd      0x3be build/obj/CAN_tools.o
 .debug_loc     0x0000bc7b      0xa12 build/obj/crc.o
 .debug_loc     0x0000c68d       0x2c build/obj/components.o

.debug_aranges  0x00000000      0xc18
 .debug_aranges
                0x00000000       0x68 build/obj/cache.o
 .debug_aranges
                0x00000068       0x20 build/obj/spc5_lld.o
 .debug_aranges
                0x00000088      0x338 build/obj/spc5_edma.o
 .debug_aranges
                0x000003c0       0x98 build/obj/can_lld.o
 .debug_aranges
                0x00000458       0x40 build/obj/list.o
 .debug_aranges
                0x00000498       0x60 build/obj/event_groups.o
 .debug_aranges
                0x000004f8      0x100 build/obj/queue.o
 .debug_aranges
                0x000005f8       0xa8 build/obj/stream_buffer.o
 .debug_aranges
                0x000006a0      0x198 build/obj/tasks.o
 .debug_aranges
                0x00000838       0x48 build/obj/port.o
 .debug_aranges
                0x00000880       0x48 build/obj/heap_4.o
 .debug_aranges
                0x000008c8       0x38 build/obj/pal.o
 .debug_aranges
                0x00000900       0x48 build/obj/clock.o
 .debug_aranges
                0x00000948       0x28 build/obj/irq.o
 .debug_aranges
                0x00000970       0x38 build/obj/eirq.o
 .debug_aranges
                0x000009a8       0x40 build/obj/swirq.o
 .debug_aranges
                0x000009e8       0x80 build/obj/osal.o
 .debug_aranges
                0x00000a68       0x28 build/obj/systimer.o
 .debug_aranges
                0x00000a90       0x18 build/obj/can_lld_cfg.o
 .debug_aranges
                0x00000aa8       0x20 build/obj/board.o
 .debug_aranges
                0x00000ac8       0x20 build/obj/irq_cfg.o
 .debug_aranges
                0x00000ae8       0x18 build/obj/eirq_cfg.o
 .debug_aranges
                0x00000b00       0x20 build/obj/swirq_cfg.o
 .debug_aranges
                0x00000b20       0x40 build/obj/main.o
 .debug_aranges
                0x00000b60       0x28 build/obj/h302.o
 .debug_aranges
                0x00000b88       0x40 build/obj/CAN_tools.o
 .debug_aranges
                0x00000bc8       0x30 build/obj/crc.o
 .debug_aranges
                0x00000bf8       0x20 build/obj/components.o

.debug_ranges   0x00000000     0x16c0
 .debug_ranges  0x00000000       0xb8 build/obj/cache.o
 .debug_ranges  0x000000b8       0x10 build/obj/spc5_lld.o
 .debug_ranges  0x000000c8      0x360 build/obj/spc5_edma.o
 .debug_ranges  0x00000428       0xf0 build/obj/can_lld.o
 .debug_ranges  0x00000518       0x30 build/obj/list.o
 .debug_ranges  0x00000548       0xc8 build/obj/event_groups.o
 .debug_ranges  0x00000610      0x310 build/obj/queue.o
 .debug_ranges  0x00000920      0x1a8 build/obj/stream_buffer.o
 .debug_ranges  0x00000ac8      0x5a0 build/obj/tasks.o
 .debug_ranges  0x00001068       0x50 build/obj/port.o
 .debug_ranges  0x000010b8       0x38 build/obj/heap_4.o
 .debug_ranges  0x000010f0       0x28 build/obj/pal.o
 .debug_ranges  0x00001118      0x128 build/obj/clock.o
 .debug_ranges  0x00001240       0x18 build/obj/irq.o
 .debug_ranges  0x00001258       0x68 build/obj/eirq.o
 .debug_ranges  0x000012c0       0x30 build/obj/swirq.o
 .debug_ranges  0x000012f0      0x1d8 build/obj/osal.o
 .debug_ranges  0x000014c8       0x18 build/obj/systimer.o
 .debug_ranges  0x000014e0       0x10 build/obj/board.o
 .debug_ranges  0x000014f0       0x10 build/obj/irq_cfg.o
 .debug_ranges  0x00001500       0x10 build/obj/swirq_cfg.o
 .debug_ranges  0x00001510       0x90 build/obj/main.o
 .debug_ranges  0x000015a0       0x30 build/obj/h302.o
 .debug_ranges  0x000015d0       0xa8 build/obj/CAN_tools.o
 .debug_ranges  0x00001678       0x38 build/obj/crc.o
 .debug_ranges  0x000016b0       0x10 build/obj/components.o

.debug_line     0x00000000     0x7435
 .debug_line    0x00000000      0x388 build/obj/cache.o
 .debug_line    0x00000388       0xe0 build/obj/spc5_lld.o
 .debug_line    0x00000468     0x11cc build/obj/spc5_edma.o
 .debug_line    0x00001634      0x8eb build/obj/can_lld.o
 .debug_line    0x00001f1f      0x18e build/obj/list.o
 .debug_line    0x000020ad      0x483 build/obj/event_groups.o
 .debug_line    0x00002530      0x974 build/obj/queue.o
 .debug_line    0x00002ea4      0x6d5 build/obj/stream_buffer.o
 .debug_line    0x00003579      0xdd6 build/obj/tasks.o
 .debug_line    0x0000434f      0x344 build/obj/port.o
 .debug_line    0x00004693      0x3b8 build/obj/heap_4.o
 .debug_line    0x00004a4b      0x2e8 build/obj/pal.o
 .debug_line    0x00004d33      0x411 build/obj/clock.o
 .debug_line    0x00005144      0x238 build/obj/irq.o
 .debug_line    0x0000537c      0x2f3 build/obj/eirq.o
 .debug_line    0x0000566f      0x21e build/obj/swirq.o
 .debug_line    0x0000588d      0x460 build/obj/osal.o
 .debug_line    0x00005ced      0x25f build/obj/systimer.o
 .debug_line    0x00005f4c      0x244 build/obj/can_lld_cfg.o
 .debug_line    0x00006190      0x1fb build/obj/board.o
 .debug_line    0x0000638b       0x66 build/obj/irq_cfg.o
 .debug_line    0x000063f1      0x1cb build/obj/eirq_cfg.o
 .debug_line    0x000065bc       0x68 build/obj/swirq_cfg.o
 .debug_line    0x00006624      0x441 build/obj/main.o
 .debug_line    0x00006a65      0x1d4 build/obj/h302.o
 .debug_line    0x00006c39      0x3b2 build/obj/CAN_tools.o
 .debug_line    0x00006feb      0x296 build/obj/crc.o
 .debug_line    0x00007281      0x1b4 build/obj/components.o

.debug_str      0x00000000     0x75a7
 .debug_str     0x00000000      0x383 build/obj/cache.o
                                0x3db (size before relaxing)
 .debug_str     0x00000383       0x9a build/obj/spc5_lld.o
                                0x262 (size before relaxing)
 .debug_str     0x0000041d      0xdf3 build/obj/spc5_edma.o
                               0x1041 (size before relaxing)
 .debug_str     0x00001210      0xf6d build/obj/can_lld.o
                               0x1220 (size before relaxing)
 .debug_str     0x0000217d      0x163 build/obj/list.o
                                0x365 (size before relaxing)
 .debug_str     0x000022e0      0x370 build/obj/event_groups.o
                                0x661 (size before relaxing)
 .debug_str     0x00002650      0x766 build/obj/queue.o
                                0xb0a (size before relaxing)
 .debug_str     0x00002db6      0x516 build/obj/stream_buffer.o
                                0x895 (size before relaxing)
 .debug_str     0x000032cc      0x83d build/obj/tasks.o
                                0xebc (size before relaxing)
 .debug_str     0x00003b09       0xbc build/obj/port.o
                                0x354 (size before relaxing)
 .debug_str     0x00003bc5      0x1d1 build/obj/heap_4.o
                                0x42d (size before relaxing)
 .debug_str     0x00003d96      0x5d7 build/obj/pal.o
                                0x8e0 (size before relaxing)
 .debug_str     0x0000436d     0x2944 build/obj/clock.o
                               0x2ce8 (size before relaxing)
 .debug_str     0x00006cb1       0x4d build/obj/irq.o
                                0x26f (size before relaxing)
 .debug_str     0x00006cfe       0xc6 build/obj/eirq.o
                                0x864 (size before relaxing)
 .debug_str     0x00006dc4       0x89 build/obj/swirq.o
                                0x2b1 (size before relaxing)
 .debug_str     0x00006e4d      0x28a build/obj/osal.o
                                0x4ce (size before relaxing)
 .debug_str     0x000070d7       0x89 build/obj/systimer.o
                                0x33c (size before relaxing)
 .debug_str     0x00007160       0x79 build/obj/can_lld_cfg.o
                               0x1019 (size before relaxing)
 .debug_str     0x000071d9       0x86 build/obj/board.o
                                0x30c (size before relaxing)
 .debug_str     0x0000725f       0x37 build/obj/irq_cfg.o
                                0x22d (size before relaxing)
 .debug_str     0x00007296       0x38 build/obj/eirq_cfg.o
                                0x29f (size before relaxing)
 .debug_str     0x000072ce       0x39 build/obj/swirq_cfg.o
                                0x232 (size before relaxing)
 .debug_str     0x00007307      0x10d build/obj/main.o
                               0x16fc (size before relaxing)
 .debug_str     0x00007414       0x61 build/obj/h302.o
                                0x2b1 (size before relaxing)
 .debug_str     0x00007475       0x92 build/obj/CAN_tools.o
                               0x10ff (size before relaxing)
 .debug_str     0x00007507       0x86 build/obj/crc.o
                                0x2b7 (size before relaxing)
 .debug_str     0x0000758d       0x1a build/obj/components.o
                                0x259 (size before relaxing)

.debug_frame    0x00000000     0x37a8
 .debug_frame   0x00000000      0x174 build/obj/cache.o
 .debug_frame   0x00000174       0x30 build/obj/spc5_lld.o
 .debug_frame   0x000001a4     0x12a0 build/obj/spc5_edma.o
 .debug_frame   0x00001444      0x290 build/obj/can_lld.o
 .debug_frame   0x000016d4       0x60 build/obj/list.o
 .debug_frame   0x00001734      0x1b0 build/obj/event_groups.o
 .debug_frame   0x000018e4      0x594 build/obj/queue.o
 .debug_frame   0x00001e78      0x360 build/obj/stream_buffer.o
 .debug_frame   0x000021d8      0x798 build/obj/tasks.o
 .debug_frame   0x00002970       0x90 build/obj/port.o
 .debug_frame   0x00002a00       0xb8 build/obj/heap_4.o
 .debug_frame   0x00002ab8       0x64 build/obj/pal.o
 .debug_frame   0x00002b1c       0x94 build/obj/clock.o
 .debug_frame   0x00002bb0       0x40 build/obj/irq.o
 .debug_frame   0x00002bf0       0xec build/obj/eirq.o
 .debug_frame   0x00002cdc       0x60 build/obj/swirq.o
 .debug_frame   0x00002d3c      0x184 build/obj/osal.o
 .debug_frame   0x00002ec0       0x44 build/obj/systimer.o
 .debug_frame   0x00002f04       0x20 build/obj/board.o
 .debug_frame   0x00002f24       0x20 build/obj/irq_cfg.o
 .debug_frame   0x00002f44       0x20 build/obj/swirq_cfg.o
 .debug_frame   0x00002f64       0xe4 build/obj/main.o
 .debug_frame   0x00003048       0xd0 build/obj/h302.o
 .debug_frame   0x00003118       0xac build/obj/CAN_tools.o
 .debug_frame   0x000031c4       0x50 build/obj/crc.o
 .debug_frame   0x00003214       0x30 build/obj/components.o
 .debug_frame   0x00003244       0x20 c:/spc5studio-6.0/eclipse/plugins/com.st.tools.spc5.tools.gnu.gcc.ppcvle.win32_4.9.4.20200908161514/toolchain/bin/../lib/gcc/powerpc-eabivle/4.9.4/../../../../powerpc-eabivle/lib/e200z4\libc.a(lib_a-memcpy.o)
 .debug_frame   0x00003264       0x20 c:/spc5studio-6.0/eclipse/plugins/com.st.tools.spc5.tools.gnu.gcc.ppcvle.win32_4.9.4.20200908161514/toolchain/bin/../lib/gcc/powerpc-eabivle/4.9.4/../../../../powerpc-eabivle/lib/e200z4\libc.a(lib_a-memset.o)
 .debug_frame   0x00003284       0x3c c:/spc5studio-6.0/eclipse/plugins/com.st.tools.spc5.tools.gnu.gcc.ppcvle.win32_4.9.4.20200908161514/toolchain/bin/../lib/gcc/powerpc-eabivle/4.9.4/e200z4\libgcc.a(_fixunssfsi.o)
 .debug_frame   0x000032c0       0x40 c:/spc5studio-6.0/eclipse/plugins/com.st.tools.spc5.tools.gnu.gcc.ppcvle.win32_4.9.4.20200908161514/toolchain/bin/../lib/gcc/powerpc-eabivle/4.9.4/e200z4\libgcc.a(_fixunsdfsi.o)
 .debug_frame   0x00003300       0x7c c:/spc5studio-6.0/eclipse/plugins/com.st.tools.spc5.tools.gnu.gcc.ppcvle.win32_4.9.4.20200908161514/toolchain/bin/../lib/gcc/powerpc-eabivle/4.9.4/e200z4\libgcc.a(_addsub_sf.o)
 .debug_frame   0x0000337c       0x3c c:/spc5studio-6.0/eclipse/plugins/com.st.tools.spc5.tools.gnu.gcc.ppcvle.win32_4.9.4.20200908161514/toolchain/bin/../lib/gcc/powerpc-eabivle/4.9.4/e200z4\libgcc.a(_mul_sf.o)
 .debug_frame   0x000033b8       0x38 c:/spc5studio-6.0/eclipse/plugins/com.st.tools.spc5.tools.gnu.gcc.ppcvle.win32_4.9.4.20200908161514/toolchain/bin/../lib/gcc/powerpc-eabivle/4.9.4/e200z4\libgcc.a(_gt_sf.o)
 .debug_frame   0x000033f0       0x38 c:/spc5studio-6.0/eclipse/plugins/com.st.tools.spc5.tools.gnu.gcc.ppcvle.win32_4.9.4.20200908161514/toolchain/bin/../lib/gcc/powerpc-eabivle/4.9.4/e200z4\libgcc.a(_ge_sf.o)
 .debug_frame   0x00003428       0x38 c:/spc5studio-6.0/eclipse/plugins/com.st.tools.spc5.tools.gnu.gcc.ppcvle.win32_4.9.4.20200908161514/toolchain/bin/../lib/gcc/powerpc-eabivle/4.9.4/e200z4\libgcc.a(_lt_sf.o)
 .debug_frame   0x00003460       0x30 c:/spc5studio-6.0/eclipse/plugins/com.st.tools.spc5.tools.gnu.gcc.ppcvle.win32_4.9.4.20200908161514/toolchain/bin/../lib/gcc/powerpc-eabivle/4.9.4/e200z4\libgcc.a(_si_to_sf.o)
 .debug_frame   0x00003490       0x40 c:/spc5studio-6.0/eclipse/plugins/com.st.tools.spc5.tools.gnu.gcc.ppcvle.win32_4.9.4.20200908161514/toolchain/bin/../lib/gcc/powerpc-eabivle/4.9.4/e200z4\libgcc.a(_sf_to_si.o)
 .debug_frame   0x000034d0       0x30 c:/spc5studio-6.0/eclipse/plugins/com.st.tools.spc5.tools.gnu.gcc.ppcvle.win32_4.9.4.20200908161514/toolchain/bin/../lib/gcc/powerpc-eabivle/4.9.4/e200z4\libgcc.a(_sf_to_df.o)
 .debug_frame   0x00003500       0x44 c:/spc5studio-6.0/eclipse/plugins/com.st.tools.spc5.tools.gnu.gcc.ppcvle.win32_4.9.4.20200908161514/toolchain/bin/../lib/gcc/powerpc-eabivle/4.9.4/e200z4\libgcc.a(_usi_to_sf.o)
 .debug_frame   0x00003544       0x9c c:/spc5studio-6.0/eclipse/plugins/com.st.tools.spc5.tools.gnu.gcc.ppcvle.win32_4.9.4.20200908161514/toolchain/bin/../lib/gcc/powerpc-eabivle/4.9.4/e200z4\libgcc.a(_addsub_df.o)
 .debug_frame   0x000035e0       0x38 c:/spc5studio-6.0/eclipse/plugins/com.st.tools.spc5.tools.gnu.gcc.ppcvle.win32_4.9.4.20200908161514/toolchain/bin/../lib/gcc/powerpc-eabivle/4.9.4/e200z4\libgcc.a(_div_df.o)
 .debug_frame   0x00003618       0x38 c:/spc5studio-6.0/eclipse/plugins/com.st.tools.spc5.tools.gnu.gcc.ppcvle.win32_4.9.4.20200908161514/toolchain/bin/../lib/gcc/powerpc-eabivle/4.9.4/e200z4\libgcc.a(_ge_df.o)
 .debug_frame   0x00003650       0x40 c:/spc5studio-6.0/eclipse/plugins/com.st.tools.spc5.tools.gnu.gcc.ppcvle.win32_4.9.4.20200908161514/toolchain/bin/../lib/gcc/powerpc-eabivle/4.9.4/e200z4\libgcc.a(_df_to_si.o)
 .debug_frame   0x00003690       0x30 c:/spc5studio-6.0/eclipse/plugins/com.st.tools.spc5.tools.gnu.gcc.ppcvle.win32_4.9.4.20200908161514/toolchain/bin/../lib/gcc/powerpc-eabivle/4.9.4/e200z4\libgcc.a(_make_df.o)
 .debug_frame   0x000036c0       0x20 c:/spc5studio-6.0/eclipse/plugins/com.st.tools.spc5.tools.gnu.gcc.ppcvle.win32_4.9.4.20200908161514/toolchain/bin/../lib/gcc/powerpc-eabivle/4.9.4/e200z4\libgcc.a(_pack_sf.o)
 .debug_frame   0x000036e0       0x20 c:/spc5studio-6.0/eclipse/plugins/com.st.tools.spc5.tools.gnu.gcc.ppcvle.win32_4.9.4.20200908161514/toolchain/bin/../lib/gcc/powerpc-eabivle/4.9.4/e200z4\libgcc.a(_unpack_sf.o)
 .debug_frame   0x00003700       0x20 c:/spc5studio-6.0/eclipse/plugins/com.st.tools.spc5.tools.gnu.gcc.ppcvle.win32_4.9.4.20200908161514/toolchain/bin/../lib/gcc/powerpc-eabivle/4.9.4/e200z4\libgcc.a(_fpcmp_parts_sf.o)
 .debug_frame   0x00003720       0x48 c:/spc5studio-6.0/eclipse/plugins/com.st.tools.spc5.tools.gnu.gcc.ppcvle.win32_4.9.4.20200908161514/toolchain/bin/../lib/gcc/powerpc-eabivle/4.9.4/e200z4\libgcc.a(_pack_df.o)
 .debug_frame   0x00003768       0x20 c:/spc5studio-6.0/eclipse/plugins/com.st.tools.spc5.tools.gnu.gcc.ppcvle.win32_4.9.4.20200908161514/toolchain/bin/../lib/gcc/powerpc-eabivle/4.9.4/e200z4\libgcc.a(_unpack_df.o)
 .debug_frame   0x00003788       0x20 c:/spc5studio-6.0/eclipse/plugins/com.st.tools.spc5.tools.gnu.gcc.ppcvle.win32_4.9.4.20200908161514/toolchain/bin/../lib/gcc/powerpc-eabivle/4.9.4/e200z4\libgcc.a(_fpcmp_parts_df.o)

Cross Reference Table

Symbol                                            File
C0_IVORS                                          build/obj/boot.o
C1_IVORS                                          build/obj/boot.o
CAND4                                             build/obj/can_lld.o
                                                  build/obj/CAN_tools.o
                                                  build/obj/main.o
CAND7                                             build/obj/can_lld.o
                                                  build/obj/CAN_tools.o
                                                  build/obj/main.o
CAND8                                             build/obj/can_lld.o
                                                  build/obj/CAN_tools.o
                                                  build/obj/main.o
Crc_CalculateCRC8H2F                              build/obj/crc.o
                                                  build/obj/CAN_tools.o
IVORS                                             build/obj/boot.o
Relay                                             build/obj/main.o
                                                  build/obj/CAN_tools.o
SPCGetSystemClock                                 build/obj/clock.o
SPCSetPeripheralClockMode                         build/obj/clock.o
                                                  build/obj/systimer.o
                                                  build/obj/pal.o
                                                  build/obj/can_lld.o
                                                  build/obj/spc5_edma.o
SPCSetRunMode                                     build/obj/clock.o
Setsteer                                          build/obj/main.o
Steering_assist                                   build/obj/h302.o
                                                  build/obj/main.o
_C0_IVOR0                                         build/obj/boot.o
_C0_IVOR1                                         build/obj/boot.o
_C0_IVOR10                                        build/obj/boot.o
_C0_IVOR11                                        build/obj/boot.o
_C0_IVOR12                                        build/obj/boot.o
_C0_IVOR13                                        build/obj/boot.o
_C0_IVOR14                                        build/obj/boot.o
_C0_IVOR15                                        build/obj/boot.o
_C0_IVOR2                                         build/obj/boot.o
_C0_IVOR3                                         build/obj/boot.o
_C0_IVOR4                                         build/obj/boot.o
_C0_IVOR5                                         build/obj/boot.o
_C0_IVOR6                                         build/obj/boot.o
_C0_IVOR7                                         build/obj/boot.o
_C0_IVOR8                                         build/obj/boot.o
_C0_IVOR9                                         build/obj/boot.o
_C1_IVOR0                                         build/obj/boot.o
_C1_IVOR1                                         build/obj/boot.o
_C1_IVOR10                                        build/obj/boot.o
_C1_IVOR11                                        build/obj/boot.o
_C1_IVOR12                                        build/obj/boot.o
_C1_IVOR13                                        build/obj/boot.o
_C1_IVOR14                                        build/obj/boot.o
_C1_IVOR15                                        build/obj/boot.o
_C1_IVOR2                                         build/obj/boot.o
_C1_IVOR3                                         build/obj/boot.o
_C1_IVOR4                                         build/obj/boot.o
_C1_IVOR5                                         build/obj/boot.o
_C1_IVOR6                                         build/obj/boot.o
_C1_IVOR7                                         build/obj/boot.o
_C1_IVOR8                                         build/obj/boot.o
_C1_IVOR9                                         build/obj/boot.o
_IVOR0                                            build/obj/boot.o
_IVOR1                                            build/obj/boot.o
_IVOR10                                           build/obj/boot.o
_IVOR11                                           build/obj/boot.o
_IVOR12                                           build/obj/boot.o
_IVOR13                                           build/obj/boot.o
_IVOR14                                           build/obj/boot.o
_IVOR15                                           build/obj/boot.o
_IVOR2                                            build/obj/boot.o
_IVOR3                                            build/obj/boot.o
_IVOR4                                            build/obj/portasm.o
                                                  build/obj/boot.o
_IVOR5                                            build/obj/boot.o
_IVOR6                                            build/obj/boot.o
_IVOR7                                            build/obj/boot.o
_IVOR8                                            build/obj/portasm.o
                                                  build/obj/boot.o
_IVOR9                                            build/obj/boot.o
_SDA2_BASE_                                       build/obj/boot.o
_SDA_BASE_                                        build/obj/boot.o
__adddf3                                          c:/spc5studio-6.0/eclipse/plugins/com.st.tools.spc5.tools.gnu.gcc.ppcvle.win32_4.9.4.20200908161514/toolchain/bin/../lib/gcc/powerpc-eabivle/4.9.4/e200z4\libgcc.a(_addsub_df.o)
__addsf3                                          c:/spc5studio-6.0/eclipse/plugins/com.st.tools.spc5.tools.gnu.gcc.ppcvle.win32_4.9.4.20200908161514/toolchain/bin/../lib/gcc/powerpc-eabivle/4.9.4/e200z4\libgcc.a(_addsub_sf.o)
                                                  build/obj/h302.o
__bss_end__                                       build/obj/crt0.o
__bss_start__                                     build/obj/crt0.o
__data_end__                                      build/obj/crt0.o
__data_start__                                    build/obj/crt0.o
__divdf3                                          c:/spc5studio-6.0/eclipse/plugins/com.st.tools.spc5.tools.gnu.gcc.ppcvle.win32_4.9.4.20200908161514/toolchain/bin/../lib/gcc/powerpc-eabivle/4.9.4/e200z4\libgcc.a(_div_df.o)
                                                  build/obj/h302.o
__dram0_end__                                     build/obj/boot.o
__dram0_start__                                   build/obj/boot.o
__dram1_end__                                     build/obj/boot.o
__dram1_start__                                   build/obj/boot.o
__dram2_end__                                     build/obj/boot.o
__dram2_start__                                   build/obj/boot.o
__eabi                                            build/obj/crt0.o
                                                  build/obj/main.o
__early_init                                      build/obj/clock.o
                                                  build/obj/crt0.o
__extendsfdf2                                     c:/spc5studio-6.0/eclipse/plugins/com.st.tools.spc5.tools.gnu.gcc.ppcvle.win32_4.9.4.20200908161514/toolchain/bin/../lib/gcc/powerpc-eabivle/4.9.4/e200z4\libgcc.a(_sf_to_df.o)
                                                  build/obj/h302.o
__fixdfsi                                         c:/spc5studio-6.0/eclipse/plugins/com.st.tools.spc5.tools.gnu.gcc.ppcvle.win32_4.9.4.20200908161514/toolchain/bin/../lib/gcc/powerpc-eabivle/4.9.4/e200z4\libgcc.a(_df_to_si.o)
                                                  c:/spc5studio-6.0/eclipse/plugins/com.st.tools.spc5.tools.gnu.gcc.ppcvle.win32_4.9.4.20200908161514/toolchain/bin/../lib/gcc/powerpc-eabivle/4.9.4/e200z4\libgcc.a(_fixunsdfsi.o)
__fixsfsi                                         c:/spc5studio-6.0/eclipse/plugins/com.st.tools.spc5.tools.gnu.gcc.ppcvle.win32_4.9.4.20200908161514/toolchain/bin/../lib/gcc/powerpc-eabivle/4.9.4/e200z4\libgcc.a(_sf_to_si.o)
                                                  c:/spc5studio-6.0/eclipse/plugins/com.st.tools.spc5.tools.gnu.gcc.ppcvle.win32_4.9.4.20200908161514/toolchain/bin/../lib/gcc/powerpc-eabivle/4.9.4/e200z4\libgcc.a(_fixunssfsi.o)
__fixunsdfsi                                      c:/spc5studio-6.0/eclipse/plugins/com.st.tools.spc5.tools.gnu.gcc.ppcvle.win32_4.9.4.20200908161514/toolchain/bin/../lib/gcc/powerpc-eabivle/4.9.4/e200z4\libgcc.a(_fixunsdfsi.o)
                                                  build/obj/h302.o
__fixunssfsi                                      c:/spc5studio-6.0/eclipse/plugins/com.st.tools.spc5.tools.gnu.gcc.ppcvle.win32_4.9.4.20200908161514/toolchain/bin/../lib/gcc/powerpc-eabivle/4.9.4/e200z4\libgcc.a(_fixunssfsi.o)
                                                  build/obj/CAN_tools.o
__floatsisf                                       c:/spc5studio-6.0/eclipse/plugins/com.st.tools.spc5.tools.gnu.gcc.ppcvle.win32_4.9.4.20200908161514/toolchain/bin/../lib/gcc/powerpc-eabivle/4.9.4/e200z4\libgcc.a(_si_to_sf.o)
                                                  build/obj/main.o
__floatunsisf                                     c:/spc5studio-6.0/eclipse/plugins/com.st.tools.spc5.tools.gnu.gcc.ppcvle.win32_4.9.4.20200908161514/toolchain/bin/../lib/gcc/powerpc-eabivle/4.9.4/e200z4\libgcc.a(_usi_to_sf.o)
                                                  build/obj/CAN_tools.o
__fpcmp_parts_d                                   c:/spc5studio-6.0/eclipse/plugins/com.st.tools.spc5.tools.gnu.gcc.ppcvle.win32_4.9.4.20200908161514/toolchain/bin/../lib/gcc/powerpc-eabivle/4.9.4/e200z4\libgcc.a(_fpcmp_parts_df.o)
                                                  c:/spc5studio-6.0/eclipse/plugins/com.st.tools.spc5.tools.gnu.gcc.ppcvle.win32_4.9.4.20200908161514/toolchain/bin/../lib/gcc/powerpc-eabivle/4.9.4/e200z4\libgcc.a(_ge_df.o)
__fpcmp_parts_f                                   c:/spc5studio-6.0/eclipse/plugins/com.st.tools.spc5.tools.gnu.gcc.ppcvle.win32_4.9.4.20200908161514/toolchain/bin/../lib/gcc/powerpc-eabivle/4.9.4/e200z4\libgcc.a(_fpcmp_parts_sf.o)
                                                  c:/spc5studio-6.0/eclipse/plugins/com.st.tools.spc5.tools.gnu.gcc.ppcvle.win32_4.9.4.20200908161514/toolchain/bin/../lib/gcc/powerpc-eabivle/4.9.4/e200z4\libgcc.a(_lt_sf.o)
                                                  c:/spc5studio-6.0/eclipse/plugins/com.st.tools.spc5.tools.gnu.gcc.ppcvle.win32_4.9.4.20200908161514/toolchain/bin/../lib/gcc/powerpc-eabivle/4.9.4/e200z4\libgcc.a(_ge_sf.o)
                                                  c:/spc5studio-6.0/eclipse/plugins/com.st.tools.spc5.tools.gnu.gcc.ppcvle.win32_4.9.4.20200908161514/toolchain/bin/../lib/gcc/powerpc-eabivle/4.9.4/e200z4\libgcc.a(_gt_sf.o)
__gedf2                                           c:/spc5studio-6.0/eclipse/plugins/com.st.tools.spc5.tools.gnu.gcc.ppcvle.win32_4.9.4.20200908161514/toolchain/bin/../lib/gcc/powerpc-eabivle/4.9.4/e200z4\libgcc.a(_ge_df.o)
                                                  c:/spc5studio-6.0/eclipse/plugins/com.st.tools.spc5.tools.gnu.gcc.ppcvle.win32_4.9.4.20200908161514/toolchain/bin/../lib/gcc/powerpc-eabivle/4.9.4/e200z4\libgcc.a(_fixunsdfsi.o)
__gesf2                                           c:/spc5studio-6.0/eclipse/plugins/com.st.tools.spc5.tools.gnu.gcc.ppcvle.win32_4.9.4.20200908161514/toolchain/bin/../lib/gcc/powerpc-eabivle/4.9.4/e200z4\libgcc.a(_ge_sf.o)
                                                  c:/spc5studio-6.0/eclipse/plugins/com.st.tools.spc5.tools.gnu.gcc.ppcvle.win32_4.9.4.20200908161514/toolchain/bin/../lib/gcc/powerpc-eabivle/4.9.4/e200z4\libgcc.a(_fixunssfsi.o)
__gtsf2                                           c:/spc5studio-6.0/eclipse/plugins/com.st.tools.spc5.tools.gnu.gcc.ppcvle.win32_4.9.4.20200908161514/toolchain/bin/../lib/gcc/powerpc-eabivle/4.9.4/e200z4\libgcc.a(_gt_sf.o)
                                                  build/obj/CAN_tools.o
                                                  build/obj/h302.o
__iram0_end__                                     build/obj/boot.o
__iram0_start__                                   build/obj/boot.o
__iram1_end__                                     build/obj/boot.o
__iram1_start__                                   build/obj/boot.o
__iram2_end__                                     build/obj/boot.o
__iram2_start__                                   build/obj/boot.o
__ivpr0_base__                                    build/obj/boot.o
__ivpr1_base__                                    build/obj/boot.o
__ivpr2_base__                                    build/obj/boot.o
__late_init                                       build/obj/crt0.o
__ltsf2                                           c:/spc5studio-6.0/eclipse/plugins/com.st.tools.spc5.tools.gnu.gcc.ppcvle.win32_4.9.4.20200908161514/toolchain/bin/../lib/gcc/powerpc-eabivle/4.9.4/e200z4\libgcc.a(_lt_sf.o)
                                                  build/obj/h302.o
__make_dp                                         c:/spc5studio-6.0/eclipse/plugins/com.st.tools.spc5.tools.gnu.gcc.ppcvle.win32_4.9.4.20200908161514/toolchain/bin/../lib/gcc/powerpc-eabivle/4.9.4/e200z4\libgcc.a(_make_df.o)
                                                  c:/spc5studio-6.0/eclipse/plugins/com.st.tools.spc5.tools.gnu.gcc.ppcvle.win32_4.9.4.20200908161514/toolchain/bin/../lib/gcc/powerpc-eabivle/4.9.4/e200z4\libgcc.a(_sf_to_df.o)
__mulsf3                                          c:/spc5studio-6.0/eclipse/plugins/com.st.tools.spc5.tools.gnu.gcc.ppcvle.win32_4.9.4.20200908161514/toolchain/bin/../lib/gcc/powerpc-eabivle/4.9.4/e200z4\libgcc.a(_mul_sf.o)
                                                  build/obj/CAN_tools.o
                                                  build/obj/main.o
__pack_d                                          c:/spc5studio-6.0/eclipse/plugins/com.st.tools.spc5.tools.gnu.gcc.ppcvle.win32_4.9.4.20200908161514/toolchain/bin/../lib/gcc/powerpc-eabivle/4.9.4/e200z4\libgcc.a(_pack_df.o)
                                                  c:/spc5studio-6.0/eclipse/plugins/com.st.tools.spc5.tools.gnu.gcc.ppcvle.win32_4.9.4.20200908161514/toolchain/bin/../lib/gcc/powerpc-eabivle/4.9.4/e200z4\libgcc.a(_make_df.o)
                                                  c:/spc5studio-6.0/eclipse/plugins/com.st.tools.spc5.tools.gnu.gcc.ppcvle.win32_4.9.4.20200908161514/toolchain/bin/../lib/gcc/powerpc-eabivle/4.9.4/e200z4\libgcc.a(_div_df.o)
                                                  c:/spc5studio-6.0/eclipse/plugins/com.st.tools.spc5.tools.gnu.gcc.ppcvle.win32_4.9.4.20200908161514/toolchain/bin/../lib/gcc/powerpc-eabivle/4.9.4/e200z4\libgcc.a(_addsub_df.o)
__pack_f                                          c:/spc5studio-6.0/eclipse/plugins/com.st.tools.spc5.tools.gnu.gcc.ppcvle.win32_4.9.4.20200908161514/toolchain/bin/../lib/gcc/powerpc-eabivle/4.9.4/e200z4\libgcc.a(_pack_sf.o)
                                                  c:/spc5studio-6.0/eclipse/plugins/com.st.tools.spc5.tools.gnu.gcc.ppcvle.win32_4.9.4.20200908161514/toolchain/bin/../lib/gcc/powerpc-eabivle/4.9.4/e200z4\libgcc.a(_usi_to_sf.o)
                                                  c:/spc5studio-6.0/eclipse/plugins/com.st.tools.spc5.tools.gnu.gcc.ppcvle.win32_4.9.4.20200908161514/toolchain/bin/../lib/gcc/powerpc-eabivle/4.9.4/e200z4\libgcc.a(_si_to_sf.o)
                                                  c:/spc5studio-6.0/eclipse/plugins/com.st.tools.spc5.tools.gnu.gcc.ppcvle.win32_4.9.4.20200908161514/toolchain/bin/../lib/gcc/powerpc-eabivle/4.9.4/e200z4\libgcc.a(_mul_sf.o)
                                                  c:/spc5studio-6.0/eclipse/plugins/com.st.tools.spc5.tools.gnu.gcc.ppcvle.win32_4.9.4.20200908161514/toolchain/bin/../lib/gcc/powerpc-eabivle/4.9.4/e200z4\libgcc.a(_addsub_sf.o)
__process_stack_end__                             build/obj/crt0.o
__ram_end__                                       build/obj/boot.o
__ram_start__                                     build/obj/boot.o
__romdata_start__                                 build/obj/crt0.o
__sdata2_start__                                  build/obj/port.o
                                                  build/obj/crt0.o
__sdata_start__                                   build/obj/crt0.o
__subdf3                                          c:/spc5studio-6.0/eclipse/plugins/com.st.tools.spc5.tools.gnu.gcc.ppcvle.win32_4.9.4.20200908161514/toolchain/bin/../lib/gcc/powerpc-eabivle/4.9.4/e200z4\libgcc.a(_addsub_df.o)
                                                  c:/spc5studio-6.0/eclipse/plugins/com.st.tools.spc5.tools.gnu.gcc.ppcvle.win32_4.9.4.20200908161514/toolchain/bin/../lib/gcc/powerpc-eabivle/4.9.4/e200z4\libgcc.a(_fixunsdfsi.o)
__subsf3                                          c:/spc5studio-6.0/eclipse/plugins/com.st.tools.spc5.tools.gnu.gcc.ppcvle.win32_4.9.4.20200908161514/toolchain/bin/../lib/gcc/powerpc-eabivle/4.9.4/e200z4\libgcc.a(_addsub_sf.o)
                                                  c:/spc5studio-6.0/eclipse/plugins/com.st.tools.spc5.tools.gnu.gcc.ppcvle.win32_4.9.4.20200908161514/toolchain/bin/../lib/gcc/powerpc-eabivle/4.9.4/e200z4\libgcc.a(_fixunssfsi.o)
                                                  build/obj/h302.o
__thenan_df                                       c:/spc5studio-6.0/eclipse/plugins/com.st.tools.spc5.tools.gnu.gcc.ppcvle.win32_4.9.4.20200908161514/toolchain/bin/../lib/gcc/powerpc-eabivle/4.9.4/e200z4\libgcc.a(_thenan_df.o)
                                                  c:/spc5studio-6.0/eclipse/plugins/com.st.tools.spc5.tools.gnu.gcc.ppcvle.win32_4.9.4.20200908161514/toolchain/bin/../lib/gcc/powerpc-eabivle/4.9.4/e200z4\libgcc.a(_div_df.o)
                                                  c:/spc5studio-6.0/eclipse/plugins/com.st.tools.spc5.tools.gnu.gcc.ppcvle.win32_4.9.4.20200908161514/toolchain/bin/../lib/gcc/powerpc-eabivle/4.9.4/e200z4\libgcc.a(_addsub_df.o)
__thenan_sf                                       c:/spc5studio-6.0/eclipse/plugins/com.st.tools.spc5.tools.gnu.gcc.ppcvle.win32_4.9.4.20200908161514/toolchain/bin/../lib/gcc/powerpc-eabivle/4.9.4/e200z4\libgcc.a(_thenan_sf.o)
                                                  c:/spc5studio-6.0/eclipse/plugins/com.st.tools.spc5.tools.gnu.gcc.ppcvle.win32_4.9.4.20200908161514/toolchain/bin/../lib/gcc/powerpc-eabivle/4.9.4/e200z4\libgcc.a(_mul_sf.o)
                                                  c:/spc5studio-6.0/eclipse/plugins/com.st.tools.spc5.tools.gnu.gcc.ppcvle.win32_4.9.4.20200908161514/toolchain/bin/../lib/gcc/powerpc-eabivle/4.9.4/e200z4\libgcc.a(_addsub_sf.o)
__unpack_d                                        c:/spc5studio-6.0/eclipse/plugins/com.st.tools.spc5.tools.gnu.gcc.ppcvle.win32_4.9.4.20200908161514/toolchain/bin/../lib/gcc/powerpc-eabivle/4.9.4/e200z4\libgcc.a(_unpack_df.o)
                                                  c:/spc5studio-6.0/eclipse/plugins/com.st.tools.spc5.tools.gnu.gcc.ppcvle.win32_4.9.4.20200908161514/toolchain/bin/../lib/gcc/powerpc-eabivle/4.9.4/e200z4\libgcc.a(_df_to_si.o)
                                                  c:/spc5studio-6.0/eclipse/plugins/com.st.tools.spc5.tools.gnu.gcc.ppcvle.win32_4.9.4.20200908161514/toolchain/bin/../lib/gcc/powerpc-eabivle/4.9.4/e200z4\libgcc.a(_ge_df.o)
                                                  c:/spc5studio-6.0/eclipse/plugins/com.st.tools.spc5.tools.gnu.gcc.ppcvle.win32_4.9.4.20200908161514/toolchain/bin/../lib/gcc/powerpc-eabivle/4.9.4/e200z4\libgcc.a(_div_df.o)
                                                  c:/spc5studio-6.0/eclipse/plugins/com.st.tools.spc5.tools.gnu.gcc.ppcvle.win32_4.9.4.20200908161514/toolchain/bin/../lib/gcc/powerpc-eabivle/4.9.4/e200z4\libgcc.a(_addsub_df.o)
__unpack_f                                        c:/spc5studio-6.0/eclipse/plugins/com.st.tools.spc5.tools.gnu.gcc.ppcvle.win32_4.9.4.20200908161514/toolchain/bin/../lib/gcc/powerpc-eabivle/4.9.4/e200z4\libgcc.a(_unpack_sf.o)
                                                  c:/spc5studio-6.0/eclipse/plugins/com.st.tools.spc5.tools.gnu.gcc.ppcvle.win32_4.9.4.20200908161514/toolchain/bin/../lib/gcc/powerpc-eabivle/4.9.4/e200z4\libgcc.a(_sf_to_df.o)
                                                  c:/spc5studio-6.0/eclipse/plugins/com.st.tools.spc5.tools.gnu.gcc.ppcvle.win32_4.9.4.20200908161514/toolchain/bin/../lib/gcc/powerpc-eabivle/4.9.4/e200z4\libgcc.a(_sf_to_si.o)
                                                  c:/spc5studio-6.0/eclipse/plugins/com.st.tools.spc5.tools.gnu.gcc.ppcvle.win32_4.9.4.20200908161514/toolchain/bin/../lib/gcc/powerpc-eabivle/4.9.4/e200z4\libgcc.a(_lt_sf.o)
                                                  c:/spc5studio-6.0/eclipse/plugins/com.st.tools.spc5.tools.gnu.gcc.ppcvle.win32_4.9.4.20200908161514/toolchain/bin/../lib/gcc/powerpc-eabivle/4.9.4/e200z4\libgcc.a(_ge_sf.o)
                                                  c:/spc5studio-6.0/eclipse/plugins/com.st.tools.spc5.tools.gnu.gcc.ppcvle.win32_4.9.4.20200908161514/toolchain/bin/../lib/gcc/powerpc-eabivle/4.9.4/e200z4\libgcc.a(_gt_sf.o)
                                                  c:/spc5studio-6.0/eclipse/plugins/com.st.tools.spc5.tools.gnu.gcc.ppcvle.win32_4.9.4.20200908161514/toolchain/bin/../lib/gcc/powerpc-eabivle/4.9.4/e200z4\libgcc.a(_mul_sf.o)
                                                  c:/spc5studio-6.0/eclipse/plugins/com.st.tools.spc5.tools.gnu.gcc.ppcvle.win32_4.9.4.20200908161514/toolchain/bin/../lib/gcc/powerpc-eabivle/4.9.4/e200z4\libgcc.a(_addsub_sf.o)
_boot_address                                     build/obj/crt0.o
                                                  build/obj/boot.o
_boot_address0                                    build/obj/boot.o
_boot_address1                                    build/obj/boot.o
_main_exit_handler                                build/obj/crt0.o
_pal_readgroup                                    build/obj/pal.o
_pal_setgroupmode                                 build/obj/pal.o
_pal_writegroup                                   build/obj/pal.o
_reset_address0                                   build/obj/boot.o
_reset_address1                                   build/obj/boot.o
_reset_address2                                   build/obj/boot.o
_unhandled_exception0                             build/obj/boot.o
_unhandled_exception1                             build/obj/boot.o
_unhandled_exception2                             build/obj/boot.o
_unhandled_irq                                    build/obj/vectors.o
_vectors                                          build/obj/vectors.o
                                                  build/obj/irq.o
autonom                                           build/obj/main.o
                                                  build/obj/CAN_tools.o
boardInit                                         build/obj/board.o
                                                  build/obj/components.o
cache_disable                                     build/obj/cache.o
cache_enable                                      build/obj/cache.o
cache_flush_range                                 build/obj/cache.o
cache_get_cfg                                     build/obj/cache.o
cache_get_status                                  build/obj/cache.o
cache_invalidate                                  build/obj/cache.o
cache_invalidate_range                            build/obj/cache.o
cache_set_control                                 build/obj/cache.o
can3_rx                                           build/obj/CAN_tools.o
                                                  build/obj/can_lld_cfg.o
can4_rx                                           build/obj/CAN_tools.o
                                                  build/obj/can_lld_cfg.o
can5_rx                                           build/obj/CAN_tools.o
                                                  build/obj/can_lld_cfg.o
can_config_can3                                   build/obj/can_lld_cfg.o
                                                  build/obj/main.o
can_config_can4                                   build/obj/can_lld_cfg.o
                                                  build/obj/main.o
can_config_can5                                   build/obj/can_lld_cfg.o
                                                  build/obj/main.o
can_lld_getDLC                                    build/obj/can_lld.o
can_lld_getframesize                              build/obj/can_lld.o
can_lld_init                                      build/obj/can_lld.o
                                                  build/obj/spc5_lld.o
can_lld_readBuffer                                build/obj/can_lld.o
                                                  build/obj/CAN_tools.o
can_lld_receive                                   build/obj/can_lld.o
can_lld_start                                     build/obj/can_lld.o
                                                  build/obj/main.o
can_lld_stop                                      build/obj/can_lld.o
can_lld_transmit                                  build/obj/can_lld.o
                                                  build/obj/CAN_tools.o
                                                  build/obj/main.o
can_lld_writeTxBuffer                             build/obj/can_lld.o
clearCANerrors                                    build/obj/CAN_tools.o
clockInit                                         build/obj/clock.o
                                                  build/obj/components.o
componentsInit                                    build/obj/components.o
                                                  build/obj/main.o
converto1byteorder                                build/obj/crc.o
converto4byteorder                                build/obj/crc.o
copyCANmsgs                                       build/obj/CAN_tools.o
edmaChannelAllocate                               build/obj/spc5_edma.o
edmaChannelRelease                                build/obj/spc5_edma.o
edmaInit                                          build/obj/spc5_edma.o
                                                  build/obj/spc5_lld.o
eirqInit                                          build/obj/eirq.o
                                                  build/obj/components.o
eirqconf                                          build/obj/eirq_cfg.o
                                                  build/obj/eirq.o
irqInit                                           build/obj/irq.o
                                                  build/obj/components.o
irqSysHalt                                        build/obj/irq.o
                                                  build/obj/clock.o
                                                  build/obj/spc5_edma.o
irq_cfg_init                                      build/obj/irq_cfg.o
                                                  build/obj/irq.o
largememcpy                                       c:/spc5studio-6.0/eclipse/plugins/com.st.tools.spc5.tools.gnu.gcc.ppcvle.win32_4.9.4.20200908161514/toolchain/bin/../lib/gcc/powerpc-eabivle/4.9.4/../../../../powerpc-eabivle/lib/e200z4\libc.a(lib_a-memcpy.o)
main                                              build/obj/main.o
                                                  build/obj/crt0.o
manage_eirq_interrupt                             build/obj/eirq.o
memcpy                                            c:/spc5studio-6.0/eclipse/plugins/com.st.tools.spc5.tools.gnu.gcc.ppcvle.win32_4.9.4.20200908161514/toolchain/bin/../lib/gcc/powerpc-eabivle/4.9.4/../../../../powerpc-eabivle/lib/e200z4\libc.a(lib_a-memcpy.o)
                                                  build/obj/stream_buffer.o
                                                  build/obj/queue.o
                                                  build/obj/can_lld.o
memset                                            c:/spc5studio-6.0/eclipse/plugins/com.st.tools.spc5.tools.gnu.gcc.ppcvle.win32_4.9.4.20200908161514/toolchain/bin/../lib/gcc/powerpc-eabivle/4.9.4/../../../../powerpc-eabivle/lib/e200z4\libc.a(lib_a-memset.o)
                                                  build/obj/osal.o
osalEnterCritical                                 build/obj/osal.o
osalEnterCriticalFromISR                          build/obj/osal.o
osalExitCritical                                  build/obj/osal.o
osalExitCriticalFromISR                           build/obj/osal.o
osalInit                                          build/obj/osal.o
                                                  build/obj/components.o
osalSysTimeReset                                  build/obj/osal.o
                                                  build/obj/port.o
osalSysTimeSetup                                  build/obj/osal.o
                                                  build/obj/port.o
osalThreadDelayMicroseconds                       build/obj/osal.o
osalThreadDelayMilliseconds                       build/obj/osal.o
osalThreadDelaySeconds                            build/obj/osal.o
osalThreadGetMicroseconds                         build/obj/osal.o
osalThreadGetMilliseconds                         build/obj/osal.o
osalThreadGetSeconds                              build/obj/osal.o
pal_init                                          build/obj/pal.o
                                                  build/obj/board.o
parseinterface                                    build/obj/main.o
pcQueueGetName                                    build/obj/queue.o
pcTaskGetName                                     build/obj/tasks.o
prvPortTimerSetup                                 build/obj/port.o
pvPortMalloc                                      build/obj/heap_4.o
                                                  build/obj/tasks.o
                                                  build/obj/stream_buffer.o
                                                  build/obj/queue.o
                                                  build/obj/event_groups.o
pvTaskGetThreadLocalStoragePointer                build/obj/tasks.o
pvTaskIncrementMutexHeldCount                     build/obj/tasks.o
                                                  build/obj/queue.o
pxCurrentTCB                                      build/obj/tasks.o
                                                  build/obj/portasm.o
pxPortInitialiseStack                             build/obj/port.o
                                                  build/obj/tasks.o
rateLimitter                                      build/obj/h302.o
setTorque                                         build/obj/main.o
spc5LLDInit                                       build/obj/spc5_lld.o
                                                  build/obj/components.o
spc_clock_init                                    build/obj/clock.o
swirqInit                                         build/obj/swirq.o
swirq_clear                                       build/obj/swirq.o
swirq_disable                                     build/obj/swirq.o
swirq_enable                                      build/obj/swirq.o
swirq_init_prio                                   build/obj/swirq_cfg.o
                                                  build/obj/swirq.o
swirq_set                                         build/obj/swirq.o
sysTimeReset                                      build/obj/systimer.o
                                                  build/obj/osal.o
sysTimeSetup                                      build/obj/systimer.o
                                                  build/obj/osal.o
ulTaskNotifyTake                                  build/obj/tasks.o
uxListRemove                                      build/obj/list.o
                                                  build/obj/tasks.o
uxQueueMessagesWaiting                            build/obj/queue.o
uxQueueMessagesWaitingFromISR                     build/obj/queue.o
uxQueueSpacesAvailable                            build/obj/queue.o
uxTaskGetNumberOfTasks                            build/obj/tasks.o
uxTaskPriorityGet                                 build/obj/tasks.o
uxTaskPriorityGetFromISR                          build/obj/tasks.o
uxTaskResetEventItemValue                         build/obj/tasks.o
                                                  build/obj/event_groups.o
vEventGroupClearBitsCallback                      build/obj/event_groups.o
vEventGroupDelete                                 build/obj/event_groups.o
vEventGroupSetBitsCallback                        build/obj/event_groups.o
vListInitialise                                   build/obj/list.o
                                                  build/obj/tasks.o
                                                  build/obj/queue.o
                                                  build/obj/event_groups.o
vListInitialiseItem                               build/obj/list.o
                                                  build/obj/tasks.o
vListInsert                                       build/obj/list.o
                                                  build/obj/tasks.o
vListInsertEnd                                    build/obj/list.o
                                                  build/obj/tasks.o
vPortEndScheduler                                 build/obj/port.o
                                                  build/obj/tasks.o
vPortFree                                         build/obj/heap_4.o
                                                  build/obj/tasks.o
                                                  build/obj/stream_buffer.o
                                                  build/obj/queue.o
                                                  build/obj/event_groups.o
vPortInitialiseBlocks                             build/obj/heap_4.o
vPortStartFirstTask                               build/obj/portasm.o
                                                  build/obj/port.o
vPortTimerReset                                   build/obj/port.o
vQueueAddToRegistry                               build/obj/queue.o
vQueueDelete                                      build/obj/queue.o
vQueueUnregisterQueue                             build/obj/queue.o
vStreamBufferDelete                               build/obj/stream_buffer.o
vTaskCAN5                                         build/obj/main.o
vTaskDelay                                        build/obj/tasks.o
                                                  build/obj/osal.o
vTaskDelayUntil                                   build/obj/tasks.o
                                                  build/obj/main.o
vTaskEndScheduler                                 build/obj/tasks.o
vTaskEnterCritical                                build/obj/tasks.o
                                                  build/obj/osal.o
                                                  build/obj/stream_buffer.o
                                                  build/obj/queue.o
                                                  build/obj/event_groups.o
vTaskExitCritical                                 build/obj/tasks.o
                                                  build/obj/osal.o
                                                  build/obj/stream_buffer.o
                                                  build/obj/queue.o
                                                  build/obj/event_groups.o
vTaskInternalSetTimeOutState                      build/obj/tasks.o
                                                  build/obj/queue.o
vTaskMissedYield                                  build/obj/tasks.o
                                                  build/obj/queue.o
vTaskNotifyGiveFromISR                            build/obj/tasks.o
vTaskParkAssist                                   build/obj/main.o
vTaskPlaceOnEventList                             build/obj/tasks.o
                                                  build/obj/queue.o
vTaskPlaceOnUnorderedEventList                    build/obj/tasks.o
                                                  build/obj/event_groups.o
vTaskPriorityDisinheritAfterTimeout               build/obj/tasks.o
                                                  build/obj/queue.o
vTaskPrioritySet                                  build/obj/tasks.o
vTaskRemoveFromUnorderedEventList                 build/obj/tasks.o
                                                  build/obj/event_groups.o
vTaskResume                                       build/obj/tasks.o
vTaskSetThreadLocalStoragePointer                 build/obj/tasks.o
vTaskSetTimeOutState                              build/obj/tasks.o
                                                  build/obj/stream_buffer.o
vTaskStartScheduler                               build/obj/tasks.o
                                                  build/obj/main.o
vTaskSuspend                                      build/obj/tasks.o
vTaskSuspendAll                                   build/obj/tasks.o
                                                  build/obj/heap_4.o
                                                  build/obj/stream_buffer.o
                                                  build/obj/queue.o
                                                  build/obj/event_groups.o
vTaskSwitchContext                                build/obj/tasks.o
                                                  build/obj/port.o
                                                  build/obj/portasm.o
vTaskmain                                         build/obj/main.o
vector0                                           build/obj/vectors.o
vector1                                           build/obj/vectors.o
vector10                                          build/obj/vectors.o
vector100                                         build/obj/spc5_edma.o
                                                  build/obj/vectors.o
vector1000                                        build/obj/vectors.o
vector1001                                        build/obj/vectors.o
vector1002                                        build/obj/vectors.o
vector1003                                        build/obj/vectors.o
vector1004                                        build/obj/vectors.o
vector1005                                        build/obj/vectors.o
vector1006                                        build/obj/vectors.o
vector1007                                        build/obj/vectors.o
vector1008                                        build/obj/vectors.o
vector1009                                        build/obj/vectors.o
vector101                                         build/obj/spc5_edma.o
                                                  build/obj/vectors.o
vector1010                                        build/obj/vectors.o
vector1011                                        build/obj/vectors.o
vector1012                                        build/obj/vectors.o
vector1013                                        build/obj/vectors.o
vector1014                                        build/obj/vectors.o
vector1015                                        build/obj/vectors.o
vector1016                                        build/obj/vectors.o
vector1017                                        build/obj/vectors.o
vector1018                                        build/obj/vectors.o
vector1019                                        build/obj/vectors.o
vector102                                         build/obj/spc5_edma.o
                                                  build/obj/vectors.o
vector1020                                        build/obj/vectors.o
vector1021                                        build/obj/vectors.o
vector1022                                        build/obj/vectors.o
vector1023                                        build/obj/vectors.o
vector103                                         build/obj/spc5_edma.o
                                                  build/obj/vectors.o
vector104                                         build/obj/spc5_edma.o
                                                  build/obj/vectors.o
vector105                                         build/obj/spc5_edma.o
                                                  build/obj/vectors.o
vector106                                         build/obj/spc5_edma.o
                                                  build/obj/vectors.o
vector107                                         build/obj/spc5_edma.o
                                                  build/obj/vectors.o
vector108                                         build/obj/spc5_edma.o
                                                  build/obj/vectors.o
vector109                                         build/obj/spc5_edma.o
                                                  build/obj/vectors.o
vector11                                          build/obj/vectors.o
vector110                                         build/obj/spc5_edma.o
                                                  build/obj/vectors.o
vector111                                         build/obj/spc5_edma.o
                                                  build/obj/vectors.o
vector112                                         build/obj/spc5_edma.o
                                                  build/obj/vectors.o
vector113                                         build/obj/spc5_edma.o
                                                  build/obj/vectors.o
vector114                                         build/obj/spc5_edma.o
                                                  build/obj/vectors.o
vector115                                         build/obj/spc5_edma.o
                                                  build/obj/vectors.o
vector116                                         build/obj/spc5_edma.o
                                                  build/obj/vectors.o
vector117                                         build/obj/spc5_edma.o
                                                  build/obj/vectors.o
vector118                                         build/obj/spc5_edma.o
                                                  build/obj/vectors.o
vector119                                         build/obj/spc5_edma.o
                                                  build/obj/vectors.o
vector12                                          build/obj/vectors.o
vector120                                         build/obj/spc5_edma.o
                                                  build/obj/vectors.o
vector121                                         build/obj/spc5_edma.o
                                                  build/obj/vectors.o
vector122                                         build/obj/spc5_edma.o
                                                  build/obj/vectors.o
vector123                                         build/obj/spc5_edma.o
                                                  build/obj/vectors.o
vector124                                         build/obj/spc5_edma.o
                                                  build/obj/vectors.o
vector125                                         build/obj/spc5_edma.o
                                                  build/obj/vectors.o
vector126                                         build/obj/spc5_edma.o
                                                  build/obj/vectors.o
vector127                                         build/obj/spc5_edma.o
                                                  build/obj/vectors.o
vector128                                         build/obj/spc5_edma.o
                                                  build/obj/vectors.o
vector129                                         build/obj/spc5_edma.o
                                                  build/obj/vectors.o
vector13                                          build/obj/vectors.o
vector130                                         build/obj/spc5_edma.o
                                                  build/obj/vectors.o
vector131                                         build/obj/spc5_edma.o
                                                  build/obj/vectors.o
vector132                                         build/obj/spc5_edma.o
                                                  build/obj/vectors.o
vector133                                         build/obj/spc5_edma.o
                                                  build/obj/vectors.o
vector134                                         build/obj/spc5_edma.o
                                                  build/obj/vectors.o
vector135                                         build/obj/spc5_edma.o
                                                  build/obj/vectors.o
vector136                                         build/obj/spc5_edma.o
                                                  build/obj/vectors.o
vector137                                         build/obj/spc5_edma.o
                                                  build/obj/vectors.o
vector138                                         build/obj/spc5_edma.o
                                                  build/obj/vectors.o
vector139                                         build/obj/spc5_edma.o
                                                  build/obj/vectors.o
vector14                                          build/obj/vectors.o
vector140                                         build/obj/spc5_edma.o
                                                  build/obj/vectors.o
vector141                                         build/obj/spc5_edma.o
                                                  build/obj/vectors.o
vector142                                         build/obj/spc5_edma.o
                                                  build/obj/vectors.o
vector143                                         build/obj/spc5_edma.o
                                                  build/obj/vectors.o
vector144                                         build/obj/spc5_edma.o
                                                  build/obj/vectors.o
vector145                                         build/obj/spc5_edma.o
                                                  build/obj/vectors.o
vector146                                         build/obj/spc5_edma.o
                                                  build/obj/vectors.o
vector147                                         build/obj/spc5_edma.o
                                                  build/obj/vectors.o
vector148                                         build/obj/spc5_edma.o
                                                  build/obj/vectors.o
vector149                                         build/obj/vectors.o
vector15                                          build/obj/vectors.o
vector150                                         build/obj/vectors.o
vector151                                         build/obj/vectors.o
vector152                                         build/obj/vectors.o
vector153                                         build/obj/vectors.o
vector154                                         build/obj/vectors.o
vector155                                         build/obj/vectors.o
vector156                                         build/obj/vectors.o
vector157                                         build/obj/vectors.o
vector158                                         build/obj/vectors.o
vector159                                         build/obj/vectors.o
vector16                                          build/obj/vectors.o
vector160                                         build/obj/vectors.o
vector161                                         build/obj/vectors.o
vector162                                         build/obj/vectors.o
vector163                                         build/obj/vectors.o
vector164                                         build/obj/vectors.o
vector165                                         build/obj/vectors.o
vector166                                         build/obj/vectors.o
vector167                                         build/obj/vectors.o
vector168                                         build/obj/vectors.o
vector169                                         build/obj/vectors.o
vector17                                          build/obj/vectors.o
vector170                                         build/obj/vectors.o
vector171                                         build/obj/vectors.o
vector172                                         build/obj/vectors.o
vector173                                         build/obj/vectors.o
vector174                                         build/obj/vectors.o
vector175                                         build/obj/vectors.o
vector176                                         build/obj/vectors.o
vector177                                         build/obj/vectors.o
vector178                                         build/obj/vectors.o
vector179                                         build/obj/vectors.o
vector18                                          build/obj/vectors.o
vector180                                         build/obj/vectors.o
vector181                                         build/obj/vectors.o
vector182                                         build/obj/vectors.o
vector183                                         build/obj/vectors.o
vector184                                         build/obj/vectors.o
vector185                                         build/obj/vectors.o
vector186                                         build/obj/vectors.o
vector187                                         build/obj/vectors.o
vector188                                         build/obj/vectors.o
vector189                                         build/obj/vectors.o
vector19                                          build/obj/vectors.o
vector190                                         build/obj/vectors.o
vector191                                         build/obj/vectors.o
vector192                                         build/obj/vectors.o
vector193                                         build/obj/vectors.o
vector194                                         build/obj/vectors.o
vector195                                         build/obj/vectors.o
vector196                                         build/obj/vectors.o
vector197                                         build/obj/vectors.o
vector198                                         build/obj/vectors.o
vector199                                         build/obj/vectors.o
vector2                                           build/obj/vectors.o
vector20                                          build/obj/vectors.o
vector200                                         build/obj/vectors.o
vector201                                         build/obj/vectors.o
vector202                                         build/obj/vectors.o
vector203                                         build/obj/vectors.o
vector204                                         build/obj/vectors.o
vector205                                         build/obj/vectors.o
vector206                                         build/obj/vectors.o
vector207                                         build/obj/vectors.o
vector208                                         build/obj/vectors.o
vector209                                         build/obj/vectors.o
vector21                                          build/obj/vectors.o
vector210                                         build/obj/vectors.o
vector211                                         build/obj/vectors.o
vector212                                         build/obj/vectors.o
vector213                                         build/obj/vectors.o
vector214                                         build/obj/vectors.o
vector215                                         build/obj/vectors.o
vector216                                         build/obj/vectors.o
vector217                                         build/obj/vectors.o
vector218                                         build/obj/vectors.o
vector219                                         build/obj/vectors.o
vector22                                          build/obj/vectors.o
vector220                                         build/obj/vectors.o
vector221                                         build/obj/vectors.o
vector222                                         build/obj/vectors.o
vector223                                         build/obj/vectors.o
vector224                                         build/obj/vectors.o
vector225                                         build/obj/vectors.o
vector226                                         build/obj/port.o
                                                  build/obj/vectors.o
vector227                                         build/obj/vectors.o
vector228                                         build/obj/vectors.o
vector229                                         build/obj/vectors.o
vector23                                          build/obj/vectors.o
vector230                                         build/obj/vectors.o
vector231                                         build/obj/vectors.o
vector232                                         build/obj/vectors.o
vector233                                         build/obj/vectors.o
vector234                                         build/obj/vectors.o
vector235                                         build/obj/vectors.o
vector236                                         build/obj/vectors.o
vector237                                         build/obj/vectors.o
vector238                                         build/obj/vectors.o
vector239                                         build/obj/vectors.o
vector24                                          build/obj/vectors.o
vector240                                         build/obj/vectors.o
vector241                                         build/obj/vectors.o
vector242                                         build/obj/vectors.o
vector243                                         build/obj/eirq.o
                                                  build/obj/vectors.o
vector244                                         build/obj/eirq.o
                                                  build/obj/vectors.o
vector245                                         build/obj/vectors.o
vector246                                         build/obj/vectors.o
vector247                                         build/obj/vectors.o
vector248                                         build/obj/vectors.o
vector249                                         build/obj/vectors.o
vector25                                          build/obj/vectors.o
vector250                                         build/obj/vectors.o
vector251                                         build/obj/vectors.o
vector252                                         build/obj/vectors.o
vector253                                         build/obj/vectors.o
vector254                                         build/obj/vectors.o
vector255                                         build/obj/vectors.o
vector256                                         build/obj/vectors.o
vector257                                         build/obj/vectors.o
vector258                                         build/obj/vectors.o
vector259                                         build/obj/vectors.o
vector26                                          build/obj/vectors.o
vector260                                         build/obj/vectors.o
vector261                                         build/obj/vectors.o
vector262                                         build/obj/vectors.o
vector263                                         build/obj/vectors.o
vector264                                         build/obj/vectors.o
vector265                                         build/obj/vectors.o
vector266                                         build/obj/vectors.o
vector267                                         build/obj/vectors.o
vector268                                         build/obj/vectors.o
vector269                                         build/obj/vectors.o
vector27                                          build/obj/vectors.o
vector270                                         build/obj/vectors.o
vector271                                         build/obj/vectors.o
vector272                                         build/obj/vectors.o
vector273                                         build/obj/vectors.o
vector274                                         build/obj/vectors.o
vector275                                         build/obj/vectors.o
vector276                                         build/obj/vectors.o
vector277                                         build/obj/vectors.o
vector278                                         build/obj/vectors.o
vector279                                         build/obj/vectors.o
vector28                                          build/obj/vectors.o
vector280                                         build/obj/vectors.o
vector281                                         build/obj/vectors.o
vector282                                         build/obj/vectors.o
vector283                                         build/obj/vectors.o
vector284                                         build/obj/vectors.o
vector285                                         build/obj/vectors.o
vector286                                         build/obj/vectors.o
vector287                                         build/obj/vectors.o
vector288                                         build/obj/vectors.o
vector289                                         build/obj/vectors.o
vector29                                          build/obj/vectors.o
vector290                                         build/obj/vectors.o
vector291                                         build/obj/vectors.o
vector292                                         build/obj/vectors.o
vector293                                         build/obj/vectors.o
vector294                                         build/obj/vectors.o
vector295                                         build/obj/vectors.o
vector296                                         build/obj/vectors.o
vector297                                         build/obj/vectors.o
vector298                                         build/obj/vectors.o
vector299                                         build/obj/vectors.o
vector3                                           build/obj/vectors.o
vector30                                          build/obj/vectors.o
vector300                                         build/obj/vectors.o
vector301                                         build/obj/vectors.o
vector302                                         build/obj/vectors.o
vector303                                         build/obj/vectors.o
vector304                                         build/obj/vectors.o
vector305                                         build/obj/vectors.o
vector306                                         build/obj/vectors.o
vector307                                         build/obj/vectors.o
vector308                                         build/obj/vectors.o
vector309                                         build/obj/vectors.o
vector31                                          build/obj/vectors.o
vector310                                         build/obj/vectors.o
vector311                                         build/obj/vectors.o
vector312                                         build/obj/vectors.o
vector313                                         build/obj/vectors.o
vector314                                         build/obj/vectors.o
vector315                                         build/obj/vectors.o
vector316                                         build/obj/vectors.o
vector317                                         build/obj/vectors.o
vector318                                         build/obj/vectors.o
vector319                                         build/obj/vectors.o
vector32                                          build/obj/vectors.o
vector320                                         build/obj/vectors.o
vector321                                         build/obj/vectors.o
vector322                                         build/obj/vectors.o
vector323                                         build/obj/vectors.o
vector324                                         build/obj/vectors.o
vector325                                         build/obj/vectors.o
vector326                                         build/obj/vectors.o
vector327                                         build/obj/vectors.o
vector328                                         build/obj/vectors.o
vector329                                         build/obj/vectors.o
vector33                                          build/obj/vectors.o
vector330                                         build/obj/vectors.o
vector331                                         build/obj/vectors.o
vector332                                         build/obj/vectors.o
vector333                                         build/obj/vectors.o
vector334                                         build/obj/vectors.o
vector335                                         build/obj/vectors.o
vector336                                         build/obj/vectors.o
vector337                                         build/obj/vectors.o
vector338                                         build/obj/vectors.o
vector339                                         build/obj/vectors.o
vector34                                          build/obj/vectors.o
vector340                                         build/obj/vectors.o
vector341                                         build/obj/vectors.o
vector342                                         build/obj/vectors.o
vector343                                         build/obj/vectors.o
vector344                                         build/obj/vectors.o
vector345                                         build/obj/vectors.o
vector346                                         build/obj/vectors.o
vector347                                         build/obj/vectors.o
vector348                                         build/obj/vectors.o
vector349                                         build/obj/vectors.o
vector35                                          build/obj/vectors.o
vector350                                         build/obj/vectors.o
vector351                                         build/obj/vectors.o
vector352                                         build/obj/vectors.o
vector353                                         build/obj/vectors.o
vector354                                         build/obj/vectors.o
vector355                                         build/obj/vectors.o
vector356                                         build/obj/vectors.o
vector357                                         build/obj/vectors.o
vector358                                         build/obj/vectors.o
vector359                                         build/obj/vectors.o
vector36                                          build/obj/vectors.o
vector360                                         build/obj/vectors.o
vector361                                         build/obj/vectors.o
vector362                                         build/obj/vectors.o
vector363                                         build/obj/vectors.o
vector364                                         build/obj/vectors.o
vector365                                         build/obj/vectors.o
vector366                                         build/obj/vectors.o
vector367                                         build/obj/vectors.o
vector368                                         build/obj/vectors.o
vector369                                         build/obj/vectors.o
vector37                                          build/obj/vectors.o
vector370                                         build/obj/vectors.o
vector371                                         build/obj/vectors.o
vector372                                         build/obj/vectors.o
vector373                                         build/obj/vectors.o
vector374                                         build/obj/vectors.o
vector375                                         build/obj/vectors.o
vector376                                         build/obj/vectors.o
vector377                                         build/obj/vectors.o
vector378                                         build/obj/vectors.o
vector379                                         build/obj/vectors.o
vector38                                          build/obj/vectors.o
vector380                                         build/obj/vectors.o
vector381                                         build/obj/vectors.o
vector382                                         build/obj/vectors.o
vector383                                         build/obj/vectors.o
vector384                                         build/obj/vectors.o
vector385                                         build/obj/vectors.o
vector386                                         build/obj/vectors.o
vector387                                         build/obj/vectors.o
vector388                                         build/obj/vectors.o
vector389                                         build/obj/vectors.o
vector39                                          build/obj/vectors.o
vector390                                         build/obj/vectors.o
vector391                                         build/obj/vectors.o
vector392                                         build/obj/vectors.o
vector393                                         build/obj/vectors.o
vector394                                         build/obj/vectors.o
vector395                                         build/obj/vectors.o
vector396                                         build/obj/vectors.o
vector397                                         build/obj/vectors.o
vector398                                         build/obj/vectors.o
vector399                                         build/obj/vectors.o
vector4                                           build/obj/vectors.o
vector40                                          build/obj/vectors.o
vector400                                         build/obj/vectors.o
vector401                                         build/obj/vectors.o
vector402                                         build/obj/vectors.o
vector403                                         build/obj/vectors.o
vector404                                         build/obj/vectors.o
vector405                                         build/obj/vectors.o
vector406                                         build/obj/vectors.o
vector407                                         build/obj/vectors.o
vector408                                         build/obj/vectors.o
vector409                                         build/obj/vectors.o
vector41                                          build/obj/vectors.o
vector410                                         build/obj/vectors.o
vector411                                         build/obj/vectors.o
vector412                                         build/obj/vectors.o
vector413                                         build/obj/vectors.o
vector414                                         build/obj/vectors.o
vector415                                         build/obj/vectors.o
vector416                                         build/obj/vectors.o
vector417                                         build/obj/vectors.o
vector418                                         build/obj/vectors.o
vector419                                         build/obj/vectors.o
vector42                                          build/obj/vectors.o
vector420                                         build/obj/vectors.o
vector421                                         build/obj/vectors.o
vector422                                         build/obj/vectors.o
vector423                                         build/obj/vectors.o
vector424                                         build/obj/vectors.o
vector425                                         build/obj/vectors.o
vector426                                         build/obj/vectors.o
vector427                                         build/obj/vectors.o
vector428                                         build/obj/vectors.o
vector429                                         build/obj/vectors.o
vector43                                          build/obj/vectors.o
vector430                                         build/obj/vectors.o
vector431                                         build/obj/vectors.o
vector432                                         build/obj/vectors.o
vector433                                         build/obj/vectors.o
vector434                                         build/obj/vectors.o
vector435                                         build/obj/vectors.o
vector436                                         build/obj/vectors.o
vector437                                         build/obj/vectors.o
vector438                                         build/obj/vectors.o
vector439                                         build/obj/vectors.o
vector44                                          build/obj/vectors.o
vector440                                         build/obj/vectors.o
vector441                                         build/obj/vectors.o
vector442                                         build/obj/vectors.o
vector443                                         build/obj/vectors.o
vector444                                         build/obj/vectors.o
vector445                                         build/obj/vectors.o
vector446                                         build/obj/vectors.o
vector447                                         build/obj/vectors.o
vector448                                         build/obj/vectors.o
vector449                                         build/obj/vectors.o
vector45                                          build/obj/vectors.o
vector450                                         build/obj/vectors.o
vector451                                         build/obj/vectors.o
vector452                                         build/obj/vectors.o
vector453                                         build/obj/vectors.o
vector454                                         build/obj/vectors.o
vector455                                         build/obj/vectors.o
vector456                                         build/obj/vectors.o
vector457                                         build/obj/vectors.o
vector458                                         build/obj/vectors.o
vector459                                         build/obj/vectors.o
vector46                                          build/obj/vectors.o
vector460                                         build/obj/vectors.o
vector461                                         build/obj/vectors.o
vector462                                         build/obj/vectors.o
vector463                                         build/obj/vectors.o
vector464                                         build/obj/vectors.o
vector465                                         build/obj/vectors.o
vector466                                         build/obj/vectors.o
vector467                                         build/obj/vectors.o
vector468                                         build/obj/vectors.o
vector469                                         build/obj/vectors.o
vector47                                          build/obj/vectors.o
vector470                                         build/obj/vectors.o
vector471                                         build/obj/vectors.o
vector472                                         build/obj/vectors.o
vector473                                         build/obj/vectors.o
vector474                                         build/obj/vectors.o
vector475                                         build/obj/vectors.o
vector476                                         build/obj/vectors.o
vector477                                         build/obj/vectors.o
vector478                                         build/obj/vectors.o
vector479                                         build/obj/vectors.o
vector48                                          build/obj/vectors.o
vector480                                         build/obj/vectors.o
vector481                                         build/obj/vectors.o
vector482                                         build/obj/vectors.o
vector483                                         build/obj/vectors.o
vector484                                         build/obj/vectors.o
vector485                                         build/obj/vectors.o
vector486                                         build/obj/vectors.o
vector487                                         build/obj/vectors.o
vector488                                         build/obj/vectors.o
vector489                                         build/obj/vectors.o
vector49                                          build/obj/vectors.o
vector490                                         build/obj/vectors.o
vector491                                         build/obj/vectors.o
vector492                                         build/obj/vectors.o
vector493                                         build/obj/vectors.o
vector494                                         build/obj/vectors.o
vector495                                         build/obj/vectors.o
vector496                                         build/obj/vectors.o
vector497                                         build/obj/vectors.o
vector498                                         build/obj/vectors.o
vector499                                         build/obj/vectors.o
vector5                                           build/obj/vectors.o
vector50                                          build/obj/vectors.o
vector500                                         build/obj/vectors.o
vector501                                         build/obj/vectors.o
vector502                                         build/obj/vectors.o
vector503                                         build/obj/vectors.o
vector504                                         build/obj/vectors.o
vector505                                         build/obj/vectors.o
vector506                                         build/obj/vectors.o
vector507                                         build/obj/vectors.o
vector508                                         build/obj/vectors.o
vector509                                         build/obj/vectors.o
vector51                                          build/obj/vectors.o
vector510                                         build/obj/vectors.o
vector511                                         build/obj/vectors.o
vector512                                         build/obj/vectors.o
vector513                                         build/obj/vectors.o
vector514                                         build/obj/vectors.o
vector515                                         build/obj/vectors.o
vector516                                         build/obj/vectors.o
vector517                                         build/obj/vectors.o
vector518                                         build/obj/vectors.o
vector519                                         build/obj/vectors.o
vector52                                          build/obj/spc5_edma.o
                                                  build/obj/vectors.o
vector520                                         build/obj/vectors.o
vector521                                         build/obj/vectors.o
vector522                                         build/obj/vectors.o
vector523                                         build/obj/vectors.o
vector524                                         build/obj/vectors.o
vector525                                         build/obj/vectors.o
vector526                                         build/obj/vectors.o
vector527                                         build/obj/vectors.o
vector528                                         build/obj/vectors.o
vector529                                         build/obj/vectors.o
vector53                                          build/obj/spc5_edma.o
                                                  build/obj/vectors.o
vector530                                         build/obj/vectors.o
vector531                                         build/obj/vectors.o
vector532                                         build/obj/vectors.o
vector533                                         build/obj/vectors.o
vector534                                         build/obj/vectors.o
vector535                                         build/obj/vectors.o
vector536                                         build/obj/vectors.o
vector537                                         build/obj/vectors.o
vector538                                         build/obj/vectors.o
vector539                                         build/obj/vectors.o
vector54                                          build/obj/spc5_edma.o
                                                  build/obj/vectors.o
vector540                                         build/obj/vectors.o
vector541                                         build/obj/vectors.o
vector542                                         build/obj/vectors.o
vector543                                         build/obj/vectors.o
vector544                                         build/obj/vectors.o
vector545                                         build/obj/vectors.o
vector546                                         build/obj/vectors.o
vector547                                         build/obj/vectors.o
vector548                                         build/obj/vectors.o
vector549                                         build/obj/vectors.o
vector55                                          build/obj/spc5_edma.o
                                                  build/obj/vectors.o
vector550                                         build/obj/vectors.o
vector551                                         build/obj/vectors.o
vector552                                         build/obj/vectors.o
vector553                                         build/obj/vectors.o
vector554                                         build/obj/vectors.o
vector555                                         build/obj/vectors.o
vector556                                         build/obj/vectors.o
vector557                                         build/obj/vectors.o
vector558                                         build/obj/vectors.o
vector559                                         build/obj/vectors.o
vector56                                          build/obj/spc5_edma.o
                                                  build/obj/vectors.o
vector560                                         build/obj/vectors.o
vector561                                         build/obj/vectors.o
vector562                                         build/obj/vectors.o
vector563                                         build/obj/vectors.o
vector564                                         build/obj/vectors.o
vector565                                         build/obj/vectors.o
vector566                                         build/obj/vectors.o
vector567                                         build/obj/vectors.o
vector568                                         build/obj/vectors.o
vector569                                         build/obj/vectors.o
vector57                                          build/obj/spc5_edma.o
                                                  build/obj/vectors.o
vector570                                         build/obj/vectors.o
vector571                                         build/obj/vectors.o
vector572                                         build/obj/vectors.o
vector573                                         build/obj/vectors.o
vector574                                         build/obj/vectors.o
vector575                                         build/obj/vectors.o
vector576                                         build/obj/vectors.o
vector577                                         build/obj/vectors.o
vector578                                         build/obj/vectors.o
vector579                                         build/obj/vectors.o
vector58                                          build/obj/spc5_edma.o
                                                  build/obj/vectors.o
vector580                                         build/obj/vectors.o
vector581                                         build/obj/vectors.o
vector582                                         build/obj/vectors.o
vector583                                         build/obj/vectors.o
vector584                                         build/obj/vectors.o
vector585                                         build/obj/vectors.o
vector586                                         build/obj/vectors.o
vector587                                         build/obj/vectors.o
vector588                                         build/obj/vectors.o
vector589                                         build/obj/vectors.o
vector59                                          build/obj/spc5_edma.o
                                                  build/obj/vectors.o
vector590                                         build/obj/vectors.o
vector591                                         build/obj/vectors.o
vector592                                         build/obj/vectors.o
vector593                                         build/obj/vectors.o
vector594                                         build/obj/vectors.o
vector595                                         build/obj/vectors.o
vector596                                         build/obj/vectors.o
vector597                                         build/obj/vectors.o
vector598                                         build/obj/vectors.o
vector599                                         build/obj/vectors.o
vector6                                           build/obj/vectors.o
vector60                                          build/obj/spc5_edma.o
                                                  build/obj/vectors.o
vector600                                         build/obj/vectors.o
vector601                                         build/obj/vectors.o
vector602                                         build/obj/vectors.o
vector603                                         build/obj/vectors.o
vector604                                         build/obj/vectors.o
vector605                                         build/obj/vectors.o
vector606                                         build/obj/vectors.o
vector607                                         build/obj/vectors.o
vector608                                         build/obj/vectors.o
vector609                                         build/obj/vectors.o
vector61                                          build/obj/spc5_edma.o
                                                  build/obj/vectors.o
vector610                                         build/obj/vectors.o
vector611                                         build/obj/vectors.o
vector612                                         build/obj/vectors.o
vector613                                         build/obj/vectors.o
vector614                                         build/obj/vectors.o
vector615                                         build/obj/vectors.o
vector616                                         build/obj/vectors.o
vector617                                         build/obj/vectors.o
vector618                                         build/obj/vectors.o
vector619                                         build/obj/vectors.o
vector62                                          build/obj/spc5_edma.o
                                                  build/obj/vectors.o
vector620                                         build/obj/vectors.o
vector621                                         build/obj/vectors.o
vector622                                         build/obj/vectors.o
vector623                                         build/obj/vectors.o
vector624                                         build/obj/vectors.o
vector625                                         build/obj/vectors.o
vector626                                         build/obj/vectors.o
vector627                                         build/obj/vectors.o
vector628                                         build/obj/vectors.o
vector629                                         build/obj/vectors.o
vector63                                          build/obj/spc5_edma.o
                                                  build/obj/vectors.o
vector630                                         build/obj/vectors.o
vector631                                         build/obj/vectors.o
vector632                                         build/obj/vectors.o
vector633                                         build/obj/vectors.o
vector634                                         build/obj/vectors.o
vector635                                         build/obj/vectors.o
vector636                                         build/obj/vectors.o
vector637                                         build/obj/vectors.o
vector638                                         build/obj/vectors.o
vector639                                         build/obj/vectors.o
vector64                                          build/obj/spc5_edma.o
                                                  build/obj/vectors.o
vector640                                         build/obj/vectors.o
vector641                                         build/obj/vectors.o
vector642                                         build/obj/vectors.o
vector643                                         build/obj/vectors.o
vector644                                         build/obj/vectors.o
vector645                                         build/obj/vectors.o
vector646                                         build/obj/vectors.o
vector647                                         build/obj/vectors.o
vector648                                         build/obj/vectors.o
vector649                                         build/obj/vectors.o
vector65                                          build/obj/spc5_edma.o
                                                  build/obj/vectors.o
vector650                                         build/obj/vectors.o
vector651                                         build/obj/vectors.o
vector652                                         build/obj/vectors.o
vector653                                         build/obj/vectors.o
vector654                                         build/obj/vectors.o
vector655                                         build/obj/vectors.o
vector656                                         build/obj/vectors.o
vector657                                         build/obj/vectors.o
vector658                                         build/obj/vectors.o
vector659                                         build/obj/vectors.o
vector66                                          build/obj/spc5_edma.o
                                                  build/obj/vectors.o
vector660                                         build/obj/vectors.o
vector661                                         build/obj/vectors.o
vector662                                         build/obj/vectors.o
vector663                                         build/obj/vectors.o
vector664                                         build/obj/vectors.o
vector665                                         build/obj/vectors.o
vector666                                         build/obj/vectors.o
vector667                                         build/obj/vectors.o
vector668                                         build/obj/vectors.o
vector669                                         build/obj/vectors.o
vector67                                          build/obj/spc5_edma.o
                                                  build/obj/vectors.o
vector670                                         build/obj/vectors.o
vector671                                         build/obj/vectors.o
vector672                                         build/obj/vectors.o
vector673                                         build/obj/vectors.o
vector674                                         build/obj/vectors.o
vector675                                         build/obj/vectors.o
vector676                                         build/obj/vectors.o
vector677                                         build/obj/vectors.o
vector678                                         build/obj/vectors.o
vector679                                         build/obj/vectors.o
vector68                                          build/obj/spc5_edma.o
                                                  build/obj/vectors.o
vector680                                         build/obj/vectors.o
vector681                                         build/obj/vectors.o
vector682                                         build/obj/vectors.o
vector683                                         build/obj/vectors.o
vector684                                         build/obj/vectors.o
vector685                                         build/obj/vectors.o
vector686                                         build/obj/vectors.o
vector687                                         build/obj/vectors.o
vector688                                         build/obj/vectors.o
vector689                                         build/obj/vectors.o
vector69                                          build/obj/spc5_edma.o
                                                  build/obj/vectors.o
vector690                                         build/obj/vectors.o
vector691                                         build/obj/vectors.o
vector692                                         build/obj/can_lld.o
                                                  build/obj/vectors.o
vector693                                         build/obj/can_lld.o
                                                  build/obj/vectors.o
vector694                                         build/obj/can_lld.o
                                                  build/obj/vectors.o
vector695                                         build/obj/can_lld.o
                                                  build/obj/vectors.o
vector696                                         build/obj/can_lld.o
                                                  build/obj/vectors.o
vector697                                         build/obj/can_lld.o
                                                  build/obj/vectors.o
vector698                                         build/obj/vectors.o
vector699                                         build/obj/vectors.o
vector7                                           build/obj/vectors.o
vector70                                          build/obj/spc5_edma.o
                                                  build/obj/vectors.o
vector700                                         build/obj/vectors.o
vector701                                         build/obj/vectors.o
vector702                                         build/obj/vectors.o
vector703                                         build/obj/vectors.o
vector704                                         build/obj/vectors.o
vector705                                         build/obj/vectors.o
vector706                                         build/obj/vectors.o
vector707                                         build/obj/vectors.o
vector708                                         build/obj/vectors.o
vector709                                         build/obj/vectors.o
vector71                                          build/obj/spc5_edma.o
                                                  build/obj/vectors.o
vector710                                         build/obj/vectors.o
vector711                                         build/obj/vectors.o
vector712                                         build/obj/vectors.o
vector713                                         build/obj/vectors.o
vector714                                         build/obj/vectors.o
vector715                                         build/obj/vectors.o
vector716                                         build/obj/vectors.o
vector717                                         build/obj/vectors.o
vector718                                         build/obj/vectors.o
vector719                                         build/obj/vectors.o
vector72                                          build/obj/spc5_edma.o
                                                  build/obj/vectors.o
vector720                                         build/obj/vectors.o
vector721                                         build/obj/vectors.o
vector722                                         build/obj/vectors.o
vector723                                         build/obj/vectors.o
vector724                                         build/obj/vectors.o
vector725                                         build/obj/vectors.o
vector726                                         build/obj/vectors.o
vector727                                         build/obj/vectors.o
vector728                                         build/obj/vectors.o
vector729                                         build/obj/vectors.o
vector73                                          build/obj/spc5_edma.o
                                                  build/obj/vectors.o
vector730                                         build/obj/vectors.o
vector731                                         build/obj/vectors.o
vector732                                         build/obj/vectors.o
vector733                                         build/obj/vectors.o
vector734                                         build/obj/vectors.o
vector735                                         build/obj/vectors.o
vector736                                         build/obj/vectors.o
vector737                                         build/obj/vectors.o
vector738                                         build/obj/vectors.o
vector739                                         build/obj/vectors.o
vector74                                          build/obj/spc5_edma.o
                                                  build/obj/vectors.o
vector740                                         build/obj/vectors.o
vector741                                         build/obj/vectors.o
vector742                                         build/obj/vectors.o
vector743                                         build/obj/vectors.o
vector744                                         build/obj/vectors.o
vector745                                         build/obj/vectors.o
vector746                                         build/obj/vectors.o
vector747                                         build/obj/vectors.o
vector748                                         build/obj/vectors.o
vector749                                         build/obj/vectors.o
vector75                                          build/obj/spc5_edma.o
                                                  build/obj/vectors.o
vector750                                         build/obj/vectors.o
vector751                                         build/obj/vectors.o
vector752                                         build/obj/vectors.o
vector753                                         build/obj/vectors.o
vector754                                         build/obj/vectors.o
vector755                                         build/obj/vectors.o
vector756                                         build/obj/vectors.o
vector757                                         build/obj/vectors.o
vector758                                         build/obj/vectors.o
vector759                                         build/obj/vectors.o
vector76                                          build/obj/spc5_edma.o
                                                  build/obj/vectors.o
vector760                                         build/obj/vectors.o
vector761                                         build/obj/vectors.o
vector762                                         build/obj/vectors.o
vector763                                         build/obj/vectors.o
vector764                                         build/obj/vectors.o
vector765                                         build/obj/vectors.o
vector766                                         build/obj/vectors.o
vector767                                         build/obj/vectors.o
vector768                                         build/obj/vectors.o
vector769                                         build/obj/vectors.o
vector77                                          build/obj/spc5_edma.o
                                                  build/obj/vectors.o
vector770                                         build/obj/vectors.o
vector771                                         build/obj/vectors.o
vector772                                         build/obj/vectors.o
vector773                                         build/obj/vectors.o
vector774                                         build/obj/vectors.o
vector775                                         build/obj/vectors.o
vector776                                         build/obj/vectors.o
vector777                                         build/obj/vectors.o
vector778                                         build/obj/vectors.o
vector779                                         build/obj/vectors.o
vector78                                          build/obj/spc5_edma.o
                                                  build/obj/vectors.o
vector780                                         build/obj/vectors.o
vector781                                         build/obj/vectors.o
vector782                                         build/obj/vectors.o
vector783                                         build/obj/vectors.o
vector784                                         build/obj/vectors.o
vector785                                         build/obj/vectors.o
vector786                                         build/obj/vectors.o
vector787                                         build/obj/vectors.o
vector788                                         build/obj/vectors.o
vector789                                         build/obj/vectors.o
vector79                                          build/obj/spc5_edma.o
                                                  build/obj/vectors.o
vector790                                         build/obj/vectors.o
vector791                                         build/obj/vectors.o
vector792                                         build/obj/vectors.o
vector793                                         build/obj/vectors.o
vector794                                         build/obj/vectors.o
vector795                                         build/obj/vectors.o
vector796                                         build/obj/vectors.o
vector797                                         build/obj/vectors.o
vector798                                         build/obj/vectors.o
vector799                                         build/obj/vectors.o
vector8                                           build/obj/vectors.o
vector80                                          build/obj/spc5_edma.o
                                                  build/obj/vectors.o
vector800                                         build/obj/vectors.o
vector801                                         build/obj/vectors.o
vector802                                         build/obj/vectors.o
vector803                                         build/obj/vectors.o
vector804                                         build/obj/vectors.o
vector805                                         build/obj/vectors.o
vector806                                         build/obj/vectors.o
vector807                                         build/obj/vectors.o
vector808                                         build/obj/vectors.o
vector809                                         build/obj/vectors.o
vector81                                          build/obj/spc5_edma.o
                                                  build/obj/vectors.o
vector810                                         build/obj/vectors.o
vector811                                         build/obj/vectors.o
vector812                                         build/obj/vectors.o
vector813                                         build/obj/vectors.o
vector814                                         build/obj/vectors.o
vector815                                         build/obj/vectors.o
vector816                                         build/obj/vectors.o
vector817                                         build/obj/vectors.o
vector818                                         build/obj/vectors.o
vector819                                         build/obj/vectors.o
vector82                                          build/obj/spc5_edma.o
                                                  build/obj/vectors.o
vector820                                         build/obj/vectors.o
vector821                                         build/obj/vectors.o
vector822                                         build/obj/vectors.o
vector823                                         build/obj/vectors.o
vector824                                         build/obj/vectors.o
vector825                                         build/obj/vectors.o
vector826                                         build/obj/vectors.o
vector827                                         build/obj/vectors.o
vector828                                         build/obj/vectors.o
vector829                                         build/obj/vectors.o
vector83                                          build/obj/spc5_edma.o
                                                  build/obj/vectors.o
vector830                                         build/obj/vectors.o
vector831                                         build/obj/vectors.o
vector832                                         build/obj/vectors.o
vector833                                         build/obj/vectors.o
vector834                                         build/obj/vectors.o
vector835                                         build/obj/vectors.o
vector836                                         build/obj/vectors.o
vector837                                         build/obj/vectors.o
vector838                                         build/obj/vectors.o
vector839                                         build/obj/vectors.o
vector84                                          build/obj/spc5_edma.o
                                                  build/obj/vectors.o
vector840                                         build/obj/vectors.o
vector841                                         build/obj/vectors.o
vector842                                         build/obj/vectors.o
vector843                                         build/obj/vectors.o
vector844                                         build/obj/vectors.o
vector845                                         build/obj/vectors.o
vector846                                         build/obj/vectors.o
vector847                                         build/obj/vectors.o
vector848                                         build/obj/vectors.o
vector849                                         build/obj/vectors.o
vector85                                          build/obj/spc5_edma.o
                                                  build/obj/vectors.o
vector850                                         build/obj/vectors.o
vector851                                         build/obj/vectors.o
vector852                                         build/obj/vectors.o
vector853                                         build/obj/vectors.o
vector854                                         build/obj/vectors.o
vector855                                         build/obj/vectors.o
vector856                                         build/obj/vectors.o
vector857                                         build/obj/vectors.o
vector858                                         build/obj/vectors.o
vector859                                         build/obj/vectors.o
vector86                                          build/obj/spc5_edma.o
                                                  build/obj/vectors.o
vector860                                         build/obj/vectors.o
vector861                                         build/obj/vectors.o
vector862                                         build/obj/vectors.o
vector863                                         build/obj/vectors.o
vector864                                         build/obj/vectors.o
vector865                                         build/obj/vectors.o
vector866                                         build/obj/vectors.o
vector867                                         build/obj/vectors.o
vector868                                         build/obj/vectors.o
vector869                                         build/obj/vectors.o
vector87                                          build/obj/spc5_edma.o
                                                  build/obj/vectors.o
vector870                                         build/obj/vectors.o
vector871                                         build/obj/vectors.o
vector872                                         build/obj/vectors.o
vector873                                         build/obj/vectors.o
vector874                                         build/obj/vectors.o
vector875                                         build/obj/vectors.o
vector876                                         build/obj/vectors.o
vector877                                         build/obj/vectors.o
vector878                                         build/obj/vectors.o
vector879                                         build/obj/vectors.o
vector88                                          build/obj/spc5_edma.o
                                                  build/obj/vectors.o
vector880                                         build/obj/vectors.o
vector881                                         build/obj/vectors.o
vector882                                         build/obj/vectors.o
vector883                                         build/obj/vectors.o
vector884                                         build/obj/vectors.o
vector885                                         build/obj/vectors.o
vector886                                         build/obj/vectors.o
vector887                                         build/obj/vectors.o
vector888                                         build/obj/vectors.o
vector889                                         build/obj/vectors.o
vector89                                          build/obj/spc5_edma.o
                                                  build/obj/vectors.o
vector890                                         build/obj/vectors.o
vector891                                         build/obj/vectors.o
vector892                                         build/obj/vectors.o
vector893                                         build/obj/vectors.o
vector894                                         build/obj/vectors.o
vector895                                         build/obj/vectors.o
vector896                                         build/obj/vectors.o
vector897                                         build/obj/vectors.o
vector898                                         build/obj/vectors.o
vector899                                         build/obj/vectors.o
vector9                                           build/obj/vectors.o
vector90                                          build/obj/spc5_edma.o
                                                  build/obj/vectors.o
vector900                                         build/obj/vectors.o
vector901                                         build/obj/vectors.o
vector902                                         build/obj/vectors.o
vector903                                         build/obj/vectors.o
vector904                                         build/obj/vectors.o
vector905                                         build/obj/vectors.o
vector906                                         build/obj/vectors.o
vector907                                         build/obj/vectors.o
vector908                                         build/obj/vectors.o
vector909                                         build/obj/vectors.o
vector91                                          build/obj/spc5_edma.o
                                                  build/obj/vectors.o
vector910                                         build/obj/vectors.o
vector911                                         build/obj/vectors.o
vector912                                         build/obj/vectors.o
vector913                                         build/obj/vectors.o
vector914                                         build/obj/vectors.o
vector915                                         build/obj/vectors.o
vector916                                         build/obj/vectors.o
vector917                                         build/obj/vectors.o
vector918                                         build/obj/vectors.o
vector919                                         build/obj/vectors.o
vector92                                          build/obj/spc5_edma.o
                                                  build/obj/vectors.o
vector920                                         build/obj/vectors.o
vector921                                         build/obj/vectors.o
vector922                                         build/obj/vectors.o
vector923                                         build/obj/vectors.o
vector924                                         build/obj/vectors.o
vector925                                         build/obj/vectors.o
vector926                                         build/obj/vectors.o
vector927                                         build/obj/vectors.o
vector928                                         build/obj/vectors.o
vector929                                         build/obj/vectors.o
vector93                                          build/obj/spc5_edma.o
                                                  build/obj/vectors.o
vector930                                         build/obj/vectors.o
vector931                                         build/obj/vectors.o
vector932                                         build/obj/vectors.o
vector933                                         build/obj/vectors.o
vector934                                         build/obj/vectors.o
vector935                                         build/obj/vectors.o
vector936                                         build/obj/vectors.o
vector937                                         build/obj/vectors.o
vector938                                         build/obj/vectors.o
vector939                                         build/obj/vectors.o
vector94                                          build/obj/spc5_edma.o
                                                  build/obj/vectors.o
vector940                                         build/obj/vectors.o
vector941                                         build/obj/vectors.o
vector942                                         build/obj/vectors.o
vector943                                         build/obj/vectors.o
vector944                                         build/obj/vectors.o
vector945                                         build/obj/vectors.o
vector946                                         build/obj/vectors.o
vector947                                         build/obj/vectors.o
vector948                                         build/obj/vectors.o
vector949                                         build/obj/vectors.o
vector95                                          build/obj/spc5_edma.o
                                                  build/obj/vectors.o
vector950                                         build/obj/vectors.o
vector951                                         build/obj/vectors.o
vector952                                         build/obj/vectors.o
vector953                                         build/obj/vectors.o
vector954                                         build/obj/vectors.o
vector955                                         build/obj/vectors.o
vector956                                         build/obj/vectors.o
vector957                                         build/obj/vectors.o
vector958                                         build/obj/vectors.o
vector959                                         build/obj/vectors.o
vector96                                          build/obj/spc5_edma.o
                                                  build/obj/vectors.o
vector960                                         build/obj/vectors.o
vector961                                         build/obj/vectors.o
vector962                                         build/obj/vectors.o
vector963                                         build/obj/vectors.o
vector964                                         build/obj/vectors.o
vector965                                         build/obj/vectors.o
vector966                                         build/obj/vectors.o
vector967                                         build/obj/vectors.o
vector968                                         build/obj/vectors.o
vector969                                         build/obj/vectors.o
vector97                                          build/obj/spc5_edma.o
                                                  build/obj/vectors.o
vector970                                         build/obj/vectors.o
vector971                                         build/obj/vectors.o
vector972                                         build/obj/vectors.o
vector973                                         build/obj/vectors.o
vector974                                         build/obj/vectors.o
vector975                                         build/obj/vectors.o
vector976                                         build/obj/vectors.o
vector977                                         build/obj/vectors.o
vector978                                         build/obj/vectors.o
vector979                                         build/obj/vectors.o
vector98                                          build/obj/spc5_edma.o
                                                  build/obj/vectors.o
vector980                                         build/obj/vectors.o
vector981                                         build/obj/vectors.o
vector982                                         build/obj/vectors.o
vector983                                         build/obj/vectors.o
vector984                                         build/obj/vectors.o
vector985                                         build/obj/vectors.o
vector986                                         build/obj/vectors.o
vector987                                         build/obj/vectors.o
vector988                                         build/obj/vectors.o
vector989                                         build/obj/vectors.o
vector99                                          build/obj/spc5_edma.o
                                                  build/obj/vectors.o
vector990                                         build/obj/vectors.o
vector991                                         build/obj/vectors.o
vector992                                         build/obj/vectors.o
vector993                                         build/obj/vectors.o
vector994                                         build/obj/vectors.o
vector995                                         build/obj/vectors.o
vector996                                         build/obj/vectors.o
vector997                                         build/obj/vectors.o
vector998                                         build/obj/vectors.o
vector999                                         build/obj/vectors.o
xEventGroupClearBits                              build/obj/event_groups.o
xEventGroupCreate                                 build/obj/event_groups.o
xEventGroupGetBitsFromISR                         build/obj/event_groups.o
xEventGroupSetBits                                build/obj/event_groups.o
xEventGroupSync                                   build/obj/event_groups.o
xEventGroupWaitBits                               build/obj/event_groups.o
xPortGetFreeHeapSize                              build/obj/heap_4.o
xPortGetMinimumEverFreeHeapSize                   build/obj/heap_4.o
xPortStartScheduler                               build/obj/port.o
                                                  build/obj/tasks.o
xQueueAddToSet                                    build/obj/queue.o
xQueueCreateMutex                                 build/obj/queue.o
xQueueCreateSet                                   build/obj/queue.o
xQueueGenericCreate                               build/obj/queue.o
                                                  build/obj/main.o
xQueueGenericReset                                build/obj/queue.o
xQueueGenericSend                                 build/obj/queue.o
xQueueGenericSendFromISR                          build/obj/queue.o
                                                  build/obj/CAN_tools.o
xQueueGiveFromISR                                 build/obj/queue.o
xQueueIsQueueEmptyFromISR                         build/obj/queue.o
xQueueIsQueueFullFromISR                          build/obj/queue.o
xQueuePeek                                        build/obj/queue.o
xQueuePeekFromISR                                 build/obj/queue.o
xQueueReceive                                     build/obj/queue.o
                                                  build/obj/main.o
xQueueReceiveFromISR                              build/obj/queue.o
xQueueRegistry                                    build/obj/queue.o
xQueueRemoveFromSet                               build/obj/queue.o
xQueueSelectFromSet                               build/obj/queue.o
xQueueSelectFromSetFromISR                        build/obj/queue.o
xQueueSemaphoreTake                               build/obj/queue.o
xQueue_CAN5                                       build/obj/main.o
                                                  build/obj/CAN_tools.o
xStreamBufferBytesAvailable                       build/obj/stream_buffer.o
xStreamBufferGenericCreate                        build/obj/stream_buffer.o
xStreamBufferIsEmpty                              build/obj/stream_buffer.o
xStreamBufferIsFull                               build/obj/stream_buffer.o
xStreamBufferNextMessageLengthBytes               build/obj/stream_buffer.o
xStreamBufferReceive                              build/obj/stream_buffer.o
xStreamBufferReceiveCompletedFromISR              build/obj/stream_buffer.o
xStreamBufferReceiveFromISR                       build/obj/stream_buffer.o
xStreamBufferReset                                build/obj/stream_buffer.o
xStreamBufferSend                                 build/obj/stream_buffer.o
xStreamBufferSendCompletedFromISR                 build/obj/stream_buffer.o
xStreamBufferSendFromISR                          build/obj/stream_buffer.o
xStreamBufferSetTriggerLevel                      build/obj/stream_buffer.o
xStreamBufferSpacesAvailable                      build/obj/stream_buffer.o
xTaskCheckForTimeOut                              build/obj/tasks.o
                                                  build/obj/stream_buffer.o
                                                  build/obj/queue.o
xTaskCreate                                       build/obj/tasks.o
                                                  build/obj/main.o
xTaskGenericNotify                                build/obj/tasks.o
                                                  build/obj/stream_buffer.o
xTaskGenericNotifyFromISR                         build/obj/tasks.o
                                                  build/obj/stream_buffer.o
xTaskGetCurrentTaskHandle                         build/obj/tasks.o
                                                  build/obj/stream_buffer.o
xTaskGetTickCount                                 build/obj/tasks.o
                                                  build/obj/main.o
                                                  build/obj/osal.o
xTaskGetTickCountFromISR                          build/obj/tasks.o
xTaskIncrementTick                                build/obj/tasks.o
                                                  build/obj/port.o
xTaskNotifyStateClear                             build/obj/tasks.o
                                                  build/obj/stream_buffer.o
xTaskNotifyWait                                   build/obj/tasks.o
                                                  build/obj/stream_buffer.o
xTaskPriorityDisinherit                           build/obj/tasks.o
                                                  build/obj/queue.o
xTaskPriorityInherit                              build/obj/tasks.o
                                                  build/obj/queue.o
xTaskRemoveFromEventList                          build/obj/tasks.o
                                                  build/obj/queue.o
xTaskResumeAll                                    build/obj/tasks.o
                                                  build/obj/heap_4.o
                                                  build/obj/stream_buffer.o
                                                  build/obj/queue.o
                                                  build/obj/event_groups.o
xTaskResumeFromISR                                build/obj/tasks.o
